<?xml version="1.0" encoding="UTF-8"?>
<LIBRARY NAME="dui70.dll" PATH="C:\Windows\System32\DUI70.DLL" DATE="Mon Jul 13 06:40:34 PDT 2009" VERSION="6.1.7600.16385 (win7_rtm.090713-1255)">
    <EXPORT ORDINAL="1" NAME="??0?$PatternProvider@VExpandCollapseProvider@DirectUI@@UIExpandCollapseProvider@@$00@DirectUI@@QEAA@XZ" PURGE="0" COMMENT="" />
    <EXPORT ORDINAL="2" NAME="??0?$PatternProvider@VGridItemProvider@DirectUI@@UIGridItemProvider@@$01@DirectUI@@QEAA@XZ" PURGE="0" COMMENT="" />
    <EXPORT ORDINAL="3" NAME="??0?$PatternProvider@VGridProvider@DirectUI@@UIGridProvider@@$02@DirectUI@@QEAA@XZ" PURGE="0" COMMENT="" />
    <EXPORT ORDINAL="4" NAME="??0?$PatternProvider@VInvokeProvider@DirectUI@@UIInvokeProvider@@$0A@@DirectUI@@QEAA@XZ" PURGE="0" COMMENT="" />
    <EXPORT ORDINAL="5" NAME="??0?$PatternProvider@VRangeValueProvider@DirectUI@@UIRangeValueProvider@@$03@DirectUI@@QEAA@XZ" PURGE="0" COMMENT="" />
    <EXPORT ORDINAL="6" NAME="??0?$PatternProvider@VScrollItemProvider@DirectUI@@UIScrollItemProvider@@$05@DirectUI@@QEAA@XZ" PURGE="0" COMMENT="" />
    <EXPORT ORDINAL="7" NAME="??0?$PatternProvider@VScrollProvider@DirectUI@@UIScrollProvider@@$04@DirectUI@@QEAA@XZ" PURGE="0" COMMENT="" />
    <EXPORT ORDINAL="8" NAME="??0?$PatternProvider@VSelectionItemProvider@DirectUI@@UISelectionItemProvider@@$06@DirectUI@@QEAA@XZ" PURGE="0" COMMENT="" />
    <EXPORT ORDINAL="9" NAME="??0?$PatternProvider@VSelectionProvider@DirectUI@@UISelectionProvider@@$07@DirectUI@@QEAA@XZ" PURGE="0" COMMENT="" />
    <EXPORT ORDINAL="10" NAME="??0?$PatternProvider@VTableItemProvider@DirectUI@@UITableItemProvider@@$09@DirectUI@@QEAA@XZ" PURGE="0" COMMENT="" />
    <EXPORT ORDINAL="11" NAME="??0?$PatternProvider@VTableProvider@DirectUI@@UITableProvider@@$08@DirectUI@@QEAA@XZ" PURGE="0" COMMENT="" />
    <EXPORT ORDINAL="12" NAME="??0?$PatternProvider@VToggleProvider@DirectUI@@UIToggleProvider@@$0L@@DirectUI@@QEAA@XZ" PURGE="0" COMMENT="" />
    <EXPORT ORDINAL="13" NAME="??0?$PatternProvider@VValueProvider@DirectUI@@UIValueProvider@@$0M@@DirectUI@@QEAA@XZ" PURGE="0" COMMENT="" />
    <EXPORT ORDINAL="14" NAME="??0?$SafeArrayAccessor@H@DirectUI@@QEAA@XZ" PURGE="0" COMMENT="" />
    <EXPORT ORDINAL="15" NAME="??0AccessibleButton@DirectUI@@QEAA@AEBV01@@Z" PURGE="0" COMMENT="" />
    <EXPORT ORDINAL="16" NAME="??0AccessibleButton@DirectUI@@QEAA@XZ" PURGE="0" COMMENT="" />
    <EXPORT ORDINAL="17" NAME="??0AnimationStrip@DirectUI@@QEAA@AEBV01@@Z" PURGE="0" COMMENT="" />
    <EXPORT ORDINAL="18" NAME="??0AnimationStrip@DirectUI@@QEAA@XZ" PURGE="0" COMMENT="" />
    <EXPORT ORDINAL="19" NAME="??0AutoButton@DirectUI@@QEAA@AEBV01@@Z" PURGE="0" COMMENT="" />
    <EXPORT ORDINAL="20" NAME="??0AutoButton@DirectUI@@QEAA@XZ" PURGE="0" COMMENT="" />
    <EXPORT ORDINAL="21" NAME="??0CritSecLock@DirectUI@@QEAA@PEAU_RTL_CRITICAL_SECTION@@@Z" PURGE="0" COMMENT="" />
    <EXPORT ORDINAL="22" NAME="??0XHost@DirectUI@@QEAA@XZ" PURGE="0" COMMENT="" />
    <EXPORT ORDINAL="23" NAME="??0AutoVariant@DirectUI@@QEAA@XZ" PURGE="0" COMMENT="" />
    <EXPORT ORDINAL="24" NAME="??0BaseScrollBar@DirectUI@@QEAA@AEBV01@@Z" PURGE="0" COMMENT="" />
    <EXPORT ORDINAL="25" NAME="??0BaseScrollBar@DirectUI@@QEAA@XZ" PURGE="0" COMMENT="" />
    <EXPORT ORDINAL="26" NAME="??0BaseScrollViewer@DirectUI@@QEAA@AEBV01@@Z" PURGE="0" COMMENT="" />
    <EXPORT ORDINAL="27" NAME="??0BaseScrollViewer@DirectUI@@QEAA@XZ" PURGE="0" COMMENT="" />
    <EXPORT ORDINAL="28" NAME="??0Bind@DirectUI@@QEAA@AEBV01@@Z" PURGE="0" COMMENT="" />
    <EXPORT ORDINAL="29" NAME="??0Bind@DirectUI@@QEAA@XZ" PURGE="0" COMMENT="" />
    <EXPORT ORDINAL="30" NAME="??0BorderLayout@DirectUI@@QEAA@AEBV01@@Z" PURGE="0" COMMENT="" />
    <EXPORT ORDINAL="31" NAME="??0BorderLayout@DirectUI@@QEAA@XZ" PURGE="0" COMMENT="" />
    <EXPORT ORDINAL="32" NAME="??0Browser@DirectUI@@QEAA@AEBV01@@Z" PURGE="0" COMMENT="" />
    <EXPORT ORDINAL="33" NAME="??0Browser@DirectUI@@QEAA@XZ" PURGE="0" COMMENT="" />
    <EXPORT ORDINAL="34" NAME="??0BrowserSelectionProxy@DirectUI@@QEAA@AEBV01@@Z" PURGE="0" COMMENT="" />
    <EXPORT ORDINAL="35" NAME="??0BrowserSelectionProxy@DirectUI@@QEAA@XZ" PURGE="0" COMMENT="" />
    <EXPORT ORDINAL="36" NAME="??0Button@DirectUI@@QEAA@AEBV01@@Z" PURGE="0" COMMENT="" />
    <EXPORT ORDINAL="37" NAME="??0Button@DirectUI@@QEAA@XZ" PURGE="0" COMMENT="" />
    <EXPORT ORDINAL="38" NAME="??0CCAVI@DirectUI@@QEAA@AEBV01@@Z" PURGE="0" COMMENT="" />
    <EXPORT ORDINAL="39" NAME="??0CCAVI@DirectUI@@QEAA@XZ" PURGE="0" COMMENT="" />
    <EXPORT ORDINAL="40" NAME="??0CCBase@DirectUI@@QEAA@AEBV01@@Z" PURGE="0" COMMENT="" />
    <EXPORT ORDINAL="41" NAME="??0CCBase@DirectUI@@QEAA@KPEBG@Z" PURGE="0" COMMENT="" />
    <EXPORT ORDINAL="42" NAME="??0CCBaseCheckRadioButton@DirectUI@@QEAA@AEBV01@@Z" PURGE="0" COMMENT="" />
    <EXPORT ORDINAL="43" NAME="??0CCBaseCheckRadioButton@DirectUI@@QEAA@K@Z" PURGE="0" COMMENT="" />
    <EXPORT ORDINAL="44" NAME="??0CCBaseScrollBar@DirectUI@@QEAA@AEBV01@@Z" PURGE="0" COMMENT="" />
    <EXPORT ORDINAL="45" NAME="??0CCBaseScrollBar@DirectUI@@QEAA@K@Z" PURGE="0" COMMENT="" />
    <EXPORT ORDINAL="46" NAME="??0CCCheckBox@DirectUI@@QEAA@AEBV01@@Z" PURGE="0" COMMENT="" />
    <EXPORT ORDINAL="47" NAME="??0CCCheckBox@DirectUI@@QEAA@K@Z" PURGE="0" COMMENT="" />
    <EXPORT ORDINAL="48" NAME="??0CCCommandLink@DirectUI@@QEAA@AEBV01@@Z" PURGE="0" COMMENT="" />
    <EXPORT ORDINAL="49" NAME="??0CCCommandLink@DirectUI@@QEAA@K@Z" PURGE="0" COMMENT="" />
    <EXPORT ORDINAL="50" NAME="??0CCHScrollBar@DirectUI@@QEAA@AEBV01@@Z" PURGE="0" COMMENT="" />
    <EXPORT ORDINAL="51" NAME="??0CCHScrollBar@DirectUI@@QEAA@XZ" PURGE="0" COMMENT="" />
    <EXPORT ORDINAL="52" NAME="??0CCListBox@DirectUI@@QEAA@AEBV01@@Z" PURGE="0" COMMENT="" />
    <EXPORT ORDINAL="53" NAME="??0CCListBox@DirectUI@@QEAA@XZ" PURGE="0" COMMENT="" />
    <EXPORT ORDINAL="54" NAME="??0CCListView@DirectUI@@QEAA@AEBV01@@Z" PURGE="0" COMMENT="" />
    <EXPORT ORDINAL="55" NAME="??0CCListView@DirectUI@@QEAA@XZ" PURGE="0" COMMENT="" />
    <EXPORT ORDINAL="56" NAME="??0CCProgressBar@DirectUI@@QEAA@AEBV01@@Z" PURGE="0" COMMENT="" />
    <EXPORT ORDINAL="57" NAME="??0CCProgressBar@DirectUI@@QEAA@XZ" PURGE="0" COMMENT="" />
    <EXPORT ORDINAL="58" NAME="??0CCPushButton@DirectUI@@QEAA@AEBV01@@Z" PURGE="0" COMMENT="" />
    <EXPORT ORDINAL="59" NAME="??0CCPushButton@DirectUI@@QEAA@K@Z" PURGE="0" COMMENT="" />
    <EXPORT ORDINAL="60" NAME="??0CCRadioButton@DirectUI@@QEAA@AEBV01@@Z" PURGE="0" COMMENT="" />
    <EXPORT ORDINAL="61" NAME="??0CCRadioButton@DirectUI@@QEAA@XZ" PURGE="0" COMMENT="" />
    <EXPORT ORDINAL="62" NAME="??0CCSysLink@DirectUI@@QEAA@AEBV01@@Z" PURGE="0" COMMENT="" />
    <EXPORT ORDINAL="63" NAME="??0CCSysLink@DirectUI@@QEAA@XZ" PURGE="0" COMMENT="" />
    <EXPORT ORDINAL="64" NAME="??0CCTrackBar@DirectUI@@QEAA@AEBV01@@Z" PURGE="0" COMMENT="" />
    <EXPORT ORDINAL="65" NAME="??0CCTrackBar@DirectUI@@QEAA@XZ" PURGE="0" COMMENT="" />
    <EXPORT ORDINAL="66" NAME="??0CCTreeView@DirectUI@@QEAA@AEBV01@@Z" PURGE="0" COMMENT="" />
    <EXPORT ORDINAL="67" NAME="??0CCTreeView@DirectUI@@QEAA@K@Z" PURGE="0" COMMENT="" />
    <EXPORT ORDINAL="68" NAME="??0CCVScrollBar@DirectUI@@QEAA@AEBV01@@Z" PURGE="0" COMMENT="" />
    <EXPORT ORDINAL="69" NAME="??0CCVScrollBar@DirectUI@@QEAA@XZ" PURGE="0" COMMENT="" />
    <EXPORT ORDINAL="70" NAME="??0CallstackTracker@DirectUI@@QEAA@XZ" PURGE="0" COMMENT="" />
    <EXPORT ORDINAL="71" NAME="??0CheckBoxGlyph@DirectUI@@QEAA@AEBV01@@Z" PURGE="0" COMMENT="" />
    <EXPORT ORDINAL="72" NAME="??0CheckBoxGlyph@DirectUI@@QEAA@XZ" PURGE="0" COMMENT="" />
    <EXPORT ORDINAL="73" NAME="??0ClassInfoBase@DirectUI@@QEAA@AEBV01@@Z" PURGE="0" COMMENT="" />
    <EXPORT ORDINAL="74" NAME="??0ClassInfoBase@DirectUI@@QEAA@XZ" PURGE="0" COMMENT="" />
    <EXPORT ORDINAL="75" NAME="??0Clipper@DirectUI@@QEAA@AEBV01@@Z" PURGE="0" COMMENT="" />
    <EXPORT ORDINAL="76" NAME="??0Clipper@DirectUI@@QEAA@XZ" PURGE="0" COMMENT="" />
    <EXPORT ORDINAL="77" NAME="??0Combobox@DirectUI@@QEAA@AEBV01@@Z" PURGE="0" COMMENT="" />
    <EXPORT ORDINAL="78" NAME="??0Combobox@DirectUI@@QEAA@XZ" PURGE="0" COMMENT="" />
    <EXPORT ORDINAL="79" NAME="??0AutoLock@DirectUI@@QEAA@PEAU_RTL_CRITICAL_SECTION@@@Z" PURGE="0" COMMENT="" />
    <EXPORT ORDINAL="80" NAME="??0DCSurface@DirectUI@@QEAA@AEBV01@@Z" PURGE="0" COMMENT="" />
    <EXPORT ORDINAL="81" NAME="??0DCSurface@DirectUI@@QEAA@PEAUHDC__@@@Z" PURGE="0" COMMENT="" />
    <EXPORT ORDINAL="82" NAME="??0DUIFactory@DirectUI@@QEAA@PEAUHWND__@@@Z" PURGE="0" COMMENT="" />
    <EXPORT ORDINAL="83" NAME="??0DUIXmlParser@DirectUI@@QEAA@AEBV01@@Z" PURGE="0" COMMENT="" />
    <EXPORT ORDINAL="84" NAME="??0DUIXmlParser@DirectUI@@QEAA@XZ" PURGE="0" COMMENT="" />
    <EXPORT ORDINAL="85" NAME="??0DialogElement@DirectUI@@QEAA@AEBV01@@Z" PURGE="0" COMMENT="" />
    <EXPORT ORDINAL="86" NAME="??0DialogElement@DirectUI@@QEAA@XZ" PURGE="0" COMMENT="" />
    <EXPORT ORDINAL="87" NAME="??0DuiAccessible@DirectUI@@QEAA@XZ" PURGE="0" COMMENT="" />
    <EXPORT ORDINAL="88" NAME="??0Edit@DirectUI@@QEAA@AEBV01@@Z" PURGE="0" COMMENT="" />
    <EXPORT ORDINAL="89" NAME="??0Edit@DirectUI@@QEAA@XZ" PURGE="0" COMMENT="" />
    <EXPORT ORDINAL="90" NAME="??0Element@DirectUI@@QEAA@AEBV01@@Z" PURGE="0" COMMENT="" />
    <EXPORT ORDINAL="91" NAME="??0Element@DirectUI@@QEAA@XZ" PURGE="0" COMMENT="" />
    <EXPORT ORDINAL="92" NAME="??0ElementProvider@DirectUI@@QEAA@XZ" PURGE="0" COMMENT="" />
    <EXPORT ORDINAL="93" NAME="??0ElementProxy@DirectUI@@QEAA@AEBV01@@Z" PURGE="0" COMMENT="" />
    <EXPORT ORDINAL="94" NAME="??0ElementProxy@DirectUI@@QEAA@XZ" PURGE="0" COMMENT="" />
    <EXPORT ORDINAL="95" NAME="??0ElementWithHWND@DirectUI@@QEAA@AEBV01@@Z" PURGE="0" COMMENT="" />
    <EXPORT ORDINAL="96" NAME="??0ElementWithHWND@DirectUI@@QEAA@XZ" PURGE="0" COMMENT="" />
    <EXPORT ORDINAL="97" NAME="??0ExpandCollapseProvider@DirectUI@@QEAA@XZ" PURGE="0" COMMENT="" />
    <EXPORT ORDINAL="98" NAME="??0ExpandCollapseProxy@DirectUI@@QEAA@AEBV01@@Z" PURGE="0" COMMENT="" />
    <EXPORT ORDINAL="99" NAME="??0ExpandCollapseProxy@DirectUI@@QEAA@XZ" PURGE="0" COMMENT="" />
    <EXPORT ORDINAL="100" NAME="??0Expandable@DirectUI@@QEAA@AEBV01@@Z" PURGE="0" COMMENT="" />
    <EXPORT ORDINAL="101" NAME="??0Expandable@DirectUI@@QEAA@XZ" PURGE="0" COMMENT="" />
    <EXPORT ORDINAL="102" NAME="??0Expando@DirectUI@@QEAA@AEBV01@@Z" PURGE="0" COMMENT="" />
    <EXPORT ORDINAL="103" NAME="??0Expando@DirectUI@@QEAA@XZ" PURGE="0" COMMENT="" />
    <EXPORT ORDINAL="104" NAME="??0ExpandoButtonGlyph@DirectUI@@QEAA@AEBV01@@Z" PURGE="0" COMMENT="" />
    <EXPORT ORDINAL="105" NAME="??0ExpandoButtonGlyph@DirectUI@@QEAA@XZ" PURGE="0" COMMENT="" />
    <EXPORT ORDINAL="106" NAME="??0FillLayout@DirectUI@@QEAA@AEBV01@@Z" PURGE="0" COMMENT="" />
    <EXPORT ORDINAL="107" NAME="??0FillLayout@DirectUI@@QEAA@XZ" PURGE="0" COMMENT="" />
    <EXPORT ORDINAL="108" NAME="??0FlowLayout@DirectUI@@QEAA@AEBV01@@Z" PURGE="0" COMMENT="" />
    <EXPORT ORDINAL="109" NAME="??0FlowLayout@DirectUI@@QEAA@XZ" PURGE="0" COMMENT="" />
    <EXPORT ORDINAL="110" NAME="??0FontCache@DirectUI@@QEAA@XZ" PURGE="0" COMMENT="" />
    <EXPORT ORDINAL="111" NAME="??0FontCache@DirectUI@@QEAA@AEBV01@@Z" PURGE="0" COMMENT="" />
    <EXPORT ORDINAL="112" NAME="??0FontCheckOut@DirectUI@@QEAA@PEAVElement@1@PEAUHDC__@@@Z" PURGE="0" COMMENT="" />
    <EXPORT ORDINAL="113" NAME="??0GridItemProvider@DirectUI@@QEAA@XZ" PURGE="0" COMMENT="" />
    <EXPORT ORDINAL="114" NAME="??0GridItemProxy@DirectUI@@QEAA@AEBV01@@Z" PURGE="0" COMMENT="" />
    <EXPORT ORDINAL="115" NAME="??0GridItemProxy@DirectUI@@QEAA@XZ" PURGE="0" COMMENT="" />
    <EXPORT ORDINAL="116" NAME="??0GridLayout@DirectUI@@QEAA@AEBV01@@Z" PURGE="0" COMMENT="" />
    <EXPORT ORDINAL="117" NAME="??0GridLayout@DirectUI@@QEAA@XZ" PURGE="0" COMMENT="" />
    <EXPORT ORDINAL="118" NAME="??0GridProvider@DirectUI@@QEAA@XZ" PURGE="0" COMMENT="" />
    <EXPORT ORDINAL="119" NAME="??0GridProxy@DirectUI@@QEAA@AEBV01@@Z" PURGE="0" COMMENT="" />
    <EXPORT ORDINAL="120" NAME="??0GridProxy@DirectUI@@QEAA@XZ" PURGE="0" COMMENT="" />
    <EXPORT ORDINAL="121" NAME="??0HWNDElement@DirectUI@@QEAA@AEBV01@@Z" PURGE="0" COMMENT="" />
    <EXPORT ORDINAL="122" NAME="??0HWNDElement@DirectUI@@QEAA@XZ" PURGE="0" COMMENT="" />
    <EXPORT ORDINAL="123" NAME="??0HWNDElementAccessible@DirectUI@@QEAA@XZ" PURGE="0" COMMENT="" />
    <EXPORT ORDINAL="124" NAME="??0HWNDElementProvider@DirectUI@@QEAA@XZ" PURGE="0" COMMENT="" />
    <EXPORT ORDINAL="125" NAME="??0HWNDElementProxy@DirectUI@@QEAA@AEBV01@@Z" PURGE="0" COMMENT="" />
    <EXPORT ORDINAL="126" NAME="??0HWNDElementProxy@DirectUI@@QEAA@XZ" PURGE="0" COMMENT="" />
    <EXPORT ORDINAL="127" NAME="??0HWNDHost@DirectUI@@QEAA@AEBV01@@Z" PURGE="0" COMMENT="" />
    <EXPORT ORDINAL="128" NAME="??0HWNDHost@DirectUI@@QEAA@XZ" PURGE="0" COMMENT="" />
    <EXPORT ORDINAL="129" NAME="??0HWNDHostAccessible@DirectUI@@QEAA@XZ" PURGE="0" COMMENT="" />
    <EXPORT ORDINAL="130" NAME="??0HWNDHostClientAccessible@DirectUI@@QEAA@XZ" PURGE="0" COMMENT="" />
    <EXPORT ORDINAL="131" NAME="??0IDataEngine@DirectUI@@QEAA@XZ" PURGE="0" COMMENT="" />
    <EXPORT ORDINAL="132" NAME="??0IDataEntry@DirectUI@@QEAA@AEBU01@@Z" PURGE="0" COMMENT="" />
    <EXPORT ORDINAL="133" NAME="??0IDataEntry@DirectUI@@QEAA@XZ" PURGE="0" COMMENT="" />
    <EXPORT ORDINAL="134" NAME="??0IDataEngine@DirectUI@@QEAA@AEBU01@@Z" PURGE="0" COMMENT="" />
    <EXPORT ORDINAL="135" NAME="??0IProvider@DirectUI@@QEAA@XZ" PURGE="0" COMMENT="" />
    <EXPORT ORDINAL="136" NAME="??0IXElementCP@DirectUI@@QEAA@AEBV01@@Z" PURGE="0" COMMENT="" />
    <EXPORT ORDINAL="137" NAME="??0ISBLeak@DirectUI@@QEAA@XZ" PURGE="0" COMMENT="" />
    <EXPORT ORDINAL="138" NAME="??0IXProviderCP@DirectUI@@QEAA@AEBV01@@Z" PURGE="0" COMMENT="" />
    <EXPORT ORDINAL="139" NAME="??0IXElementCP@DirectUI@@QEAA@XZ" PURGE="0" COMMENT="" />
    <EXPORT ORDINAL="140" NAME="??0IProvider@DirectUI@@QEAA@AEBV01@@Z" PURGE="0" COMMENT="" />
    <EXPORT ORDINAL="141" NAME="??0IXProviderCP@DirectUI@@QEAA@XZ" PURGE="0" COMMENT="" />
    <EXPORT ORDINAL="142" NAME="??0ISBLeak@DirectUI@@QEAA@AEBU01@@Z" PURGE="0" COMMENT="" />
    <EXPORT ORDINAL="143" NAME="??0InvokeHelper@DirectUI@@QEAA@XZ" PURGE="0" COMMENT="" />
    <EXPORT ORDINAL="144" NAME="??0InvokeProvider@DirectUI@@QEAA@XZ" PURGE="0" COMMENT="" />
    <EXPORT ORDINAL="145" NAME="??0InvokeProxy@DirectUI@@QEAA@AEBV01@@Z" PURGE="0" COMMENT="" />
    <EXPORT ORDINAL="146" NAME="??0InvokeProxy@DirectUI@@QEAA@XZ" PURGE="0" COMMENT="" />
    <EXPORT ORDINAL="147" NAME="??0Layout@DirectUI@@QEAA@AEBV01@@Z" PURGE="0" COMMENT="" />
    <EXPORT ORDINAL="148" NAME="??0Layout@DirectUI@@QEAA@XZ" PURGE="0" COMMENT="" />
    <EXPORT ORDINAL="149" NAME="??0LinkedList@DirectUI@@QEAA@XZ" PURGE="0" COMMENT="" />
    <EXPORT ORDINAL="150" NAME="??0Macro@DirectUI@@QEAA@AEBV01@@Z" PURGE="0" COMMENT="" />
    <EXPORT ORDINAL="151" NAME="??0Macro@DirectUI@@QEAA@XZ" PURGE="0" COMMENT="" />
    <EXPORT ORDINAL="152" NAME="??0Movie@DirectUI@@QEAA@AEBV01@@Z" PURGE="0" COMMENT="" />
    <EXPORT ORDINAL="153" NAME="??0Movie@DirectUI@@QEAA@XZ" PURGE="0" COMMENT="" />
    <EXPORT ORDINAL="154" NAME="??0NativeHWNDHost@DirectUI@@QEAA@AEBV01@@Z" PURGE="0" COMMENT="" />
    <EXPORT ORDINAL="155" NAME="??0NativeHWNDHost@DirectUI@@QEAA@XZ" PURGE="0" COMMENT="" />
    <EXPORT ORDINAL="156" NAME="??0Navigator@DirectUI@@QEAA@AEBV01@@Z" PURGE="0" COMMENT="" />
    <EXPORT ORDINAL="157" NAME="??0Navigator@DirectUI@@QEAA@XZ" PURGE="0" COMMENT="" />
    <EXPORT ORDINAL="158" NAME="??0NavigatorSelectionItemProxy@DirectUI@@QEAA@AEBV01@@Z" PURGE="0" COMMENT="" />
    <EXPORT ORDINAL="159" NAME="??0NavigatorSelectionItemProxy@DirectUI@@QEAA@XZ" PURGE="0" COMMENT="" />
    <EXPORT ORDINAL="160" NAME="??0NineGridLayout@DirectUI@@QEAA@AEBV01@@Z" PURGE="0" COMMENT="" />
    <EXPORT ORDINAL="161" NAME="??0NineGridLayout@DirectUI@@QEAA@XZ" PURGE="0" COMMENT="" />
    <EXPORT ORDINAL="162" NAME="??0PText@DirectUI@@QEAA@AEBV01@@Z" PURGE="0" COMMENT="" />
    <EXPORT ORDINAL="163" NAME="??0PText@DirectUI@@QEAA@XZ" PURGE="0" COMMENT="" />
    <EXPORT ORDINAL="164" NAME="??0Page@DirectUI@@QEAA@AEBV01@@Z" PURGE="0" COMMENT="" />
    <EXPORT ORDINAL="165" NAME="??0Page@DirectUI@@QEAA@XZ" PURGE="0" COMMENT="" />
    <EXPORT ORDINAL="166" NAME="??0Pages@DirectUI@@QEAA@AEBV01@@Z" PURGE="0" COMMENT="" />
    <EXPORT ORDINAL="167" NAME="??0Pages@DirectUI@@QEAA@XZ" PURGE="0" COMMENT="" />
    <EXPORT ORDINAL="168" NAME="??0Progress@DirectUI@@QEAA@AEBV01@@Z" PURGE="0" COMMENT="" />
    <EXPORT ORDINAL="169" NAME="??0Progress@DirectUI@@QEAA@XZ" PURGE="0" COMMENT="" />
    <EXPORT ORDINAL="170" NAME="??0ProgressRangeValueProxy@DirectUI@@QEAA@AEBV01@@Z" PURGE="0" COMMENT="" />
    <EXPORT ORDINAL="171" NAME="??0ProgressRangeValueProxy@DirectUI@@QEAA@XZ" PURGE="0" COMMENT="" />
    <EXPORT ORDINAL="172" NAME="??0ProviderProxy@DirectUI@@IEAA@XZ" PURGE="0" COMMENT="" />
    <EXPORT ORDINAL="173" NAME="??0ProviderProxy@DirectUI@@QEAA@AEBV01@@Z" PURGE="0" COMMENT="" />
    <EXPORT ORDINAL="174" NAME="??0Proxy@DirectUI@@QEAA@AEBV01@@Z" PURGE="0" COMMENT="" />
    <EXPORT ORDINAL="175" NAME="??0Proxy@DirectUI@@QEAA@XZ" PURGE="0" COMMENT="" />
    <EXPORT ORDINAL="176" NAME="??0PushButton@DirectUI@@QEAA@AEBV01@@Z" PURGE="0" COMMENT="" />
    <EXPORT ORDINAL="177" NAME="??0PushButton@DirectUI@@QEAA@XZ" PURGE="0" COMMENT="" />
    <EXPORT ORDINAL="178" NAME="??0RadioButtonGlyph@DirectUI@@QEAA@AEBV01@@Z" PURGE="0" COMMENT="" />
    <EXPORT ORDINAL="179" NAME="??0RadioButtonGlyph@DirectUI@@QEAA@XZ" PURGE="0" COMMENT="" />
    <EXPORT ORDINAL="180" NAME="??0RangeValueProvider@DirectUI@@QEAA@XZ" PURGE="0" COMMENT="" />
    <EXPORT ORDINAL="181" NAME="??0SelectionItemProxy@DirectUI@@IEAA@XZ" PURGE="0" COMMENT="" />
    <EXPORT ORDINAL="182" NAME="??0SelectionItemProxy@DirectUI@@QEAA@AEBV01@@Z" PURGE="0" COMMENT="" />
    <EXPORT ORDINAL="183" NAME="??0RefPointElement@DirectUI@@QEAA@AEBV01@@Z" PURGE="0" COMMENT="" />
    <EXPORT ORDINAL="184" NAME="??0RefPointElement@DirectUI@@QEAA@XZ" PURGE="0" COMMENT="" />
    <EXPORT ORDINAL="185" NAME="??0RefcountBase@DirectUI@@QEAA@XZ" PURGE="0" COMMENT="" />
    <EXPORT ORDINAL="186" NAME="??0RepeatButton@DirectUI@@QEAA@AEBV01@@Z" PURGE="0" COMMENT="" />
    <EXPORT ORDINAL="187" NAME="??0RepeatButton@DirectUI@@QEAA@XZ" PURGE="0" COMMENT="" />
    <EXPORT ORDINAL="188" NAME="??0Repeater@DirectUI@@QEAA@AEBV01@@Z" PURGE="0" COMMENT="" />
    <EXPORT ORDINAL="189" NAME="??0Repeater@DirectUI@@QEAA@XZ" PURGE="0" COMMENT="" />
    <EXPORT ORDINAL="190" NAME="??0ResourceModuleHandles@DirectUI@@QEAA@XZ" PURGE="0" COMMENT="" />
    <EXPORT ORDINAL="191" NAME="??0RowLayout@DirectUI@@QEAA@AEBV01@@Z" PURGE="0" COMMENT="" />
    <EXPORT ORDINAL="192" NAME="??0RowLayout@DirectUI@@QEAA@XZ" PURGE="0" COMMENT="" />
    <EXPORT ORDINAL="193" NAME="??0ScrollBar@DirectUI@@QEAA@AEBV01@@Z" PURGE="0" COMMENT="" />
    <EXPORT ORDINAL="194" NAME="??0ScrollBar@DirectUI@@QEAA@XZ" PURGE="0" COMMENT="" />
    <EXPORT ORDINAL="195" NAME="??0ScrollBarRangeValueProxy@DirectUI@@QEAA@AEBV01@@Z" PURGE="0" COMMENT="" />
    <EXPORT ORDINAL="196" NAME="??0ScrollBarRangeValueProxy@DirectUI@@QEAA@XZ" PURGE="0" COMMENT="" />
    <EXPORT ORDINAL="197" NAME="??0ScrollItemProvider@DirectUI@@QEAA@XZ" PURGE="0" COMMENT="" />
    <EXPORT ORDINAL="198" NAME="??0ScrollItemProxy@DirectUI@@QEAA@AEBV01@@Z" PURGE="0" COMMENT="" />
    <EXPORT ORDINAL="199" NAME="??0ScrollItemProxy@DirectUI@@QEAA@XZ" PURGE="0" COMMENT="" />
    <EXPORT ORDINAL="200" NAME="??0ScrollProvider@DirectUI@@QEAA@XZ" PURGE="0" COMMENT="" />
    <EXPORT ORDINAL="201" NAME="??0ScrollProxy@DirectUI@@QEAA@AEBV01@@Z" PURGE="0" COMMENT="" />
    <EXPORT ORDINAL="202" NAME="??0ScrollProxy@DirectUI@@QEAA@XZ" PURGE="0" COMMENT="" />
    <EXPORT ORDINAL="203" NAME="??0ScrollViewer@DirectUI@@QEAA@AEBV01@@Z" PURGE="0" COMMENT="" />
    <EXPORT ORDINAL="204" NAME="??0ScrollViewer@DirectUI@@QEAA@XZ" PURGE="0" COMMENT="" />
    <EXPORT ORDINAL="205" NAME="??0SelectionItemProvider@DirectUI@@QEAA@XZ" PURGE="0" COMMENT="" />
    <EXPORT ORDINAL="206" NAME="??0SelectionProxy@DirectUI@@IEAA@XZ" PURGE="0" COMMENT="" />
    <EXPORT ORDINAL="207" NAME="??0SelectionProxy@DirectUI@@QEAA@AEBV01@@Z" PURGE="0" COMMENT="" />
    <EXPORT ORDINAL="208" NAME="??0SelectionProvider@DirectUI@@QEAA@XZ" PURGE="0" COMMENT="" />
    <EXPORT ORDINAL="209" NAME="??0RangeValueProxy@DirectUI@@IEAA@XZ" PURGE="0" COMMENT="" />
    <EXPORT ORDINAL="210" NAME="??0RangeValueProxy@DirectUI@@QEAA@AEBV01@@Z" PURGE="0" COMMENT="" />
    <EXPORT ORDINAL="211" NAME="??0Selector@DirectUI@@QEAA@AEBV01@@Z" PURGE="0" COMMENT="" />
    <EXPORT ORDINAL="212" NAME="??0Selector@DirectUI@@QEAA@XZ" PURGE="0" COMMENT="" />
    <EXPORT ORDINAL="213" NAME="??0SelectorNoDefault@DirectUI@@QEAA@AEBV01@@Z" PURGE="0" COMMENT="" />
    <EXPORT ORDINAL="214" NAME="??0SelectorNoDefault@DirectUI@@QEAA@XZ" PURGE="0" COMMENT="" />
    <EXPORT ORDINAL="215" NAME="??0SelectorSelectionItemProxy@DirectUI@@QEAA@AEBV01@@Z" PURGE="0" COMMENT="" />
    <EXPORT ORDINAL="216" NAME="??0SelectorSelectionItemProxy@DirectUI@@QEAA@XZ" PURGE="0" COMMENT="" />
    <EXPORT ORDINAL="217" NAME="??0SelectorSelectionProxy@DirectUI@@QEAA@AEBV01@@Z" PURGE="0" COMMENT="" />
    <EXPORT ORDINAL="218" NAME="??0SelectorSelectionProxy@DirectUI@@QEAA@XZ" PURGE="0" COMMENT="" />
    <EXPORT ORDINAL="219" NAME="??0ShellBorderLayout@DirectUI@@QEAA@AEBV01@@Z" PURGE="0" COMMENT="" />
    <EXPORT ORDINAL="220" NAME="??0ShellBorderLayout@DirectUI@@QEAA@XZ" PURGE="0" COMMENT="" />
    <EXPORT ORDINAL="221" NAME="??0StyleSheet@DirectUI@@QEAA@XZ" PURGE="0" COMMENT="" />
    <EXPORT ORDINAL="222" NAME="??0StyleSheet@DirectUI@@QEAA@AEBV01@@Z" PURGE="0" COMMENT="" />
    <EXPORT ORDINAL="223" NAME="??0StyledScrollViewer@DirectUI@@QEAA@AEBV01@@Z" PURGE="0" COMMENT="" />
    <EXPORT ORDINAL="224" NAME="??0StyledScrollViewer@DirectUI@@QEAA@XZ" PURGE="0" COMMENT="" />
    <EXPORT ORDINAL="225" NAME="??0Surface@DirectUI@@QEAA@XZ" PURGE="0" COMMENT="" />
    <EXPORT ORDINAL="226" NAME="??0Surface@DirectUI@@QEAA@AEBV01@@Z" PURGE="0" COMMENT="" />
    <EXPORT ORDINAL="227" NAME="??0TableItemProvider@DirectUI@@QEAA@XZ" PURGE="0" COMMENT="" />
    <EXPORT ORDINAL="228" NAME="??0TableItemProxy@DirectUI@@QEAA@AEBV01@@Z" PURGE="0" COMMENT="" />
    <EXPORT ORDINAL="229" NAME="??0TableItemProxy@DirectUI@@QEAA@XZ" PURGE="0" COMMENT="" />
    <EXPORT ORDINAL="230" NAME="??0TableLayout@DirectUI@@QEAA@AEBV01@@Z" PURGE="0" COMMENT="" />
    <EXPORT ORDINAL="231" NAME="??0TableLayout@DirectUI@@QEAA@XZ" PURGE="0" COMMENT="" />
    <EXPORT ORDINAL="232" NAME="??0TableProvider@DirectUI@@QEAA@XZ" PURGE="0" COMMENT="" />
    <EXPORT ORDINAL="233" NAME="??0TableProxy@DirectUI@@QEAA@AEBV01@@Z" PURGE="0" COMMENT="" />
    <EXPORT ORDINAL="234" NAME="??0TableProxy@DirectUI@@QEAA@XZ" PURGE="0" COMMENT="" />
    <EXPORT ORDINAL="235" NAME="??0TaskPage@DirectUI@@QEAA@AEBV01@@Z" PURGE="0" COMMENT="" />
    <EXPORT ORDINAL="236" NAME="??0TaskPage@DirectUI@@QEAA@XZ" PURGE="0" COMMENT="" />
    <EXPORT ORDINAL="237" NAME="??0TextGraphic@DirectUI@@QEAA@AEBV01@@Z" PURGE="0" COMMENT="" />
    <EXPORT ORDINAL="238" NAME="??0TextGraphic@DirectUI@@QEAA@XZ" PURGE="0" COMMENT="" />
    <EXPORT ORDINAL="239" NAME="??0Thumb@DirectUI@@QEAA@AEBV01@@Z" PURGE="0" COMMENT="" />
    <EXPORT ORDINAL="240" NAME="??0Thumb@DirectUI@@QEAA@XZ" PURGE="0" COMMENT="" />
    <EXPORT ORDINAL="241" NAME="??0ToggleProvider@DirectUI@@QEAA@XZ" PURGE="0" COMMENT="" />
    <EXPORT ORDINAL="242" NAME="??0ToggleProxy@DirectUI@@QEAA@AEBV01@@Z" PURGE="0" COMMENT="" />
    <EXPORT ORDINAL="243" NAME="??0ToggleProxy@DirectUI@@QEAA@XZ" PURGE="0" COMMENT="" />
    <EXPORT ORDINAL="244" NAME="??0UnknownElement@DirectUI@@QEAA@AEBV01@@Z" PURGE="0" COMMENT="" />
    <EXPORT ORDINAL="245" NAME="??0UnknownElement@DirectUI@@QEAA@XZ" PURGE="0" COMMENT="" />
    <EXPORT ORDINAL="246" NAME="??0ValueProvider@DirectUI@@QEAA@XZ" PURGE="0" COMMENT="" />
    <EXPORT ORDINAL="247" NAME="??0ValueProxy@DirectUI@@QEAA@AEBV01@@Z" PURGE="0" COMMENT="" />
    <EXPORT ORDINAL="248" NAME="??0ValueProxy@DirectUI@@QEAA@XZ" PURGE="0" COMMENT="" />
    <EXPORT ORDINAL="249" NAME="??0VerticalFlowLayout@DirectUI@@QEAA@AEBV01@@Z" PURGE="0" COMMENT="" />
    <EXPORT ORDINAL="250" NAME="??0VerticalFlowLayout@DirectUI@@QEAA@XZ" PURGE="0" COMMENT="" />
    <EXPORT ORDINAL="251" NAME="??0Viewer@DirectUI@@QEAA@AEBV01@@Z" PURGE="0" COMMENT="" />
    <EXPORT ORDINAL="252" NAME="??0Viewer@DirectUI@@QEAA@XZ" PURGE="0" COMMENT="" />
    <EXPORT ORDINAL="253" NAME="??0XBaby@DirectUI@@QEAA@AEBV01@@Z" PURGE="0" COMMENT="" />
    <EXPORT ORDINAL="254" NAME="??0XBaby@DirectUI@@QEAA@XZ" PURGE="0" COMMENT="" />
    <EXPORT ORDINAL="255" NAME="??0XElement@DirectUI@@QEAA@AEBV01@@Z" PURGE="0" COMMENT="" />
    <EXPORT ORDINAL="256" NAME="??0XElement@DirectUI@@QEAA@XZ" PURGE="0" COMMENT="" />
    <EXPORT ORDINAL="257" NAME="??4AutoThread@DirectUI@@QEAAAEAV01@AEBV01@@Z" PURGE="0" COMMENT="" />
    <EXPORT ORDINAL="258" NAME="??0XProvider@DirectUI@@QEAA@AEBV01@@Z" PURGE="0" COMMENT="" />
    <EXPORT ORDINAL="259" NAME="??0XProvider@DirectUI@@QEAA@XZ" PURGE="0" COMMENT="" />
    <EXPORT ORDINAL="260" NAME="??0XResourceProvider@DirectUI@@QEAA@AEBV01@@Z" PURGE="0" COMMENT="" />
    <EXPORT ORDINAL="261" NAME="??0XResourceProvider@DirectUI@@QEAA@XZ" PURGE="0" COMMENT="" />
    <EXPORT ORDINAL="262" NAME="??1ExpandCollapseProvider@DirectUI@@UEAA@XZ" PURGE="0" COMMENT="" />
    <EXPORT ORDINAL="263" NAME="??1GridItemProvider@DirectUI@@UEAA@XZ" PURGE="0" COMMENT="" />
    <EXPORT ORDINAL="264" NAME="??1GridProvider@DirectUI@@UEAA@XZ" PURGE="0" COMMENT="" />
    <EXPORT ORDINAL="265" NAME="??1InvokeProvider@DirectUI@@UEAA@XZ" PURGE="0" COMMENT="" />
    <EXPORT ORDINAL="266" NAME="??1RangeValueProvider@DirectUI@@UEAA@XZ" PURGE="0" COMMENT="" />
    <EXPORT ORDINAL="267" NAME="??1ScrollItemProvider@DirectUI@@UEAA@XZ" PURGE="0" COMMENT="" />
    <EXPORT ORDINAL="268" NAME="??1ScrollProvider@DirectUI@@UEAA@XZ" PURGE="0" COMMENT="" />
    <EXPORT ORDINAL="269" NAME="??1SelectionItemProvider@DirectUI@@UEAA@XZ" PURGE="0" COMMENT="" />
    <EXPORT ORDINAL="270" NAME="??1SelectionProvider@DirectUI@@UEAA@XZ" PURGE="0" COMMENT="" />
    <EXPORT ORDINAL="271" NAME="??1TableItemProvider@DirectUI@@UEAA@XZ" PURGE="0" COMMENT="" />
    <EXPORT ORDINAL="272" NAME="??1TableProvider@DirectUI@@UEAA@XZ" PURGE="0" COMMENT="" />
    <EXPORT ORDINAL="273" NAME="??1ToggleProvider@DirectUI@@UEAA@XZ" PURGE="0" COMMENT="" />
    <EXPORT ORDINAL="274" NAME="??1ValueProvider@DirectUI@@UEAA@XZ" PURGE="0" COMMENT="" />
    <EXPORT ORDINAL="275" NAME="??1?$SafeArrayAccessor@H@DirectUI@@QEAA@XZ" PURGE="-1" COMMENT="" />
    <EXPORT ORDINAL="276" NAME="??1AutoButton@DirectUI@@UEAA@XZ" PURGE="0" COMMENT="" />
    <EXPORT ORDINAL="277" NAME="??1AnimationStrip@DirectUI@@UEAA@XZ" PURGE="0" COMMENT="" />
    <EXPORT ORDINAL="278" NAME="??1Button@DirectUI@@UEAA@XZ" PURGE="0" COMMENT="" />
    <EXPORT ORDINAL="279" NAME="??1AutoLock@DirectUI@@QEAA@XZ" PURGE="-1" COMMENT="" />
    <EXPORT ORDINAL="280" NAME="??1AutoThread@DirectUI@@QEAA@XZ" PURGE="0" COMMENT="" />
    <EXPORT ORDINAL="281" NAME="??1AutoVariant@DirectUI@@QEAA@XZ" PURGE="-1" COMMENT="" />
    <EXPORT ORDINAL="282" NAME="??1ScrollViewer@DirectUI@@UEAA@XZ" PURGE="0" COMMENT="" />
    <EXPORT ORDINAL="283" NAME="??1Browser@DirectUI@@UEAA@XZ" PURGE="0" COMMENT="" />
    <EXPORT ORDINAL="284" NAME="??1BorderLayout@DirectUI@@UEAA@XZ" PURGE="0" COMMENT="" />
    <EXPORT ORDINAL="285" NAME="??1Clipper@DirectUI@@UEAA@XZ" PURGE="0" COMMENT="" />
    <EXPORT ORDINAL="286" NAME="??1CheckBoxGlyph@DirectUI@@UEAA@XZ" PURGE="0" COMMENT="" />
    <EXPORT ORDINAL="287" NAME="??1CCBase@DirectUI@@UEAA@XZ" PURGE="0" COMMENT="" />
    <EXPORT ORDINAL="288" NAME="??1CCBaseCheckRadioButton@DirectUI@@UEAA@XZ" PURGE="0" COMMENT="" />
    <EXPORT ORDINAL="289" NAME="??1CCBaseScrollBar@DirectUI@@UEAA@XZ" PURGE="0" COMMENT="" />
    <EXPORT ORDINAL="290" NAME="??1CCCheckBox@DirectUI@@UEAA@XZ" PURGE="0" COMMENT="" />
    <EXPORT ORDINAL="291" NAME="??1CCCommandLink@DirectUI@@UEAA@XZ" PURGE="0" COMMENT="" />
    <EXPORT ORDINAL="292" NAME="??1CCHScrollBar@DirectUI@@UEAA@XZ" PURGE="0" COMMENT="" />
    <EXPORT ORDINAL="293" NAME="??1CCListBox@DirectUI@@UEAA@XZ" PURGE="0" COMMENT="" />
    <EXPORT ORDINAL="294" NAME="??1CCListView@DirectUI@@UEAA@XZ" PURGE="0" COMMENT="" />
    <EXPORT ORDINAL="295" NAME="??1CCProgressBar@DirectUI@@UEAA@XZ" PURGE="0" COMMENT="" />
    <EXPORT ORDINAL="296" NAME="??1CCPushButton@DirectUI@@UEAA@XZ" PURGE="0" COMMENT="" />
    <EXPORT ORDINAL="297" NAME="??1CCRadioButton@DirectUI@@UEAA@XZ" PURGE="0" COMMENT="" />
    <EXPORT ORDINAL="298" NAME="??1CCSysLink@DirectUI@@UEAA@XZ" PURGE="0" COMMENT="" />
    <EXPORT ORDINAL="299" NAME="??1CCTrackBar@DirectUI@@UEAA@XZ" PURGE="0" COMMENT="" />
    <EXPORT ORDINAL="300" NAME="??1CCTreeView@DirectUI@@UEAA@XZ" PURGE="0" COMMENT="" />
    <EXPORT ORDINAL="301" NAME="??1CCVScrollBar@DirectUI@@UEAA@XZ" PURGE="0" COMMENT="" />
    <EXPORT ORDINAL="302" NAME="??1CCAVI@DirectUI@@UEAA@XZ" PURGE="0" COMMENT="" />
    <EXPORT ORDINAL="303" NAME="??1LinkedList@DirectUI@@QEAA@XZ" PURGE="0" COMMENT="" />
    <EXPORT ORDINAL="304" NAME="??1ExpandoButtonGlyph@DirectUI@@UEAA@XZ" PURGE="0" COMMENT="" />
    <EXPORT ORDINAL="305" NAME="??1ClassInfoBase@DirectUI@@UEAA@XZ" PURGE="0" COMMENT="" />
    <EXPORT ORDINAL="306" NAME="??1ElementWithHWND@DirectUI@@UEAA@XZ" PURGE="0" COMMENT="" />
    <EXPORT ORDINAL="307" NAME="??1Combobox@DirectUI@@UEAA@XZ" PURGE="0" COMMENT="" />
    <EXPORT ORDINAL="308" NAME="?Unlock@CritSecLock@DirectUI@@QEAAXXZ" PURGE="0" COMMENT="" />
    <EXPORT ORDINAL="309" NAME="??1Surface@DirectUI@@UEAA@XZ" PURGE="0" COMMENT="" />
    <EXPORT ORDINAL="310" NAME="??1DUIFactory@DirectUI@@QEAA@XZ" PURGE="0" COMMENT="" />
    <EXPORT ORDINAL="311" NAME="??1DUIXmlParser@DirectUI@@UEAA@XZ" PURGE="0" COMMENT="" />
    <EXPORT ORDINAL="312" NAME="??1HWNDElement@DirectUI@@UEAA@XZ" PURGE="0" COMMENT="" />
    <EXPORT ORDINAL="313" NAME="??1HWNDElementAccessible@DirectUI@@UEAA@XZ" PURGE="0" COMMENT="" />
    <EXPORT ORDINAL="314" NAME="??1Edit@DirectUI@@UEAA@XZ" PURGE="0" COMMENT="" />
    <EXPORT ORDINAL="315" NAME="??1Element@DirectUI@@UEAA@XZ" PURGE="0" COMMENT="" />
    <EXPORT ORDINAL="316" NAME="??1ElementProvider@DirectUI@@UEAA@XZ" PURGE="0" COMMENT="" />
    <EXPORT ORDINAL="317" NAME="??1Expandable@DirectUI@@UEAA@XZ" PURGE="0" COMMENT="" />
    <EXPORT ORDINAL="318" NAME="??1?$PatternProvider@VExpandCollapseProvider@DirectUI@@UIExpandCollapseProvider@@$00@DirectUI@@UEAA@XZ" PURGE="0" COMMENT="" />
    <EXPORT ORDINAL="319" NAME="??1Expando@DirectUI@@UEAA@XZ" PURGE="0" COMMENT="" />
    <EXPORT ORDINAL="320" NAME="??1Macro@DirectUI@@UEAA@XZ" PURGE="0" COMMENT="" />
    <EXPORT ORDINAL="321" NAME="??1Navigator@DirectUI@@UEAA@XZ" PURGE="0" COMMENT="" />
    <EXPORT ORDINAL="322" NAME="??1FillLayout@DirectUI@@UEAA@XZ" PURGE="0" COMMENT="" />
    <EXPORT ORDINAL="323" NAME="??1FlowLayout@DirectUI@@UEAA@XZ" PURGE="0" COMMENT="" />
    <EXPORT ORDINAL="324" NAME="??1FontCheckOut@DirectUI@@QEAA@XZ" PURGE="0" COMMENT="" />
    <EXPORT ORDINAL="325" NAME="??1?$PatternProvider@VGridItemProvider@DirectUI@@UIGridItemProvider@@$01@DirectUI@@UEAA@XZ" PURGE="0" COMMENT="" />
    <EXPORT ORDINAL="326" NAME="??1GridLayout@DirectUI@@UEAA@XZ" PURGE="0" COMMENT="" />
    <EXPORT ORDINAL="327" NAME="??1?$PatternProvider@VGridProvider@DirectUI@@UIGridProvider@@$02@DirectUI@@UEAA@XZ" PURGE="0" COMMENT="" />
    <EXPORT ORDINAL="328" NAME="??1DialogElement@DirectUI@@UEAA@XZ" PURGE="0" COMMENT="" />
    <EXPORT ORDINAL="329" NAME="??1HWNDHostAccessible@DirectUI@@UEAA@XZ" PURGE="0" COMMENT="" />
    <EXPORT ORDINAL="330" NAME="??1HWNDElementProvider@DirectUI@@UEAA@XZ" PURGE="0" COMMENT="" />
    <EXPORT ORDINAL="331" NAME="??1HWNDHost@DirectUI@@UEAA@XZ" PURGE="0" COMMENT="" />
    <EXPORT ORDINAL="332" NAME="??1HWNDHostClientAccessible@DirectUI@@UEAA@XZ" PURGE="0" COMMENT="" />
    <EXPORT ORDINAL="333" NAME="??1DuiAccessible@DirectUI@@UEAA@XZ" PURGE="0" COMMENT="" />
    <EXPORT ORDINAL="334" NAME="??1IDataEntry@DirectUI@@UEAA@XZ" PURGE="0" COMMENT="" />
    <EXPORT ORDINAL="335" NAME="??1IDataEngine@DirectUI@@UEAA@XZ" PURGE="0" COMMENT="" />
    <EXPORT ORDINAL="336" NAME="??1RefcountBase@DirectUI@@UEAA@XZ" PURGE="0" COMMENT="" />
    <EXPORT ORDINAL="337" NAME="??1?$PatternProvider@VInvokeProvider@DirectUI@@UIInvokeProvider@@$0A@@DirectUI@@UEAA@XZ" PURGE="0" COMMENT="" />
    <EXPORT ORDINAL="338" NAME="??1Layout@DirectUI@@UEAA@XZ" PURGE="0" COMMENT="" />
    <EXPORT ORDINAL="339" NAME="??1XHost@DirectUI@@QEAA@XZ" PURGE="0" COMMENT="" />
    <EXPORT ORDINAL="340" NAME="??1Page@DirectUI@@UEAA@XZ" PURGE="0" COMMENT="" />
    <EXPORT ORDINAL="341" NAME="??1Movie@DirectUI@@UEAA@XZ" PURGE="0" COMMENT="" />
    <EXPORT ORDINAL="342" NAME="??1NativeHWNDHost@DirectUI@@UEAA@XZ" PURGE="0" COMMENT="" />
    <EXPORT ORDINAL="343" NAME="??1PushButton@DirectUI@@UEAA@XZ" PURGE="0" COMMENT="" />
    <EXPORT ORDINAL="344" NAME="??1NineGridLayout@DirectUI@@UEAA@XZ" PURGE="0" COMMENT="" />
    <EXPORT ORDINAL="345" NAME="??1PText@DirectUI@@UEAA@XZ" PURGE="0" COMMENT="" />
    <EXPORT ORDINAL="346" NAME="??1Pages@DirectUI@@UEAA@XZ" PURGE="0" COMMENT="" />
    <EXPORT ORDINAL="347" NAME="??1Repeater@DirectUI@@UEAA@XZ" PURGE="0" COMMENT="" />
    <EXPORT ORDINAL="348" NAME="??1Progress@DirectUI@@UEAA@XZ" PURGE="0" COMMENT="" />
    <EXPORT ORDINAL="349" NAME="??1Proxy@DirectUI@@UEAA@XZ" PURGE="0" COMMENT="" />
    <EXPORT ORDINAL="350" NAME="??1RadioButtonGlyph@DirectUI@@UEAA@XZ" PURGE="0" COMMENT="" />
    <EXPORT ORDINAL="351" NAME="??1RepeatButton@DirectUI@@UEAA@XZ" PURGE="0" COMMENT="" />
    <EXPORT ORDINAL="352" NAME="??1?$PatternProvider@VRangeValueProvider@DirectUI@@UIRangeValueProvider@@$03@DirectUI@@UEAA@XZ" PURGE="0" COMMENT="" />
    <EXPORT ORDINAL="353" NAME="??1RefPointElement@DirectUI@@UEAA@XZ" PURGE="0" COMMENT="" />
    <EXPORT ORDINAL="354" NAME="??1InvokeHelper@DirectUI@@UEAA@XZ" PURGE="0" COMMENT="" />
    <EXPORT ORDINAL="355" NAME="??1Thumb@DirectUI@@UEAA@XZ" PURGE="0" COMMENT="" />
    <EXPORT ORDINAL="356" NAME="??1TextGraphic@DirectUI@@UEAA@XZ" PURGE="0" COMMENT="" />
    <EXPORT ORDINAL="357" NAME="??1ResourceModuleHandles@DirectUI@@QEAA@XZ" PURGE="0" COMMENT="" />
    <EXPORT ORDINAL="358" NAME="??1RowLayout@DirectUI@@UEAA@XZ" PURGE="0" COMMENT="" />
    <EXPORT ORDINAL="359" NAME="??1ScrollBar@DirectUI@@UEAA@XZ" PURGE="0" COMMENT="" />
    <EXPORT ORDINAL="360" NAME="??1?$PatternProvider@VScrollItemProvider@DirectUI@@UIScrollItemProvider@@$05@DirectUI@@UEAA@XZ" PURGE="0" COMMENT="" />
    <EXPORT ORDINAL="361" NAME="??1?$PatternProvider@VScrollProvider@DirectUI@@UIScrollProvider@@$04@DirectUI@@UEAA@XZ" PURGE="0" COMMENT="" />
    <EXPORT ORDINAL="362" NAME="??1StyledScrollViewer@DirectUI@@UEAA@XZ" PURGE="0" COMMENT="" />
    <EXPORT ORDINAL="363" NAME="??1?$PatternProvider@VSelectionItemProvider@DirectUI@@UISelectionItemProvider@@$06@DirectUI@@UEAA@XZ" PURGE="0" COMMENT="" />
    <EXPORT ORDINAL="364" NAME="??1?$PatternProvider@VSelectionProvider@DirectUI@@UISelectionProvider@@$07@DirectUI@@UEAA@XZ" PURGE="0" COMMENT="" />
    <EXPORT ORDINAL="365" NAME="??1SelectorNoDefault@DirectUI@@UEAA@XZ" PURGE="0" COMMENT="" />
    <EXPORT ORDINAL="366" NAME="??1Selector@DirectUI@@UEAA@XZ" PURGE="0" COMMENT="" />
    <EXPORT ORDINAL="367" NAME="??1ShellBorderLayout@DirectUI@@UEAA@XZ" PURGE="0" COMMENT="" />
    <EXPORT ORDINAL="368" NAME="??1BaseScrollViewer@DirectUI@@UEAA@XZ" PURGE="0" COMMENT="" />
    <EXPORT ORDINAL="369" NAME="??1DCSurface@DirectUI@@UEAA@XZ" PURGE="0" COMMENT="" />
    <EXPORT ORDINAL="370" NAME="??1?$PatternProvider@VTableItemProvider@DirectUI@@UITableItemProvider@@$09@DirectUI@@UEAA@XZ" PURGE="0" COMMENT="" />
    <EXPORT ORDINAL="371" NAME="??1TableLayout@DirectUI@@UEAA@XZ" PURGE="0" COMMENT="" />
    <EXPORT ORDINAL="372" NAME="??1?$PatternProvider@VTableProvider@DirectUI@@UITableProvider@@$08@DirectUI@@UEAA@XZ" PURGE="0" COMMENT="" />
    <EXPORT ORDINAL="373" NAME="??1TaskPage@DirectUI@@UEAA@XZ" PURGE="0" COMMENT="" />
    <EXPORT ORDINAL="374" NAME="??1Bind@DirectUI@@UEAA@XZ" PURGE="0" COMMENT="" />
    <EXPORT ORDINAL="375" NAME="??1AccessibleButton@DirectUI@@UEAA@XZ" PURGE="0" COMMENT="" />
    <EXPORT ORDINAL="376" NAME="??1?$PatternProvider@VToggleProvider@DirectUI@@UIToggleProvider@@$0L@@DirectUI@@UEAA@XZ" PURGE="0" COMMENT="" />
    <EXPORT ORDINAL="377" NAME="??1UnknownElement@DirectUI@@UEAA@XZ" PURGE="0" COMMENT="" />
    <EXPORT ORDINAL="378" NAME="??1?$PatternProvider@VValueProvider@DirectUI@@UIValueProvider@@$0M@@DirectUI@@UEAA@XZ" PURGE="0" COMMENT="" />
    <EXPORT ORDINAL="379" NAME="??1VerticalFlowLayout@DirectUI@@UEAA@XZ" PURGE="0" COMMENT="" />
    <EXPORT ORDINAL="380" NAME="??1Viewer@DirectUI@@UEAA@XZ" PURGE="0" COMMENT="" />
    <EXPORT ORDINAL="381" NAME="??1XBaby@DirectUI@@UEAA@XZ" PURGE="0" COMMENT="" />
    <EXPORT ORDINAL="382" NAME="??1XElement@DirectUI@@UEAA@XZ" PURGE="0" COMMENT="" />
    <EXPORT ORDINAL="383" NAME="?AssertPIZeroRef@ClassInfoBase@DirectUI@@UEBAXXZ" PURGE="0" COMMENT="" />
    <EXPORT ORDINAL="384" NAME="??1XProvider@DirectUI@@UEAA@XZ" PURGE="0" COMMENT="" />
    <EXPORT ORDINAL="385" NAME="??4?$FunctionDefinition@K@DUIXmlParser@DirectUI@@QEAAAEAU012@AEBU012@@Z" PURGE="0" COMMENT="" />
    <EXPORT ORDINAL="386" NAME="??4?$FunctionDefinition@PEAVValue@DirectUI@@@DUIXmlParser@DirectUI@@QEAAAEAU012@AEBU012@@Z" PURGE="0" COMMENT="" />
    <EXPORT ORDINAL="387" NAME="??4?$FunctionDefinition@UtagRECT@@@DUIXmlParser@DirectUI@@QEAAAEAU012@AEBU012@@Z" PURGE="0" COMMENT="" />
    <EXPORT ORDINAL="388" NAME="??4LinkedList@DirectUI@@QEAAAEAV01@AEBV01@@Z" PURGE="0" COMMENT="" />
    <EXPORT ORDINAL="389" NAME="??4ACCESSIBLEROLE@AccessibleButton@DirectUI@@QEAAAEAU012@AEBU012@@Z" PURGE="0" COMMENT="" />
    <EXPORT ORDINAL="390" NAME="??4AutoButton@DirectUI@@QEAAAEAV01@AEBV01@@Z" PURGE="0" COMMENT="" />
    <EXPORT ORDINAL="391" NAME="??4AnimationStrip@DirectUI@@QEAAAEAV01@AEBV01@@Z" PURGE="0" COMMENT="" />
    <EXPORT ORDINAL="392" NAME="??4Navigator@DirectUI@@QEAAAEAV01@AEBV01@@Z" PURGE="0" COMMENT="" />
    <EXPORT ORDINAL="393" NAME="??4CritSecLock@DirectUI@@QEAAAEAV01@AEBV01@@Z" PURGE="0" COMMENT="" />
    <EXPORT ORDINAL="394" NAME="??4DuiNavigate@DirectUI@@QEAAAEAV01@AEBV01@@Z" PURGE="0" COMMENT="" />
    <EXPORT ORDINAL="395" NAME="??4FontCheckOut@DirectUI@@QEAAAEAV01@AEBV01@@Z" PURGE="0" COMMENT="" />
    <EXPORT ORDINAL="396" NAME="??4BaseScrollBar@DirectUI@@QEAAAEAV01@AEBV01@@Z" PURGE="0" COMMENT="" />
    <EXPORT ORDINAL="397" NAME="??4BaseScrollViewer@DirectUI@@QEAAAEAV01@AEBV01@@Z" PURGE="0" COMMENT="" />
    <EXPORT ORDINAL="398" NAME="??4Clipper@DirectUI@@QEAAAEAV01@AEBV01@@Z" PURGE="0" COMMENT="" />
    <EXPORT ORDINAL="399" NAME="??4BorderLayout@DirectUI@@QEAAAEAV01@AEBV01@@Z" PURGE="0" COMMENT="" />
    <EXPORT ORDINAL="400" NAME="??4Browser@DirectUI@@QEAAAEAV01@AEBV01@@Z" PURGE="0" COMMENT="" />
    <EXPORT ORDINAL="401" NAME="??4ClassInfoBase@DirectUI@@QEAAAEAV01@AEBV01@@Z" PURGE="0" COMMENT="" />
    <EXPORT ORDINAL="402" NAME="??4CheckBoxGlyph@DirectUI@@QEAAAEAV01@AEBV01@@Z" PURGE="0" COMMENT="" />
    <EXPORT ORDINAL="403" NAME="??4CCBase@DirectUI@@QEAAAEAV01@AEBV01@@Z" PURGE="0" COMMENT="" />
    <EXPORT ORDINAL="404" NAME="??4CCBaseCheckRadioButton@DirectUI@@QEAAAEAV01@AEBV01@@Z" PURGE="0" COMMENT="" />
    <EXPORT ORDINAL="405" NAME="??4CCCheckBox@DirectUI@@QEAAAEAV01@AEBV01@@Z" PURGE="0" COMMENT="" />
    <EXPORT ORDINAL="406" NAME="??4CCHScrollBar@DirectUI@@QEAAAEAV01@AEBV01@@Z" PURGE="0" COMMENT="" />
    <EXPORT ORDINAL="407" NAME="??4CCCommandLink@DirectUI@@QEAAAEAV01@AEBV01@@Z" PURGE="0" COMMENT="" />
    <EXPORT ORDINAL="408" NAME="??4CCListBox@DirectUI@@QEAAAEAV01@AEBV01@@Z" PURGE="0" COMMENT="" />
    <EXPORT ORDINAL="409" NAME="??4CCVScrollBar@DirectUI@@QEAAAEAV01@AEBV01@@Z" PURGE="0" COMMENT="" />
    <EXPORT ORDINAL="410" NAME="??4CCListView@DirectUI@@QEAAAEAV01@AEBV01@@Z" PURGE="0" COMMENT="" />
    <EXPORT ORDINAL="411" NAME="??4CCProgressBar@DirectUI@@QEAAAEAV01@AEBV01@@Z" PURGE="0" COMMENT="" />
    <EXPORT ORDINAL="412" NAME="??4CCPushButton@DirectUI@@QEAAAEAV01@AEBV01@@Z" PURGE="0" COMMENT="" />
    <EXPORT ORDINAL="413" NAME="??4CCRadioButton@DirectUI@@QEAAAEAV01@AEBV01@@Z" PURGE="0" COMMENT="" />
    <EXPORT ORDINAL="414" NAME="??4CCSysLink@DirectUI@@QEAAAEAV01@AEBV01@@Z" PURGE="0" COMMENT="" />
    <EXPORT ORDINAL="415" NAME="??4CCTrackBar@DirectUI@@QEAAAEAV01@AEBV01@@Z" PURGE="0" COMMENT="" />
    <EXPORT ORDINAL="416" NAME="??4CCTreeView@DirectUI@@QEAAAEAV01@AEBV01@@Z" PURGE="0" COMMENT="" />
    <EXPORT ORDINAL="417" NAME="??4CCAVI@DirectUI@@QEAAAEAV01@AEBV01@@Z" PURGE="0" COMMENT="" />
    <EXPORT ORDINAL="418" NAME="??4CCBaseScrollBar@DirectUI@@QEAAAEAV01@AEBV01@@Z" PURGE="0" COMMENT="" />
    <EXPORT ORDINAL="419" NAME="??4CallstackTracker@DirectUI@@QEAAAEAV01@AEBV01@@Z" PURGE="0" COMMENT="" />
    <EXPORT ORDINAL="420" NAME="??4ExpandoButtonGlyph@DirectUI@@QEAAAEAV01@AEBV01@@Z" PURGE="0" COMMENT="" />
    <EXPORT ORDINAL="421" NAME="??4DCSurface@DirectUI@@QEAAAEAV01@AEBV01@@Z" PURGE="0" COMMENT="" />
    <EXPORT ORDINAL="422" NAME="??4ElementWithHWND@DirectUI@@QEAAAEAV01@AEBV01@@Z" PURGE="0" COMMENT="" />
    <EXPORT ORDINAL="423" NAME="??4Edit@DirectUI@@QEAAAEAV01@AEBV01@@Z" PURGE="0" COMMENT="" />
    <EXPORT ORDINAL="424" NAME="??4AutoLock@DirectUI@@QEAAAEAV01@AEBV01@@Z" PURGE="0" COMMENT="" />
    <EXPORT ORDINAL="425" NAME="??4ElementProxy@DirectUI@@QEAAAEAV01@AEBV01@@Z" PURGE="0" COMMENT="" />
    <EXPORT ORDINAL="426" NAME="??4NavScoring@DirectUI@@QEAAAEAU01@AEBU01@@Z" PURGE="0" COMMENT="" />
    <EXPORT ORDINAL="427" NAME="??4DUIXmlParser@DirectUI@@QEAAAEAV01@AEBV01@@Z" PURGE="0" COMMENT="" />
    <EXPORT ORDINAL="428" NAME="??4DialogElement@DirectUI@@QEAAAEAV01@AEBV01@@Z" PURGE="0" COMMENT="" />
    <EXPORT ORDINAL="429" NAME="??4ElementProviderManager@DirectUI@@QEAAAEAV01@AEBV01@@Z" PURGE="0" COMMENT="" />
    <EXPORT ORDINAL="430" NAME="??4Combobox@DirectUI@@QEAAAEAV01@AEBV01@@Z" PURGE="0" COMMENT="" />
    <EXPORT ORDINAL="431" NAME="??4Element@DirectUI@@QEAAAEAV01@AEBV01@@Z" PURGE="0" COMMENT="" />
    <EXPORT ORDINAL="432" NAME="??4EventManager@DirectUI@@QEAAAEAV01@AEBV01@@Z" PURGE="0" COMMENT="" />
    <EXPORT ORDINAL="433" NAME="??4ExpandCollapseProxy@DirectUI@@QEAAAEAV01@AEBV01@@Z" PURGE="0" COMMENT="" />
    <EXPORT ORDINAL="434" NAME="??4Expandable@DirectUI@@QEAAAEAV01@AEBV01@@Z" PURGE="0" COMMENT="" />
    <EXPORT ORDINAL="435" NAME="??4Expression@DirectUI@@QEAAAEAV01@AEBV01@@Z" PURGE="0" COMMENT="" />
    <EXPORT ORDINAL="436" NAME="??4GridItemProxy@DirectUI@@QEAAAEAV01@AEBV01@@Z" PURGE="0" COMMENT="" />
    <EXPORT ORDINAL="437" NAME="??4Progress@DirectUI@@QEAAAEAV01@AEBV01@@Z" PURGE="0" COMMENT="" />
    <EXPORT ORDINAL="438" NAME="??4Expando@DirectUI@@QEAAAEAV01@AEBV01@@Z" PURGE="0" COMMENT="" />
    <EXPORT ORDINAL="439" NAME="??4Pages@DirectUI@@QEAAAEAV01@AEBV01@@Z" PURGE="0" COMMENT="" />
    <EXPORT ORDINAL="440" NAME="??4FontCache@DirectUI@@QEAAAEAV01@AEBV01@@Z" PURGE="0" COMMENT="" />
    <EXPORT ORDINAL="441" NAME="??4FillLayout@DirectUI@@QEAAAEAV01@AEBV01@@Z" PURGE="0" COMMENT="" />
    <EXPORT ORDINAL="442" NAME="??4VerticalFlowLayout@DirectUI@@QEAAAEAV01@AEBV01@@Z" PURGE="0" COMMENT="" />
    <EXPORT ORDINAL="443" NAME="??4IDataEngine@DirectUI@@QEAAAEAU01@AEBU01@@Z" PURGE="0" COMMENT="" />
    <EXPORT ORDINAL="444" NAME="??4NavReference@DirectUI@@QEAAAEAU01@AEBU01@@Z" PURGE="0" COMMENT="" />
    <EXPORT ORDINAL="445" NAME="??4GridProxy@DirectUI@@QEAAAEAV01@AEBV01@@Z" PURGE="0" COMMENT="" />
    <EXPORT ORDINAL="446" NAME="??4GridLayout@DirectUI@@QEAAAEAV01@AEBV01@@Z" PURGE="0" COMMENT="" />
    <EXPORT ORDINAL="447" NAME="??4HWNDElementProxy@DirectUI@@QEAAAEAV01@AEBV01@@Z" PURGE="0" COMMENT="" />
    <EXPORT ORDINAL="448" NAME="??4HWNDElement@DirectUI@@QEAAAEAV01@AEBV01@@Z" PURGE="0" COMMENT="" />
    <EXPORT ORDINAL="449" NAME="??4InvokeProxy@DirectUI@@QEAAAEAV01@AEBV01@@Z" PURGE="0" COMMENT="" />
    <EXPORT ORDINAL="450" NAME="??4HWNDHost@DirectUI@@QEAAAEAV01@AEBV01@@Z" PURGE="0" COMMENT="" />
    <EXPORT ORDINAL="451" NAME="??4IDataEntry@DirectUI@@QEAAAEAU01@AEBU01@@Z" PURGE="0" COMMENT="" />
    <EXPORT ORDINAL="452" NAME="??4IProvider@DirectUI@@QEAAAEAV01@AEBV01@@Z" PURGE="0" COMMENT="" />
    <EXPORT ORDINAL="453" NAME="??4ISBLeak@DirectUI@@QEAAAEAU01@AEBU01@@Z" PURGE="0" COMMENT="" />
    <EXPORT ORDINAL="454" NAME="??4IXElementCP@DirectUI@@QEAAAEAV01@AEBV01@@Z" PURGE="0" COMMENT="" />
    <EXPORT ORDINAL="455" NAME="??4IXProviderCP@DirectUI@@QEAAAEAV01@AEBV01@@Z" PURGE="0" COMMENT="" />
    <EXPORT ORDINAL="456" NAME="??4InvokeManager@DirectUI@@QEAAAEAV01@AEBV01@@Z" PURGE="0" COMMENT="" />
    <EXPORT ORDINAL="457" NAME="??4ResourceModuleHandles@DirectUI@@QEAAAEAV01@AEBV01@@Z" PURGE="0" COMMENT="" />
    <EXPORT ORDINAL="458" NAME="??4NavigatorSelectionItemProxy@DirectUI@@QEAAAEAV01@AEBV01@@Z" PURGE="0" COMMENT="" />
    <EXPORT ORDINAL="459" NAME="??4Layout@DirectUI@@QEAAAEAV01@AEBV01@@Z" PURGE="0" COMMENT="" />
    <EXPORT ORDINAL="460" NAME="??4LinkedListNode@DirectUI@@QEAAAEAV01@AEBV01@@Z" PURGE="0" COMMENT="" />
    <EXPORT ORDINAL="461" NAME="??4XHost@DirectUI@@QEAAAEAV01@AEBV01@@Z" PURGE="0" COMMENT="" />
    <EXPORT ORDINAL="462" NAME="??4Page@DirectUI@@QEAAAEAV01@AEBV01@@Z" PURGE="0" COMMENT="" />
    <EXPORT ORDINAL="463" NAME="??4Movie@DirectUI@@QEAAAEAV01@AEBV01@@Z" PURGE="0" COMMENT="" />
    <EXPORT ORDINAL="464" NAME="??4NativeHWNDHost@DirectUI@@QEAAAEAV01@AEBV01@@Z" PURGE="0" COMMENT="" />
    <EXPORT ORDINAL="465" NAME="??4AutoVariant@DirectUI@@QEAAAEAV01@AEBV01@@Z" PURGE="0" COMMENT="" />
    <EXPORT ORDINAL="466" NAME="??4DUIFactory@DirectUI@@QEAAAEAV01@AEBV01@@Z" PURGE="0" COMMENT="" />
    <EXPORT ORDINAL="467" NAME="??4PushButton@DirectUI@@QEAAAEAV01@AEBV01@@Z" PURGE="0" COMMENT="" />
    <EXPORT ORDINAL="468" NAME="??4ProgressRangeValueProxy@DirectUI@@QEAAAEAV01@AEBV01@@Z" PURGE="0" COMMENT="" />
    <EXPORT ORDINAL="469" NAME="??4NineGridLayout@DirectUI@@QEAAAEAV01@AEBV01@@Z" PURGE="0" COMMENT="" />
    <EXPORT ORDINAL="470" NAME="??4PText@DirectUI@@QEAAAEAV01@AEBV01@@Z" PURGE="0" COMMENT="" />
    <EXPORT ORDINAL="471" NAME="??4Macro@DirectUI@@QEAAAEAV01@AEBV01@@Z" PURGE="0" COMMENT="" />
    <EXPORT ORDINAL="472" NAME="??4RadioButtonGlyph@DirectUI@@QEAAAEAV01@AEBV01@@Z" PURGE="0" COMMENT="" />
    <EXPORT ORDINAL="473" NAME="??4RefPointElement@DirectUI@@QEAAAEAV01@AEBV01@@Z" PURGE="0" COMMENT="" />
    <EXPORT ORDINAL="474" NAME="??4ProviderProxy@DirectUI@@QEAAAEAV01@AEBV01@@Z" PURGE="0" COMMENT="" />
    <EXPORT ORDINAL="475" NAME="??4Proxy@DirectUI@@QEAAAEAV01@AEBV01@@Z" PURGE="0" COMMENT="" />
    <EXPORT ORDINAL="476" NAME="??4RangeValueProxy@DirectUI@@QEAAAEAV01@AEBV01@@Z" PURGE="0" COMMENT="" />
    <EXPORT ORDINAL="477" NAME="??4AccessibleButton@DirectUI@@QEAAAEAV01@AEBV01@@Z" PURGE="0" COMMENT="" />
    <EXPORT ORDINAL="478" NAME="??4Thumb@DirectUI@@QEAAAEAV01@AEBV01@@Z" PURGE="0" COMMENT="" />
    <EXPORT ORDINAL="479" NAME="??4ScrollBarRangeValueProxy@DirectUI@@QEAAAEAV01@AEBV01@@Z" PURGE="0" COMMENT="" />
    <EXPORT ORDINAL="480" NAME="??4Selector@DirectUI@@QEAAAEAV01@AEBV01@@Z" PURGE="0" COMMENT="" />
    <EXPORT ORDINAL="481" NAME="??4RepeatButton@DirectUI@@QEAAAEAV01@AEBV01@@Z" PURGE="0" COMMENT="" />
    <EXPORT ORDINAL="482" NAME="??4Repeater@DirectUI@@QEAAAEAV01@AEBV01@@Z" PURGE="0" COMMENT="" />
    <EXPORT ORDINAL="483" NAME="??4Schema@DirectUI@@QEAAAEAV01@AEBV01@@Z" PURGE="0" COMMENT="" />
    <EXPORT ORDINAL="484" NAME="??4RowLayout@DirectUI@@QEAAAEAV01@AEBV01@@Z" PURGE="0" COMMENT="" />
    <EXPORT ORDINAL="485" NAME="??4StyleSheet@DirectUI@@QEAAAEAV01@AEBV01@@Z" PURGE="0" COMMENT="" />
    <EXPORT ORDINAL="486" NAME="??4ScrollBar@DirectUI@@QEAAAEAV01@AEBV01@@Z" PURGE="0" COMMENT="" />
    <EXPORT ORDINAL="487" NAME="??4ScrollItemProxy@DirectUI@@QEAAAEAV01@AEBV01@@Z" PURGE="0" COMMENT="" />
    <EXPORT ORDINAL="488" NAME="??4ScrollProxy@DirectUI@@QEAAAEAV01@AEBV01@@Z" PURGE="0" COMMENT="" />
    <EXPORT ORDINAL="489" NAME="??4SelectionItemProxy@DirectUI@@QEAAAEAV01@AEBV01@@Z" PURGE="0" COMMENT="" />
    <EXPORT ORDINAL="490" NAME="??4ScrollViewer@DirectUI@@QEAAAEAV01@AEBV01@@Z" PURGE="0" COMMENT="" />
    <EXPORT ORDINAL="491" NAME="??4SelectionProxy@DirectUI@@QEAAAEAV01@AEBV01@@Z" PURGE="0" COMMENT="" />
    <EXPORT ORDINAL="492" NAME="??4SelectorSelectionItemProxy@DirectUI@@QEAAAEAV01@AEBV01@@Z" PURGE="0" COMMENT="" />
    <EXPORT ORDINAL="493" NAME="??4SelectorNoDefault@DirectUI@@QEAAAEAV01@AEBV01@@Z" PURGE="0" COMMENT="" />
    <EXPORT ORDINAL="494" NAME="??4UnknownElement@DirectUI@@QEAAAEAV01@AEBV01@@Z" PURGE="0" COMMENT="" />
    <EXPORT ORDINAL="495" NAME="??4SelectorSelectionProxy@DirectUI@@QEAAAEAV01@AEBV01@@Z" PURGE="0" COMMENT="" />
    <EXPORT ORDINAL="496" NAME="??4TableItemProxy@DirectUI@@QEAAAEAV01@AEBV01@@Z" PURGE="0" COMMENT="" />
    <EXPORT ORDINAL="497" NAME="??4ShellBorderLayout@DirectUI@@QEAAAEAV01@AEBV01@@Z" PURGE="0" COMMENT="" />
    <EXPORT ORDINAL="498" NAME="??4Surface@DirectUI@@QEAAAEAV01@AEBV01@@Z" PURGE="0" COMMENT="" />
    <EXPORT ORDINAL="499" NAME="??4StyledScrollViewer@DirectUI@@QEAAAEAV01@AEBV01@@Z" PURGE="0" COMMENT="" />
    <EXPORT ORDINAL="500" NAME="??0AutoThread@DirectUI@@QEAA@XZ" PURGE="0" COMMENT="" />
    <EXPORT ORDINAL="501" NAME="??4TableProxy@DirectUI@@QEAAAEAV01@AEBV01@@Z" PURGE="0" COMMENT="" />
    <EXPORT ORDINAL="502" NAME="??4TableLayout@DirectUI@@QEAAAEAV01@AEBV01@@Z" PURGE="0" COMMENT="" />
    <EXPORT ORDINAL="503" NAME="??4ToggleProxy@DirectUI@@QEAAAEAV01@AEBV01@@Z" PURGE="0" COMMENT="" />
    <EXPORT ORDINAL="504" NAME="??4TaskPage@DirectUI@@QEAAAEAV01@AEBV01@@Z" PURGE="0" COMMENT="" />
    <EXPORT ORDINAL="505" NAME="??4TextGraphic@DirectUI@@QEAAAEAV01@AEBV01@@Z" PURGE="0" COMMENT="" />
    <EXPORT ORDINAL="506" NAME="??4Button@DirectUI@@QEAAAEAV01@AEBV01@@Z" PURGE="0" COMMENT="" />
    <EXPORT ORDINAL="507" NAME="??4ValueProxy@DirectUI@@QEAAAEAV01@AEBV01@@Z" PURGE="0" COMMENT="" />
    <EXPORT ORDINAL="508" NAME="??4Viewer@DirectUI@@QEAAAEAV01@AEBV01@@Z" PURGE="0" COMMENT="" />
    <EXPORT ORDINAL="509" NAME="??4Value@DirectUI@@QEAAAEAV01@AEBV01@@Z" PURGE="0" COMMENT="" />
    <EXPORT ORDINAL="510" NAME="??4BrowserSelectionProxy@DirectUI@@QEAAAEAV01@AEBV01@@Z" PURGE="0" COMMENT="" />
    <EXPORT ORDINAL="511" NAME="??4FlowLayout@DirectUI@@QEAAAEAV01@AEBV01@@Z" PURGE="0" COMMENT="" />
    <EXPORT ORDINAL="512" NAME="??4Bind@DirectUI@@QEAAAEAV01@AEBV01@@Z" PURGE="0" COMMENT="" />
    <EXPORT ORDINAL="513" NAME="??4XBaby@DirectUI@@QEAAAEAV01@AEBV01@@Z" PURGE="0" COMMENT="" />
    <EXPORT ORDINAL="514" NAME="??4XElement@DirectUI@@QEAAAEAV01@AEBV01@@Z" PURGE="0" COMMENT="" />
    <EXPORT ORDINAL="515" NAME="??4?$FunctionDefinition@H@DUIXmlParser@DirectUI@@QEAAAEAU012@AEBU012@@Z" PURGE="0" COMMENT="" />
    <EXPORT ORDINAL="516" NAME="??4XProvider@DirectUI@@QEAAAEAV01@AEBV01@@Z" PURGE="0" COMMENT="" />
    <EXPORT ORDINAL="517" NAME="??4XResourceProvider@DirectUI@@QEAAAEAV01@AEBV01@@Z" PURGE="0" COMMENT="" />
    <EXPORT ORDINAL="518" NAME="?GetElement@NativeHWNDHost@DirectUI@@QEAAPEAVElement@2@XZ" PURGE="0" COMMENT="" />
    <EXPORT ORDINAL="519" NAME="??BTaskPage@DirectUI@@QEAAPEAU_PSP@@XZ" PURGE="0" COMMENT="" />
    <EXPORT ORDINAL="520" NAME="??_7?$PatternProvider@VGridItemProvider@DirectUI@@UIGridItemProvider@@$01@DirectUI@@6BIProvider@1@@" PURGE="-1" COMMENT="" />
    <EXPORT ORDINAL="521" NAME="??_7?$PatternProvider@VExpandCollapseProvider@DirectUI@@UIExpandCollapseProvider@@$00@DirectUI@@6BRefcountBase@1@@" PURGE="-1" COMMENT="" />
    <EXPORT ORDINAL="522" NAME="??_7?$PatternProvider@VGridProvider@DirectUI@@UIGridProvider@@$02@DirectUI@@6BIProvider@1@@" PURGE="-1" COMMENT="" />
    <EXPORT ORDINAL="523" NAME="??_7?$PatternProvider@VGridItemProvider@DirectUI@@UIGridItemProvider@@$01@DirectUI@@6BRefcountBase@1@@" PURGE="-1" COMMENT="" />
    <EXPORT ORDINAL="524" NAME="??_7?$PatternProvider@VInvokeProvider@DirectUI@@UIInvokeProvider@@$0A@@DirectUI@@6BIProvider@1@@" PURGE="-1" COMMENT="" />
    <EXPORT ORDINAL="525" NAME="??_7?$PatternProvider@VGridProvider@DirectUI@@UIGridProvider@@$02@DirectUI@@6BRefcountBase@1@@" PURGE="-1" COMMENT="" />
    <EXPORT ORDINAL="526" NAME="??_7?$PatternProvider@VRangeValueProvider@DirectUI@@UIRangeValueProvider@@$03@DirectUI@@6BIProvider@1@@" PURGE="-1" COMMENT="" />
    <EXPORT ORDINAL="527" NAME="??_7?$PatternProvider@VInvokeProvider@DirectUI@@UIInvokeProvider@@$0A@@DirectUI@@6BRefcountBase@1@@" PURGE="-1" COMMENT="" />
    <EXPORT ORDINAL="528" NAME="??_7?$PatternProvider@VScrollItemProvider@DirectUI@@UIScrollItemProvider@@$05@DirectUI@@6BIProvider@1@@" PURGE="-1" COMMENT="" />
    <EXPORT ORDINAL="529" NAME="??_7?$PatternProvider@VRangeValueProvider@DirectUI@@UIRangeValueProvider@@$03@DirectUI@@6BRefcountBase@1@@" PURGE="-1" COMMENT="" />
    <EXPORT ORDINAL="530" NAME="??_7?$PatternProvider@VScrollProvider@DirectUI@@UIScrollProvider@@$04@DirectUI@@6BIProvider@1@@" PURGE="-1" COMMENT="" />
    <EXPORT ORDINAL="531" NAME="??_7?$PatternProvider@VScrollItemProvider@DirectUI@@UIScrollItemProvider@@$05@DirectUI@@6BRefcountBase@1@@" PURGE="-1" COMMENT="" />
    <EXPORT ORDINAL="532" NAME="??_7?$PatternProvider@VSelectionItemProvider@DirectUI@@UISelectionItemProvider@@$06@DirectUI@@6BIProvider@1@@" PURGE="-1" COMMENT="" />
    <EXPORT ORDINAL="533" NAME="??_7?$PatternProvider@VScrollProvider@DirectUI@@UIScrollProvider@@$04@DirectUI@@6BRefcountBase@1@@" PURGE="-1" COMMENT="" />
    <EXPORT ORDINAL="534" NAME="??_7?$PatternProvider@VSelectionProvider@DirectUI@@UISelectionProvider@@$07@DirectUI@@6BIProvider@1@@" PURGE="-1" COMMENT="" />
    <EXPORT ORDINAL="535" NAME="??_7?$PatternProvider@VSelectionItemProvider@DirectUI@@UISelectionItemProvider@@$06@DirectUI@@6BRefcountBase@1@@" PURGE="-1" COMMENT="" />
    <EXPORT ORDINAL="536" NAME="??_7?$PatternProvider@VTableItemProvider@DirectUI@@UITableItemProvider@@$09@DirectUI@@6BIProvider@1@@" PURGE="-1" COMMENT="" />
    <EXPORT ORDINAL="537" NAME="??_7?$PatternProvider@VSelectionProvider@DirectUI@@UISelectionProvider@@$07@DirectUI@@6BRefcountBase@1@@" PURGE="-1" COMMENT="" />
    <EXPORT ORDINAL="538" NAME="??_7?$PatternProvider@VTableProvider@DirectUI@@UITableProvider@@$08@DirectUI@@6BIProvider@1@@" PURGE="-1" COMMENT="" />
    <EXPORT ORDINAL="539" NAME="??_7?$PatternProvider@VTableItemProvider@DirectUI@@UITableItemProvider@@$09@DirectUI@@6BRefcountBase@1@@" PURGE="-1" COMMENT="" />
    <EXPORT ORDINAL="540" NAME="??_7?$PatternProvider@VToggleProvider@DirectUI@@UIToggleProvider@@$0L@@DirectUI@@6BIProvider@1@@" PURGE="-1" COMMENT="" />
    <EXPORT ORDINAL="541" NAME="??_7?$PatternProvider@VTableProvider@DirectUI@@UITableProvider@@$08@DirectUI@@6BRefcountBase@1@@" PURGE="-1" COMMENT="" />
    <EXPORT ORDINAL="542" NAME="??_7?$PatternProvider@VValueProvider@DirectUI@@UIValueProvider@@$0M@@DirectUI@@6BIProvider@1@@" PURGE="-1" COMMENT="" />
    <EXPORT ORDINAL="543" NAME="??_7?$PatternProvider@VToggleProvider@DirectUI@@UIToggleProvider@@$0L@@DirectUI@@6BRefcountBase@1@@" PURGE="-1" COMMENT="" />
    <EXPORT ORDINAL="544" NAME="??_7?$PatternProvider@VExpandCollapseProvider@DirectUI@@UIExpandCollapseProvider@@$00@DirectUI@@6BIProvider@1@@" PURGE="-1" COMMENT="" />
    <EXPORT ORDINAL="545" NAME="??_7?$PatternProvider@VValueProvider@DirectUI@@UIValueProvider@@$0M@@DirectUI@@6BRefcountBase@1@@" PURGE="-1" COMMENT="" />
    <EXPORT ORDINAL="546" NAME="??_7AccessibleButton@DirectUI@@6B@" PURGE="-1" COMMENT="" />
    <EXPORT ORDINAL="547" NAME="??_7AnimationStrip@DirectUI@@6B@" PURGE="-1" COMMENT="" />
    <EXPORT ORDINAL="548" NAME="??_7AutoButton@DirectUI@@6B@" PURGE="-1" COMMENT="" />
    <EXPORT ORDINAL="549" NAME="??_7BaseScrollBar@DirectUI@@6B@" PURGE="-1" COMMENT="" />
    <EXPORT ORDINAL="550" NAME="??_7BaseScrollViewer@DirectUI@@6BElement@1@@" PURGE="-1" COMMENT="" />
    <EXPORT ORDINAL="551" NAME="??_7BaseScrollViewer@DirectUI@@6BIElementListener@1@@" PURGE="-1" COMMENT="" />
    <EXPORT ORDINAL="552" NAME="??_7Bind@DirectUI@@6B@" PURGE="-1" COMMENT="" />
    <EXPORT ORDINAL="553" NAME="??_7BorderLayout@DirectUI@@6B@" PURGE="-1" COMMENT="" />
    <EXPORT ORDINAL="554" NAME="??_7Browser@DirectUI@@6B@" PURGE="-1" COMMENT="" />
    <EXPORT ORDINAL="555" NAME="??_7BrowserSelectionProxy@DirectUI@@6B@" PURGE="-1" COMMENT="" />
    <EXPORT ORDINAL="556" NAME="??_7Button@DirectUI@@6B@" PURGE="-1" COMMENT="" />
    <EXPORT ORDINAL="557" NAME="??_7CCAVI@DirectUI@@6B@" PURGE="-1" COMMENT="" />
    <EXPORT ORDINAL="558" NAME="??_7CCBase@DirectUI@@6B@" PURGE="-1" COMMENT="" />
    <EXPORT ORDINAL="559" NAME="??_7CCBaseCheckRadioButton@DirectUI@@6B@" PURGE="-1" COMMENT="" />
    <EXPORT ORDINAL="560" NAME="??_7CCHScrollBar@DirectUI@@6BBaseScrollBar@1@@" PURGE="-1" COMMENT="" />
    <EXPORT ORDINAL="561" NAME="??_7CCBaseScrollBar@DirectUI@@6BCCBase@1@@" PURGE="-1" COMMENT="" />
    <EXPORT ORDINAL="562" NAME="??_7CCCheckBox@DirectUI@@6B@" PURGE="-1" COMMENT="" />
    <EXPORT ORDINAL="563" NAME="??_7CCCommandLink@DirectUI@@6B@" PURGE="-1" COMMENT="" />
    <EXPORT ORDINAL="564" NAME="??_7CCVScrollBar@DirectUI@@6BBaseScrollBar@1@@" PURGE="-1" COMMENT="" />
    <EXPORT ORDINAL="565" NAME="??_7CCHScrollBar@DirectUI@@6BCCBase@1@@" PURGE="-1" COMMENT="" />
    <EXPORT ORDINAL="566" NAME="??_7CCListBox@DirectUI@@6B@" PURGE="-1" COMMENT="" />
    <EXPORT ORDINAL="567" NAME="??_7CCListView@DirectUI@@6B@" PURGE="-1" COMMENT="" />
    <EXPORT ORDINAL="568" NAME="??_7CCProgressBar@DirectUI@@6B@" PURGE="-1" COMMENT="" />
    <EXPORT ORDINAL="569" NAME="??_7CCPushButton@DirectUI@@6B@" PURGE="-1" COMMENT="" />
    <EXPORT ORDINAL="570" NAME="??_7CCRadioButton@DirectUI@@6B@" PURGE="-1" COMMENT="" />
    <EXPORT ORDINAL="571" NAME="??_7CCSysLink@DirectUI@@6B@" PURGE="-1" COMMENT="" />
    <EXPORT ORDINAL="572" NAME="??_7CCTrackBar@DirectUI@@6B@" PURGE="-1" COMMENT="" />
    <EXPORT ORDINAL="573" NAME="??_7CCTreeView@DirectUI@@6B@" PURGE="-1" COMMENT="" />
    <EXPORT ORDINAL="574" NAME="??_7CCBaseScrollBar@DirectUI@@6BBaseScrollBar@1@@" PURGE="-1" COMMENT="" />
    <EXPORT ORDINAL="575" NAME="??_7CCVScrollBar@DirectUI@@6BCCBase@1@@" PURGE="-1" COMMENT="" />
    <EXPORT ORDINAL="576" NAME="??_7CheckBoxGlyph@DirectUI@@6B@" PURGE="-1" COMMENT="" />
    <EXPORT ORDINAL="577" NAME="??_7ClassInfoBase@DirectUI@@6B@" PURGE="-1" COMMENT="" />
    <EXPORT ORDINAL="578" NAME="??_7Clipper@DirectUI@@6B@" PURGE="-1" COMMENT="" />
    <EXPORT ORDINAL="579" NAME="??_7Combobox@DirectUI@@6B@" PURGE="-1" COMMENT="" />
    <EXPORT ORDINAL="580" NAME="??_7DCSurface@DirectUI@@6B@" PURGE="-1" COMMENT="" />
    <EXPORT ORDINAL="581" NAME="??_7DUIXmlParser@DirectUI@@6B@" PURGE="-1" COMMENT="" />
    <EXPORT ORDINAL="582" NAME="??_7DialogElement@DirectUI@@6BHWNDElement@1@@" PURGE="-1" COMMENT="" />
    <EXPORT ORDINAL="583" NAME="??_7XBaby@DirectUI@@6BIElementListener@1@@" PURGE="-1" COMMENT="" />
    <EXPORT ORDINAL="584" NAME="??_7HWNDElementAccessible@DirectUI@@6BIAccIdentity@@@" PURGE="-1" COMMENT="" />
    <EXPORT ORDINAL="585" NAME="??_7DuiAccessible@DirectUI@@6BIAccessible@@@" PURGE="-1" COMMENT="" />
    <EXPORT ORDINAL="586" NAME="??_7HWNDElementAccessible@DirectUI@@6BIEnumVARIANT@@@" PURGE="-1" COMMENT="" />
    <EXPORT ORDINAL="587" NAME="??_7HWNDElementAccessible@DirectUI@@6BIOleWindow@@@" PURGE="-1" COMMENT="" />
    <EXPORT ORDINAL="588" NAME="??_7HWNDElementAccessible@DirectUI@@6BIServiceProvider@@@" PURGE="-1" COMMENT="" />
    <EXPORT ORDINAL="589" NAME="??_7Edit@DirectUI@@6B@" PURGE="-1" COMMENT="" />
    <EXPORT ORDINAL="590" NAME="??_7Element@DirectUI@@6B@" PURGE="-1" COMMENT="" />
    <EXPORT ORDINAL="591" NAME="??_7ElementProvider@DirectUI@@6BIRawElementProviderAdviseEvents@@@" PURGE="-1" COMMENT="" />
    <EXPORT ORDINAL="592" NAME="??_7ElementProvider@DirectUI@@6BIRawElementProviderFragment@@@" PURGE="-1" COMMENT="" />
    <EXPORT ORDINAL="593" NAME="??_7ElementProvider@DirectUI@@6BIRawElementProviderSimple@@@" PURGE="-1" COMMENT="" />
    <EXPORT ORDINAL="594" NAME="??_7ElementProvider@DirectUI@@6BRefcountBase@1@@" PURGE="-1" COMMENT="" />
    <EXPORT ORDINAL="595" NAME="??_7ElementProxy@DirectUI@@6B@" PURGE="-1" COMMENT="" />
    <EXPORT ORDINAL="596" NAME="??_7ElementWithHWND@DirectUI@@6B@" PURGE="-1" COMMENT="" />
    <EXPORT ORDINAL="597" NAME="??_7ExpandCollapseProvider@DirectUI@@6B@" PURGE="-1" COMMENT="" />
    <EXPORT ORDINAL="598" NAME="??_7ExpandCollapseProvider@DirectUI@@6BIProvider@1@@" PURGE="-1" COMMENT="" />
    <EXPORT ORDINAL="599" NAME="??_7ExpandCollapseProvider@DirectUI@@6BRefcountBase@1@@" PURGE="-1" COMMENT="" />
    <EXPORT ORDINAL="600" NAME="??_7ExpandCollapseProxy@DirectUI@@6B@" PURGE="-1" COMMENT="" />
    <EXPORT ORDINAL="601" NAME="??_7Expandable@DirectUI@@6B@" PURGE="-1" COMMENT="" />
    <EXPORT ORDINAL="602" NAME="??_7Expando@DirectUI@@6B@" PURGE="-1" COMMENT="" />
    <EXPORT ORDINAL="603" NAME="??_7ExpandoButtonGlyph@DirectUI@@6B@" PURGE="-1" COMMENT="" />
    <EXPORT ORDINAL="604" NAME="??_7FillLayout@DirectUI@@6B@" PURGE="-1" COMMENT="" />
    <EXPORT ORDINAL="605" NAME="??_7FlowLayout@DirectUI@@6B@" PURGE="-1" COMMENT="" />
    <EXPORT ORDINAL="606" NAME="??_7FontCache@DirectUI@@6B@" PURGE="-1" COMMENT="" />
    <EXPORT ORDINAL="607" NAME="??_7GridItemProvider@DirectUI@@6B@" PURGE="-1" COMMENT="" />
    <EXPORT ORDINAL="608" NAME="??_7GridItemProvider@DirectUI@@6BIProvider@1@@" PURGE="-1" COMMENT="" />
    <EXPORT ORDINAL="609" NAME="??_7GridItemProvider@DirectUI@@6BRefcountBase@1@@" PURGE="-1" COMMENT="" />
    <EXPORT ORDINAL="610" NAME="??_7GridItemProxy@DirectUI@@6B@" PURGE="-1" COMMENT="" />
    <EXPORT ORDINAL="611" NAME="??_7GridLayout@DirectUI@@6B@" PURGE="-1" COMMENT="" />
    <EXPORT ORDINAL="612" NAME="??_7GridProvider@DirectUI@@6B@" PURGE="-1" COMMENT="" />
    <EXPORT ORDINAL="613" NAME="??_7GridProvider@DirectUI@@6BIProvider@1@@" PURGE="-1" COMMENT="" />
    <EXPORT ORDINAL="614" NAME="??_7GridProvider@DirectUI@@6BRefcountBase@1@@" PURGE="-1" COMMENT="" />
    <EXPORT ORDINAL="615" NAME="??_7GridProxy@DirectUI@@6B@" PURGE="-1" COMMENT="" />
    <EXPORT ORDINAL="616" NAME="??_7HWNDElement@DirectUI@@6B@" PURGE="-1" COMMENT="" />
    <EXPORT ORDINAL="617" NAME="??_7DuiAccessible@DirectUI@@6BIAccIdentity@@@" PURGE="-1" COMMENT="" />
    <EXPORT ORDINAL="618" NAME="??_7HWNDElementAccessible@DirectUI@@6BIAccessible@@@" PURGE="-1" COMMENT="" />
    <EXPORT ORDINAL="619" NAME="??_7DuiAccessible@DirectUI@@6BIEnumVARIANT@@@" PURGE="-1" COMMENT="" />
    <EXPORT ORDINAL="620" NAME="??_7DuiAccessible@DirectUI@@6BIOleWindow@@@" PURGE="-1" COMMENT="" />
    <EXPORT ORDINAL="621" NAME="??_7DuiAccessible@DirectUI@@6BIServiceProvider@@@" PURGE="-1" COMMENT="" />
    <EXPORT ORDINAL="622" NAME="??_7HWNDElementProvider@DirectUI@@6B@" PURGE="-1" COMMENT="" />
    <EXPORT ORDINAL="623" NAME="??_7HWNDElementProvider@DirectUI@@6BIRawElementProviderAdviseEvents@@@" PURGE="-1" COMMENT="" />
    <EXPORT ORDINAL="624" NAME="??_7HWNDElementProvider@DirectUI@@6BIRawElementProviderFragment@@@" PURGE="-1" COMMENT="" />
    <EXPORT ORDINAL="625" NAME="??_7HWNDElementProvider@DirectUI@@6BIRawElementProviderSimple@@@" PURGE="-1" COMMENT="" />
    <EXPORT ORDINAL="626" NAME="??_7HWNDElementProvider@DirectUI@@6BRefcountBase@1@@" PURGE="-1" COMMENT="" />
    <EXPORT ORDINAL="627" NAME="??_7HWNDElementProxy@DirectUI@@6B@" PURGE="-1" COMMENT="" />
    <EXPORT ORDINAL="628" NAME="??_7HWNDHost@DirectUI@@6B@" PURGE="-1" COMMENT="" />
    <EXPORT ORDINAL="629" NAME="??_7HWNDHostClientAccessible@DirectUI@@6BIAccIdentity@@@" PURGE="-1" COMMENT="" />
    <EXPORT ORDINAL="630" NAME="??_7HWNDHostAccessible@DirectUI@@6BIAccessible@@@" PURGE="-1" COMMENT="" />
    <EXPORT ORDINAL="631" NAME="??_7HWNDHostClientAccessible@DirectUI@@6BIEnumVARIANT@@@" PURGE="-1" COMMENT="" />
    <EXPORT ORDINAL="632" NAME="??_7HWNDHostClientAccessible@DirectUI@@6BIOleWindow@@@" PURGE="-1" COMMENT="" />
    <EXPORT ORDINAL="633" NAME="??_7HWNDHostClientAccessible@DirectUI@@6BIServiceProvider@@@" PURGE="-1" COMMENT="" />
    <EXPORT ORDINAL="634" NAME="??_7HWNDHostAccessible@DirectUI@@6BIAccIdentity@@@" PURGE="-1" COMMENT="" />
    <EXPORT ORDINAL="635" NAME="??_7HWNDHostClientAccessible@DirectUI@@6BIAccessible@@@" PURGE="-1" COMMENT="" />
    <EXPORT ORDINAL="636" NAME="??_7HWNDHostAccessible@DirectUI@@6BIEnumVARIANT@@@" PURGE="-1" COMMENT="" />
    <EXPORT ORDINAL="637" NAME="??_7HWNDHostAccessible@DirectUI@@6BIOleWindow@@@" PURGE="-1" COMMENT="" />
    <EXPORT ORDINAL="638" NAME="??_7HWNDHostAccessible@DirectUI@@6BIServiceProvider@@@" PURGE="-1" COMMENT="" />
    <EXPORT ORDINAL="639" NAME="??_7IDataEntry@DirectUI@@6B@" PURGE="-1" COMMENT="" />
    <EXPORT ORDINAL="640" NAME="??_7IDataEngine@DirectUI@@6B@" PURGE="-1" COMMENT="" />
    <EXPORT ORDINAL="641" NAME="??_7IXElementCP@DirectUI@@6B@" PURGE="-1" COMMENT="" />
    <EXPORT ORDINAL="642" NAME="??_7IXProviderCP@DirectUI@@6B@" PURGE="-1" COMMENT="" />
    <EXPORT ORDINAL="643" NAME="??_7IProvider@DirectUI@@6B@" PURGE="-1" COMMENT="" />
    <EXPORT ORDINAL="644" NAME="??_7ISBLeak@DirectUI@@6B@" PURGE="-1" COMMENT="" />
    <EXPORT ORDINAL="645" NAME="??_7InvokeHelper@DirectUI@@6B@" PURGE="-1" COMMENT="" />
    <EXPORT ORDINAL="646" NAME="??_7InvokeProvider@DirectUI@@6B@" PURGE="-1" COMMENT="" />
    <EXPORT ORDINAL="647" NAME="??_7InvokeProvider@DirectUI@@6BIProvider@1@@" PURGE="-1" COMMENT="" />
    <EXPORT ORDINAL="648" NAME="??_7InvokeProvider@DirectUI@@6BRefcountBase@1@@" PURGE="-1" COMMENT="" />
    <EXPORT ORDINAL="649" NAME="??_7InvokeProxy@DirectUI@@6B@" PURGE="-1" COMMENT="" />
    <EXPORT ORDINAL="650" NAME="??_7Layout@DirectUI@@6B@" PURGE="-1" COMMENT="" />
    <EXPORT ORDINAL="651" NAME="??_7Macro@DirectUI@@6B@" PURGE="-1" COMMENT="" />
    <EXPORT ORDINAL="652" NAME="??_7Movie@DirectUI@@6B@" PURGE="-1" COMMENT="" />
    <EXPORT ORDINAL="653" NAME="??_7NativeHWNDHost@DirectUI@@6B@" PURGE="-1" COMMENT="" />
    <EXPORT ORDINAL="654" NAME="??_7Navigator@DirectUI@@6B@" PURGE="-1" COMMENT="" />
    <EXPORT ORDINAL="655" NAME="??_7NavigatorSelectionItemProxy@DirectUI@@6B@" PURGE="-1" COMMENT="" />
    <EXPORT ORDINAL="656" NAME="??_7NineGridLayout@DirectUI@@6B@" PURGE="-1" COMMENT="" />
    <EXPORT ORDINAL="657" NAME="??_7PText@DirectUI@@6B@" PURGE="-1" COMMENT="" />
    <EXPORT ORDINAL="658" NAME="??_7Page@DirectUI@@6B@" PURGE="-1" COMMENT="" />
    <EXPORT ORDINAL="659" NAME="??_7Pages@DirectUI@@6B@" PURGE="-1" COMMENT="" />
    <EXPORT ORDINAL="660" NAME="??_7Progress@DirectUI@@6B@" PURGE="-1" COMMENT="" />
    <EXPORT ORDINAL="661" NAME="??_7ProgressRangeValueProxy@DirectUI@@6B@" PURGE="-1" COMMENT="" />
    <EXPORT ORDINAL="662" NAME="??_7ProviderProxy@DirectUI@@6B@" PURGE="-1" COMMENT="" />
    <EXPORT ORDINAL="663" NAME="??_7Proxy@DirectUI@@6B@" PURGE="-1" COMMENT="" />
    <EXPORT ORDINAL="664" NAME="??_7PushButton@DirectUI@@6B@" PURGE="-1" COMMENT="" />
    <EXPORT ORDINAL="665" NAME="??_7RadioButtonGlyph@DirectUI@@6B@" PURGE="-1" COMMENT="" />
    <EXPORT ORDINAL="666" NAME="??_7RangeValueProvider@DirectUI@@6B@" PURGE="-1" COMMENT="" />
    <EXPORT ORDINAL="667" NAME="??_7RangeValueProvider@DirectUI@@6BIProvider@1@@" PURGE="-1" COMMENT="" />
    <EXPORT ORDINAL="668" NAME="??_7RangeValueProvider@DirectUI@@6BRefcountBase@1@@" PURGE="-1" COMMENT="" />
    <EXPORT ORDINAL="669" NAME="??_7SelectionItemProxy@DirectUI@@6B@" PURGE="-1" COMMENT="" />
    <EXPORT ORDINAL="670" NAME="??_7RefPointElement@DirectUI@@6B@" PURGE="-1" COMMENT="" />
    <EXPORT ORDINAL="671" NAME="??_7RefcountBase@DirectUI@@6B@" PURGE="-1" COMMENT="" />
    <EXPORT ORDINAL="672" NAME="??_7RepeatButton@DirectUI@@6B@" PURGE="-1" COMMENT="" />
    <EXPORT ORDINAL="673" NAME="??_7Repeater@DirectUI@@6B@" PURGE="-1" COMMENT="" />
    <EXPORT ORDINAL="674" NAME="??_7RowLayout@DirectUI@@6B@" PURGE="-1" COMMENT="" />
    <EXPORT ORDINAL="675" NAME="??_7ScrollBar@DirectUI@@6BBaseScrollBar@1@@" PURGE="-1" COMMENT="" />
    <EXPORT ORDINAL="676" NAME="??_7ScrollBar@DirectUI@@6BElement@1@@" PURGE="-1" COMMENT="" />
    <EXPORT ORDINAL="677" NAME="??_7ScrollBarRangeValueProxy@DirectUI@@6B@" PURGE="-1" COMMENT="" />
    <EXPORT ORDINAL="678" NAME="??_7ScrollItemProvider@DirectUI@@6B@" PURGE="-1" COMMENT="" />
    <EXPORT ORDINAL="679" NAME="??_7ScrollItemProvider@DirectUI@@6BIProvider@1@@" PURGE="-1" COMMENT="" />
    <EXPORT ORDINAL="680" NAME="??_7ScrollItemProvider@DirectUI@@6BRefcountBase@1@@" PURGE="-1" COMMENT="" />
    <EXPORT ORDINAL="681" NAME="??_7ScrollItemProxy@DirectUI@@6B@" PURGE="-1" COMMENT="" />
    <EXPORT ORDINAL="682" NAME="??_7ScrollProvider@DirectUI@@6B@" PURGE="-1" COMMENT="" />
    <EXPORT ORDINAL="683" NAME="??_7ScrollProvider@DirectUI@@6BIProvider@1@@" PURGE="-1" COMMENT="" />
    <EXPORT ORDINAL="684" NAME="??_7ScrollProvider@DirectUI@@6BRefcountBase@1@@" PURGE="-1" COMMENT="" />
    <EXPORT ORDINAL="685" NAME="??_7ScrollProxy@DirectUI@@6B@" PURGE="-1" COMMENT="" />
    <EXPORT ORDINAL="686" NAME="??_7ScrollViewer@DirectUI@@6BElement@1@@" PURGE="-1" COMMENT="" />
    <EXPORT ORDINAL="687" NAME="??_7ScrollViewer@DirectUI@@6BIElementListener@1@@" PURGE="-1" COMMENT="" />
    <EXPORT ORDINAL="688" NAME="??_7SelectionItemProvider@DirectUI@@6B@" PURGE="-1" COMMENT="" />
    <EXPORT ORDINAL="689" NAME="??_7SelectionItemProvider@DirectUI@@6BIProvider@1@@" PURGE="-1" COMMENT="" />
    <EXPORT ORDINAL="690" NAME="??_7SelectionItemProvider@DirectUI@@6BRefcountBase@1@@" PURGE="-1" COMMENT="" />
    <EXPORT ORDINAL="691" NAME="??_7SelectionProxy@DirectUI@@6B@" PURGE="-1" COMMENT="" />
    <EXPORT ORDINAL="692" NAME="??_7SelectionProvider@DirectUI@@6B@" PURGE="-1" COMMENT="" />
    <EXPORT ORDINAL="693" NAME="??_7SelectionProvider@DirectUI@@6BIProvider@1@@" PURGE="-1" COMMENT="" />
    <EXPORT ORDINAL="694" NAME="??_7SelectionProvider@DirectUI@@6BRefcountBase@1@@" PURGE="-1" COMMENT="" />
    <EXPORT ORDINAL="695" NAME="??_7RangeValueProxy@DirectUI@@6B@" PURGE="-1" COMMENT="" />
    <EXPORT ORDINAL="696" NAME="??_7Selector@DirectUI@@6B@" PURGE="-1" COMMENT="" />
    <EXPORT ORDINAL="697" NAME="??_7SelectorNoDefault@DirectUI@@6B@" PURGE="-1" COMMENT="" />
    <EXPORT ORDINAL="698" NAME="??_7SelectorSelectionItemProxy@DirectUI@@6B@" PURGE="-1" COMMENT="" />
    <EXPORT ORDINAL="699" NAME="??_7SelectorSelectionProxy@DirectUI@@6B@" PURGE="-1" COMMENT="" />
    <EXPORT ORDINAL="700" NAME="??_7ShellBorderLayout@DirectUI@@6B@" PURGE="-1" COMMENT="" />
    <EXPORT ORDINAL="701" NAME="??_7StyleSheet@DirectUI@@6B@" PURGE="-1" COMMENT="" />
    <EXPORT ORDINAL="702" NAME="??_7StyledScrollViewer@DirectUI@@6BElement@1@@" PURGE="-1" COMMENT="" />
    <EXPORT ORDINAL="703" NAME="??_7StyledScrollViewer@DirectUI@@6BIElementListener@1@@" PURGE="-1" COMMENT="" />
    <EXPORT ORDINAL="704" NAME="??_7Surface@DirectUI@@6B@" PURGE="-1" COMMENT="" />
    <EXPORT ORDINAL="705" NAME="??_7TableItemProvider@DirectUI@@6B@" PURGE="-1" COMMENT="" />
    <EXPORT ORDINAL="706" NAME="??_7TableItemProvider@DirectUI@@6BIProvider@1@@" PURGE="-1" COMMENT="" />
    <EXPORT ORDINAL="707" NAME="??_7TableItemProvider@DirectUI@@6BRefcountBase@1@@" PURGE="-1" COMMENT="" />
    <EXPORT ORDINAL="708" NAME="??_7TableItemProxy@DirectUI@@6B@" PURGE="-1" COMMENT="" />
    <EXPORT ORDINAL="709" NAME="??_7TableLayout@DirectUI@@6B@" PURGE="-1" COMMENT="" />
    <EXPORT ORDINAL="710" NAME="??_7TableProvider@DirectUI@@6B@" PURGE="-1" COMMENT="" />
    <EXPORT ORDINAL="711" NAME="??_7TableProvider@DirectUI@@6BIProvider@1@@" PURGE="-1" COMMENT="" />
    <EXPORT ORDINAL="712" NAME="??_7TableProvider@DirectUI@@6BRefcountBase@1@@" PURGE="-1" COMMENT="" />
    <EXPORT ORDINAL="713" NAME="??_7TableProxy@DirectUI@@6B@" PURGE="-1" COMMENT="" />
    <EXPORT ORDINAL="714" NAME="??_7TaskPage@DirectUI@@6BIElementListener@1@@" PURGE="-1" COMMENT="" />
    <EXPORT ORDINAL="715" NAME="??_7TaskPage@DirectUI@@6BIXProviderCP@1@@" PURGE="-1" COMMENT="" />
    <EXPORT ORDINAL="716" NAME="??_7TextGraphic@DirectUI@@6B@" PURGE="-1" COMMENT="" />
    <EXPORT ORDINAL="717" NAME="??_7Thumb@DirectUI@@6B@" PURGE="-1" COMMENT="" />
    <EXPORT ORDINAL="718" NAME="??_7ToggleProvider@DirectUI@@6B@" PURGE="-1" COMMENT="" />
    <EXPORT ORDINAL="719" NAME="??_7ToggleProvider@DirectUI@@6BIProvider@1@@" PURGE="-1" COMMENT="" />
    <EXPORT ORDINAL="720" NAME="??_7ToggleProvider@DirectUI@@6BRefcountBase@1@@" PURGE="-1" COMMENT="" />
    <EXPORT ORDINAL="721" NAME="??_7ToggleProxy@DirectUI@@6B@" PURGE="-1" COMMENT="" />
    <EXPORT ORDINAL="722" NAME="??_7UnknownElement@DirectUI@@6B@" PURGE="-1" COMMENT="" />
    <EXPORT ORDINAL="723" NAME="??_7ValueProvider@DirectUI@@6B@" PURGE="-1" COMMENT="" />
    <EXPORT ORDINAL="724" NAME="??_7ValueProvider@DirectUI@@6BIProvider@1@@" PURGE="-1" COMMENT="" />
    <EXPORT ORDINAL="725" NAME="??_7ValueProvider@DirectUI@@6BRefcountBase@1@@" PURGE="-1" COMMENT="" />
    <EXPORT ORDINAL="726" NAME="??_7ValueProxy@DirectUI@@6B@" PURGE="-1" COMMENT="" />
    <EXPORT ORDINAL="727" NAME="??_7VerticalFlowLayout@DirectUI@@6B@" PURGE="-1" COMMENT="" />
    <EXPORT ORDINAL="728" NAME="??_7Viewer@DirectUI@@6B@" PURGE="-1" COMMENT="" />
    <EXPORT ORDINAL="729" NAME="??_7XBaby@DirectUI@@6BHWNDElement@1@@" PURGE="-1" COMMENT="" />
    <EXPORT ORDINAL="730" NAME="??_7DialogElement@DirectUI@@6BIElementListener@1@@" PURGE="-1" COMMENT="" />
    <EXPORT ORDINAL="731" NAME="??_7XElement@DirectUI@@6BHWNDHost@1@@" PURGE="-1" COMMENT="" />
    <EXPORT ORDINAL="732" NAME="??_7XElement@DirectUI@@6BIXElementCP@1@@" PURGE="-1" COMMENT="" />
    <EXPORT ORDINAL="733" NAME="??_7XProvider@DirectUI@@6B@" PURGE="-1" COMMENT="" />
    <EXPORT ORDINAL="734" NAME="??_7XResourceProvider@DirectUI@@6B@" PURGE="-1" COMMENT="" />
    <EXPORT ORDINAL="735" NAME="??_FCCBase@DirectUI@@QEAAXXZ" PURGE="0" COMMENT="" />
    <EXPORT ORDINAL="736" NAME="??_FCCBaseScrollBar@DirectUI@@QEAAXXZ" PURGE="0" COMMENT="" />
    <EXPORT ORDINAL="737" NAME="??_FCCCheckBox@DirectUI@@QEAAXXZ" PURGE="0" COMMENT="" />
    <EXPORT ORDINAL="738" NAME="??_FCCCommandLink@DirectUI@@QEAAXXZ" PURGE="0" COMMENT="" />
    <EXPORT ORDINAL="739" NAME="??_FCCPushButton@DirectUI@@QEAAXXZ" PURGE="0" COMMENT="" />
    <EXPORT ORDINAL="740" NAME="??_FCCTreeView@DirectUI@@QEAAXXZ" PURGE="0" COMMENT="" />
    <EXPORT ORDINAL="741" NAME="?AbsorbsShortcutProp@Element@DirectUI@@SAPEBUPropertyInfo@2@XZ" PURGE="0" COMMENT="" />
    <EXPORT ORDINAL="742" NAME="?AccDefActionProp@Element@DirectUI@@SAPEBUPropertyInfo@2@XZ" PURGE="0" COMMENT="" />
    <EXPORT ORDINAL="743" NAME="?AccDescProp@Element@DirectUI@@SAPEBUPropertyInfo@2@XZ" PURGE="0" COMMENT="" />
    <EXPORT ORDINAL="744" NAME="?AccHelpProp@Element@DirectUI@@SAPEBUPropertyInfo@2@XZ" PURGE="0" COMMENT="" />
    <EXPORT ORDINAL="745" NAME="?AccItemStatusProp@Element@DirectUI@@SAPEBUPropertyInfo@2@XZ" PURGE="0" COMMENT="" />
    <EXPORT ORDINAL="746" NAME="?AccItemTypeProp@Element@DirectUI@@SAPEBUPropertyInfo@2@XZ" PURGE="0" COMMENT="" />
    <EXPORT ORDINAL="747" NAME="?AccNameProp@Element@DirectUI@@SAPEBUPropertyInfo@2@XZ" PURGE="0" COMMENT="" />
    <EXPORT ORDINAL="748" NAME="?AccNavigate@DuiAccessible@DirectUI@@SAJPEAVElement@2@JPEAPEAV32@@Z" PURGE="0" COMMENT="" />
    <EXPORT ORDINAL="749" NAME="?AccRoleProp@Element@DirectUI@@SAPEBUPropertyInfo@2@XZ" PURGE="0" COMMENT="" />
    <EXPORT ORDINAL="750" NAME="?AccStateProp@Element@DirectUI@@SAPEBUPropertyInfo@2@XZ" PURGE="0" COMMENT="" />
    <EXPORT ORDINAL="751" NAME="?AccValueProp@Element@DirectUI@@SAPEBUPropertyInfo@2@XZ" PURGE="0" COMMENT="" />
    <EXPORT ORDINAL="752" NAME="?AcceleratorKeyProperty@Schema@DirectUI@@2HA" PURGE="-1" COMMENT="" />
    <EXPORT ORDINAL="753" NAME="?Access@?$SafeArrayAccessor@H@DirectUI@@QEAAJPEAUtagSAFEARRAY@@G@Z" PURGE="0" COMMENT="" />
    <EXPORT ORDINAL="754" NAME="?AccessKeyProperty@Schema@DirectUI@@2HA" PURGE="-1" COMMENT="" />
    <EXPORT ORDINAL="755" NAME="?AccessibleProp@Element@DirectUI@@SAPEBUPropertyInfo@2@XZ" PURGE="0" COMMENT="" />
    <EXPORT ORDINAL="756" NAME="?ActionInitiated@Navigator@DirectUI@@SA?AVUID@@XZ" PURGE="0" COMMENT="" />
    <EXPORT ORDINAL="757" NAME="?ActivateTooltip@Element@DirectUI@@MEAAXPEAV12@K@Z" PURGE="0" COMMENT="" />
    <EXPORT ORDINAL="758" NAME="?ActivateTooltip@HWNDElement@DirectUI@@UEAAXPEAVElement@2@K@Z" PURGE="0" COMMENT="" />
    <EXPORT ORDINAL="759" NAME="?ActiveProp@Element@DirectUI@@SAPEBUPropertyInfo@2@XZ" PURGE="0" COMMENT="" />
    <EXPORT ORDINAL="760" NAME="?ActualReferencePointProp@RefPointElement@DirectUI@@SAPEBUPropertyInfo@2@XZ" PURGE="0" COMMENT="" />
    <EXPORT ORDINAL="761" NAME="?Add@BaseScrollViewer@DirectUI@@UEAAJPEAPEAVElement@2@I@Z" PURGE="0" COMMENT="" />
    <EXPORT ORDINAL="762" NAME="?Add@Element@DirectUI@@QEAAJPEAV12@@Z" PURGE="0" COMMENT="" />
    <EXPORT ORDINAL="763" NAME="?Add@Element@DirectUI@@QEAAJPEAV12@P6AHPEBX1@Z@Z" PURGE="0" COMMENT="" />
    <EXPORT ORDINAL="764" NAME="?Add@Element@DirectUI@@UEAAJPEAPEAV12@I@Z" PURGE="0" COMMENT="" />
    <EXPORT ORDINAL="765" NAME="?Add@ElementProviderManager@DirectUI@@SAJPEAVElementProvider@2@@Z" PURGE="0" COMMENT="" />
    <EXPORT ORDINAL="766" NAME="?Add@Expando@DirectUI@@UEAAJPEAPEAVElement@2@I@Z" PURGE="0" COMMENT="" />
    <EXPORT ORDINAL="767" NAME="?Add@LinkedList@DirectUI@@QEAAXPEAVLinkedListNode@2@@Z" PURGE="0" COMMENT="" />
    <EXPORT ORDINAL="768" NAME="?Add@Macro@DirectUI@@UEAAJPEAPEAVElement@2@I@Z" PURGE="0" COMMENT="" />
    <EXPORT ORDINAL="769" NAME="?Add@Pages@DirectUI@@UEAAJPEAPEAVElement@2@I@Z" PURGE="0" COMMENT="" />
    <EXPORT ORDINAL="770" NAME="?AddChild@ClassInfoBase@DirectUI@@UEAAXXZ" PURGE="0" COMMENT="" />
    <EXPORT ORDINAL="771" NAME="?AddChildren@ScrollViewer@DirectUI@@MEAAJXZ" PURGE="0" COMMENT="" />
    <EXPORT ORDINAL="772" NAME="?AddChildren@StyledScrollViewer@DirectUI@@MEAAJXZ" PURGE="0" COMMENT="" />
    <EXPORT ORDINAL="773" NAME="?AddListener@Element@DirectUI@@QEAAJPEAUIElementListener@2@@Z" PURGE="0" COMMENT="" />
    <EXPORT ORDINAL="774" NAME="?AddRectangleChange@EventManager@DirectUI@@CAJPEAVElement@2@_N1@Z" PURGE="0" COMMENT="" />
    <EXPORT ORDINAL="775" NAME="?AddRef@ClassInfoBase@DirectUI@@UEAAXXZ" PURGE="0" COMMENT="" />
    <EXPORT ORDINAL="776" NAME="?AddRef@DuiAccessible@DirectUI@@UEAAKXZ" PURGE="0" COMMENT="" />
    <EXPORT ORDINAL="777" NAME="?OnMessage@NativeHWNDHost@DirectUI@@UEAAJI_K_JPEA_J@Z" PURGE="0" COMMENT="" />
    <EXPORT ORDINAL="778" NAME="?AddRef@HWNDElementProvider@DirectUI@@UEAAKXZ" PURGE="0" COMMENT="" />
    <EXPORT ORDINAL="779" NAME="?AddRef@GridItemProvider@DirectUI@@UEAAKXZ" PURGE="0" COMMENT="" />
    <EXPORT ORDINAL="780" NAME="?AddRef@GridProvider@DirectUI@@UEAAKXZ" PURGE="0" COMMENT="" />
    <EXPORT ORDINAL="781" NAME="?AddRef@InvokeProvider@DirectUI@@UEAAKXZ" PURGE="0" COMMENT="" />
    <EXPORT ORDINAL="782" NAME="?AddRef@ElementProvider@DirectUI@@UEAAKXZ" PURGE="0" COMMENT="" />
    <EXPORT ORDINAL="783" NAME="?AddRef@RangeValueProvider@DirectUI@@UEAAKXZ" PURGE="0" COMMENT="" />
    <EXPORT ORDINAL="784" NAME="?AddRef@ScrollItemProvider@DirectUI@@UEAAKXZ" PURGE="0" COMMENT="" />
    <EXPORT ORDINAL="785" NAME="?AddRef@RefcountBase@DirectUI@@QEAAJXZ" PURGE="0" COMMENT="" />
    <EXPORT ORDINAL="786" NAME="?AddRef@ScrollProvider@DirectUI@@UEAAKXZ" PURGE="0" COMMENT="" />
    <EXPORT ORDINAL="787" NAME="?AddRef@SelectionItemProvider@DirectUI@@UEAAKXZ" PURGE="0" COMMENT="" />
    <EXPORT ORDINAL="788" NAME="?AddRef@SelectionProvider@DirectUI@@UEAAKXZ" PURGE="0" COMMENT="" />
    <EXPORT ORDINAL="789" NAME="?AddRef@TableItemProvider@DirectUI@@UEAAKXZ" PURGE="0" COMMENT="" />
    <EXPORT ORDINAL="790" NAME="?AddRef@TableProvider@DirectUI@@UEAAKXZ" PURGE="0" COMMENT="" />
    <EXPORT ORDINAL="791" NAME="?AddRef@ToggleProvider@DirectUI@@UEAAKXZ" PURGE="0" COMMENT="" />
    <EXPORT ORDINAL="792" NAME="?AddRef@ValueProvider@DirectUI@@UEAAKXZ" PURGE="0" COMMENT="" />
    <EXPORT ORDINAL="793" NAME="?AddRef@Value@DirectUI@@QEAAXXZ" PURGE="0" COMMENT="" />
    <EXPORT ORDINAL="794" NAME="?AddRef@ExpandCollapseProvider@DirectUI@@UEAAKXZ" PURGE="0" COMMENT="" />
    <EXPORT ORDINAL="795" NAME="?AddRef@XProvider@DirectUI@@UEAAKXZ" PURGE="0" COMMENT="" />
    <EXPORT ORDINAL="796" NAME="?AddRulesToStyleSheet@DUIXmlParser@DirectUI@@IEAAJPEAUIXmlReader@@PEAVStyleSheet@2@PEBGPEAV?$DynamicArray@UXMLParserCond@DirectUI@@$0A@@2@PEAV?$DynamicArray@PEAG$0A@@2@@Z" PURGE="0" COMMENT="" />
    <EXPORT ORDINAL="797" NAME="?AddString@CCListBox@DirectUI@@QEAAHPEBG@Z" PURGE="-1" COMMENT="" />
    <EXPORT ORDINAL="798" NAME="?AddString@Combobox@DirectUI@@QEAAHPEBG@Z" PURGE="0" COMMENT="" />
    <EXPORT ORDINAL="799" NAME="?AddToSelection@NavigatorSelectionItemProxy@DirectUI@@AEAAJPEAVBrowser@2@@Z" PURGE="0" COMMENT="" />
    <EXPORT ORDINAL="800" NAME="?AddToSelection@SelectionItemProvider@DirectUI@@UEAAJXZ" PURGE="0" COMMENT="" />
    <EXPORT ORDINAL="801" NAME="?AddToSelection@SelectorSelectionItemProxy@DirectUI@@AEAAJXZ" PURGE="0" COMMENT="" />
    <EXPORT ORDINAL="802" NAME="?AdvanceFrame@AnimationStrip@DirectUI@@IEAAXXZ" PURGE="0" COMMENT="" />
    <EXPORT ORDINAL="803" NAME="?AdvanceFrame@Movie@DirectUI@@SA?AVUID@@XZ" PURGE="0" COMMENT="" />
    <EXPORT ORDINAL="804" NAME="?AdviseEventAdded@ElementProvider@DirectUI@@UEAAJHPEAUtagSAFEARRAY@@@Z" PURGE="0" COMMENT="" />
    <EXPORT ORDINAL="805" NAME="?AdviseEventAdded@EventManager@DirectUI@@SAJHPEAUtagSAFEARRAY@@@Z" PURGE="0" COMMENT="" />
    <EXPORT ORDINAL="806" NAME="?AdviseEventRemoved@ElementProvider@DirectUI@@UEAAJHPEAUtagSAFEARRAY@@@Z" PURGE="0" COMMENT="" />
    <EXPORT ORDINAL="807" NAME="?AdviseEventRemoved@EventManager@DirectUI@@SAJHPEAUtagSAFEARRAY@@@Z" PURGE="0" COMMENT="" />
    <EXPORT ORDINAL="808" NAME="?AlphaProp@Element@DirectUI@@SAPEBUPropertyInfo@2@XZ" PURGE="0" COMMENT="" />
    <EXPORT ORDINAL="809" NAME="?AnimationChange@Element@DirectUI@@SA?AVUID@@XZ" PURGE="0" COMMENT="" />
    <EXPORT ORDINAL="810" NAME="?AnimationProp@Element@DirectUI@@SAPEBUPropertyInfo@2@XZ" PURGE="0" COMMENT="" />
    <EXPORT ORDINAL="811" NAME="?ApplySinkRegion@HWNDHost@DirectUI@@AEAAXPEBUtagRECT@@_N@Z" PURGE="0" COMMENT="" />
    <EXPORT ORDINAL="812" NAME="?Arrow@Expando@DirectUI@@KAGXZ" PURGE="0" COMMENT="" />
    <EXPORT ORDINAL="813" NAME="?DestroyCP@TaskPage@DirectUI@@EEAAXXZ" PURGE="0" COMMENT="" />
    <EXPORT ORDINAL="814" NAME="?AsyncContentLoadedEvent@Schema@DirectUI@@2HA" PURGE="-1" COMMENT="" />
    <EXPORT ORDINAL="815" NAME="?AsyncDestroyMsg@NativeHWNDHost@DirectUI@@SAIXZ" PURGE="0" COMMENT="" />
    <EXPORT ORDINAL="816" NAME="?Attach@Layout@DirectUI@@UEAAXPEAVElement@2@@Z" PURGE="0" COMMENT="" />
    <EXPORT ORDINAL="817" NAME="?AttachCtrlSubclassProc@HWNDHost@DirectUI@@KAXPEAUHWND__@@@Z" PURGE="-1" COMMENT="" />
    <EXPORT ORDINAL="818" NAME="?AutoGroupingProp@CCRadioButton@DirectUI@@SAPEBUPropertyInfo@2@XZ" PURGE="0" COMMENT="" />
    <EXPORT ORDINAL="819" NAME="?AutoStartProp@Movie@DirectUI@@SAPEBUPropertyInfo@2@XZ" PURGE="0" COMMENT="" />
    <EXPORT ORDINAL="820" NAME="?AutoStopProp@Movie@DirectUI@@SAPEBUPropertyInfo@2@XZ" PURGE="0" COMMENT="" />
    <EXPORT ORDINAL="821" NAME="?AutomationFocusChangedEvent@Schema@DirectUI@@2HA" PURGE="-1" COMMENT="" />
    <EXPORT ORDINAL="822" NAME="?AutomationIdProperty@Schema@DirectUI@@2HA" PURGE="-1" COMMENT="" />
    <EXPORT ORDINAL="823" NAME="?AutomationPropertyChangedEvent@Schema@DirectUI@@2HA" PURGE="-1" COMMENT="" />
    <EXPORT ORDINAL="824" NAME="?BackgroundOwnerIDProp@HWNDHost@DirectUI@@SAPEBUPropertyInfo@2@XZ" PURGE="0" COMMENT="" />
    <EXPORT ORDINAL="825" NAME="?BackgroundProp@Element@DirectUI@@SAPEBUPropertyInfo@2@XZ" PURGE="0" COMMENT="" />
    <EXPORT ORDINAL="826" NAME="?BorderColorProp@Element@DirectUI@@SAPEBUPropertyInfo@2@XZ" PURGE="0" COMMENT="" />
    <EXPORT ORDINAL="827" NAME="?BorderStyleProp@Element@DirectUI@@SAPEBUPropertyInfo@2@XZ" PURGE="0" COMMENT="" />
    <EXPORT ORDINAL="828" NAME="?BorderThicknessProp@Element@DirectUI@@SAPEBUPropertyInfo@2@XZ" PURGE="0" COMMENT="" />
    <EXPORT ORDINAL="829" NAME="?BoundingRectangleProperty@Schema@DirectUI@@2HA" PURGE="-1" COMMENT="" />
    <EXPORT ORDINAL="830" NAME="?BroadcastEvent@Element@DirectUI@@QEAAXPEAUEvent@2@@Z" PURGE="0" COMMENT="" />
    <EXPORT ORDINAL="831" NAME="?BuildCacheInfo@FlowLayout@DirectUI@@IEAA?AUtagSIZE@@PEAVElement@2@HHPEAVSurface@2@_N@Z" PURGE="0" COMMENT="" />
    <EXPORT ORDINAL="832" NAME="?BuildCacheInfo@VerticalFlowLayout@DirectUI@@IEAA?AUtagSIZE@@PEAVElement@2@HHPEAVSurface@2@_N@Z" PURGE="0" COMMENT="" />
    <EXPORT ORDINAL="833" NAME="?BuildElement@Macro@DirectUI@@MEAAJXZ" PURGE="0" COMMENT="" />
    <EXPORT ORDINAL="834" NAME="?BuildElement@Repeater@DirectUI@@MEAAJXZ" PURGE="0" COMMENT="" />
    <EXPORT ORDINAL="835" NAME="?ButtonClassAcceptsEnterKeyProp@DialogElement@DirectUI@@SAPEBUPropertyInfo@2@XZ" PURGE="0" COMMENT="" />
    <EXPORT ORDINAL="836" NAME="?ButtonControlType@Schema@DirectUI@@2HA" PURGE="-1" COMMENT="" />
    <EXPORT ORDINAL="837" NAME="?CacheParser@XBaby@DirectUI@@QEAAXPEAVDUIXmlParser@2@@Z" PURGE="0" COMMENT="" />
    <EXPORT ORDINAL="838" NAME="?CalendarControlType@Schema@DirectUI@@2HA" PURGE="-1" COMMENT="" />
    <EXPORT ORDINAL="839" NAME="?GetProportional@CCBaseScrollBar@DirectUI@@UEAA_NXZ" PURGE="0" COMMENT="" />
    <EXPORT ORDINAL="840" NAME="?CanSetFocus@XBaby@DirectUI@@UEAA_NXZ" PURGE="0" COMMENT="" />
    <EXPORT ORDINAL="841" NAME="?CanSetFocus@XProvider@DirectUI@@UEAAJPEA_N@Z" PURGE="0" COMMENT="" />
    <EXPORT ORDINAL="842" NAME="?CaptureCallstackFrames@CallstackTracker@DirectUI@@QEAAHXZ" PURGE="0" COMMENT="" />
    <EXPORT ORDINAL="843" NAME="?CapturedProp@Button@DirectUI@@SAPEBUPropertyInfo@2@XZ" PURGE="0" COMMENT="" />
    <EXPORT ORDINAL="844" NAME="?CheckBoxControlType@Schema@DirectUI@@2HA" PURGE="-1" COMMENT="" />
    <EXPORT ORDINAL="845" NAME="?CheckScroll@BaseScrollViewer@DirectUI@@AEAAXPEAVBaseScrollBar@2@HHH@Z" PURGE="0" COMMENT="" />
    <EXPORT ORDINAL="846" NAME="?ChildrenProp@Element@DirectUI@@SAPEBUPropertyInfo@2@XZ" PURGE="0" COMMENT="" />
    <EXPORT ORDINAL="847" NAME="?ClassExist@ClassInfoBase@DirectUI@@SA_NPEAPEAUIClassInfo@2@PEBQEBUPropertyInfo@2@IPEAU32@PEAUHINSTANCE__@@PEBG_N@Z" PURGE="0" COMMENT="" />
    <EXPORT ORDINAL="848" NAME="?ClassNameProperty@Schema@DirectUI@@2HA" PURGE="-1" COMMENT="" />
    <EXPORT ORDINAL="849" NAME="?ClassProp@Element@DirectUI@@SAPEBUPropertyInfo@2@XZ" PURGE="0" COMMENT="" />
    <EXPORT ORDINAL="850" NAME="?ClearCacheDirty@Layout@DirectUI@@IEAAXXZ" PURGE="0" COMMENT="" />
    <EXPORT ORDINAL="851" NAME="?ClearParser@DUIFactory@DirectUI@@AEAAXXZ" PURGE="0" COMMENT="" />
    <EXPORT ORDINAL="852" NAME="?Click@Button@DirectUI@@SA?AVUID@@XZ" PURGE="0" COMMENT="" />
    <EXPORT ORDINAL="853" NAME="?ClickDefaultButton@DialogElement@DirectUI@@UEAA_NXZ" PURGE="0" COMMENT="" />
    <EXPORT ORDINAL="854" NAME="?ClickDefaultButton@XProvider@DirectUI@@UEAAHXZ" PURGE="0" COMMENT="" />
    <EXPORT ORDINAL="855" NAME="?ClickablePointProperty@Schema@DirectUI@@2HA" PURGE="-1" COMMENT="" />
    <EXPORT ORDINAL="856" NAME="?Clipper@Expando@DirectUI@@KAGXZ" PURGE="0" COMMENT="" />
    <EXPORT ORDINAL="857" NAME="?ContextSensitiveHelp@DuiAccessible@DirectUI@@UEAAJH@Z" PURGE="0" COMMENT="" />
    <EXPORT ORDINAL="858" NAME="?Clone@HWNDHostAccessible@DirectUI@@UEAAJPEAPEAUIEnumVARIANT@@@Z" PURGE="0" COMMENT="" />
    <EXPORT ORDINAL="859" NAME="?Close@ElementProviderManager@DirectUI@@SAXXZ" PURGE="0" COMMENT="" />
    <EXPORT ORDINAL="860" NAME="?Close@EventManager@DirectUI@@SAXXZ" PURGE="0" COMMENT="" />
    <EXPORT ORDINAL="861" NAME="?Close@InvokeManager@DirectUI@@SAXXZ" PURGE="0" COMMENT="" />
    <EXPORT ORDINAL="862" NAME="?CloseThread@InvokeManager@DirectUI@@SAXXZ" PURGE="-1" COMMENT="" />
    <EXPORT ORDINAL="863" NAME="?Collapse@ExpandCollapseProvider@DirectUI@@UEAAJXZ" PURGE="0" COMMENT="" />
    <EXPORT ORDINAL="864" NAME="?ComboBoxControlType@Schema@DirectUI@@2HA" PURGE="-1" COMMENT="" />
    <EXPORT ORDINAL="865" NAME="?CompositedTextProp@Element@DirectUI@@SAPEBUPropertyInfo@2@XZ" PURGE="0" COMMENT="" />
    <EXPORT ORDINAL="866" NAME="?CompositingQualityProp@Movie@DirectUI@@SAPEBUPropertyInfo@2@XZ" PURGE="0" COMMENT="" />
    <EXPORT ORDINAL="867" NAME="?CompositionChange@HWNDElement@DirectUI@@SA?AVUID@@XZ" PURGE="0" COMMENT="" />
    <EXPORT ORDINAL="868" NAME="?ConnectProp@Bind@DirectUI@@SAPEBUPropertyInfo@2@XZ" PURGE="0" COMMENT="" />
    <EXPORT ORDINAL="869" NAME="?ContentAlignProp@Element@DirectUI@@SAPEBUPropertyInfo@2@XZ" PURGE="0" COMMENT="" />
    <EXPORT ORDINAL="870" NAME="?ContentProp@Element@DirectUI@@SAPEBUPropertyInfo@2@XZ" PURGE="0" COMMENT="" />
    <EXPORT ORDINAL="871" NAME="?Context@Button@DirectUI@@SA?AVUID@@XZ" PURGE="0" COMMENT="" />
    <EXPORT ORDINAL="872" NAME="?Create@XBaby@DirectUI@@SAJPEAVElement@2@PEAKPEAPEAV32@@Z" PURGE="0" COMMENT="" />
    <EXPORT ORDINAL="873" NAME="?ContextSensitiveHelp@HWNDHostAccessible@DirectUI@@UEAAJH@Z" PURGE="0" COMMENT="" />
    <EXPORT ORDINAL="874" NAME="?ControlTypeProperty@Schema@DirectUI@@2HA" PURGE="-1" COMMENT="" />
    <EXPORT ORDINAL="875" NAME="?GetInt@Value@DirectUI@@QEAAHXZ" PURGE="0" COMMENT="" />
    <EXPORT ORDINAL="876" NAME="?Create@?$PatternProvider@VExpandCollapseProvider@DirectUI@@UIExpandCollapseProvider@@$00@DirectUI@@SAJPEAVElementProvider@2@PEAPEAUIUnknown@@@Z" PURGE="0" COMMENT="" />
    <EXPORT ORDINAL="877" NAME="?Create@?$PatternProvider@VGridItemProvider@DirectUI@@UIGridItemProvider@@$01@DirectUI@@SAJPEAVElementProvider@2@PEAPEAUIUnknown@@@Z" PURGE="0" COMMENT="" />
    <EXPORT ORDINAL="878" NAME="?Create@?$PatternProvider@VGridProvider@DirectUI@@UIGridProvider@@$02@DirectUI@@SAJPEAVElementProvider@2@PEAPEAUIUnknown@@@Z" PURGE="0" COMMENT="" />
    <EXPORT ORDINAL="879" NAME="?Create@?$PatternProvider@VInvokeProvider@DirectUI@@UIInvokeProvider@@$0A@@DirectUI@@SAJPEAVElementProvider@2@PEAPEAUIUnknown@@@Z" PURGE="0" COMMENT="" />
    <EXPORT ORDINAL="880" NAME="?Create@?$PatternProvider@VRangeValueProvider@DirectUI@@UIRangeValueProvider@@$03@DirectUI@@SAJPEAVElementProvider@2@PEAPEAUIUnknown@@@Z" PURGE="0" COMMENT="" />
    <EXPORT ORDINAL="881" NAME="?Create@?$PatternProvider@VScrollItemProvider@DirectUI@@UIScrollItemProvider@@$05@DirectUI@@SAJPEAVElementProvider@2@PEAPEAUIUnknown@@@Z" PURGE="0" COMMENT="" />
    <EXPORT ORDINAL="882" NAME="?Create@?$PatternProvider@VScrollProvider@DirectUI@@UIScrollProvider@@$04@DirectUI@@SAJPEAVElementProvider@2@PEAPEAUIUnknown@@@Z" PURGE="0" COMMENT="" />
    <EXPORT ORDINAL="883" NAME="?Create@?$PatternProvider@VSelectionItemProvider@DirectUI@@UISelectionItemProvider@@$06@DirectUI@@SAJPEAVElementProvider@2@PEAPEAUIUnknown@@@Z" PURGE="0" COMMENT="" />
    <EXPORT ORDINAL="884" NAME="?Create@?$PatternProvider@VSelectionProvider@DirectUI@@UISelectionProvider@@$07@DirectUI@@SAJPEAVElementProvider@2@PEAPEAUIUnknown@@@Z" PURGE="0" COMMENT="" />
    <EXPORT ORDINAL="885" NAME="?Create@?$PatternProvider@VTableItemProvider@DirectUI@@UITableItemProvider@@$09@DirectUI@@SAJPEAVElementProvider@2@PEAPEAUIUnknown@@@Z" PURGE="0" COMMENT="" />
    <EXPORT ORDINAL="886" NAME="?Create@?$PatternProvider@VTableProvider@DirectUI@@UITableProvider@@$08@DirectUI@@SAJPEAVElementProvider@2@PEAPEAUIUnknown@@@Z" PURGE="0" COMMENT="" />
    <EXPORT ORDINAL="887" NAME="?Create@?$PatternProvider@VToggleProvider@DirectUI@@UIToggleProvider@@$0L@@DirectUI@@SAJPEAVElementProvider@2@PEAPEAUIUnknown@@@Z" PURGE="0" COMMENT="" />
    <EXPORT ORDINAL="888" NAME="?Create@?$PatternProvider@VValueProvider@DirectUI@@UIValueProvider@@$0M@@DirectUI@@SAJPEAVElementProvider@2@PEAPEAUIUnknown@@@Z" PURGE="0" COMMENT="" />
    <EXPORT ORDINAL="889" NAME="?Create@AccessibleButton@DirectUI@@SAJPEAVElement@2@PEAKPEAPEAV32@@Z" PURGE="0" COMMENT="" />
    <EXPORT ORDINAL="890" NAME="?Create@AnimationStrip@DirectUI@@SAJPEAVElement@2@PEAKPEAPEAV32@@Z" PURGE="0" COMMENT="" />
    <EXPORT ORDINAL="891" NAME="?Create@AutoButton@DirectUI@@SAJPEAVElement@2@PEAKPEAPEAV32@@Z" PURGE="0" COMMENT="" />
    <EXPORT ORDINAL="892" NAME="?Create@Bind@DirectUI@@SAJPEAVElement@2@PEAKPEAPEAV32@@Z" PURGE="0" COMMENT="" />
    <EXPORT ORDINAL="893" NAME="?Create@BorderLayout@DirectUI@@SAJHPEAHPEAPEAVValue@2@@Z" PURGE="0" COMMENT="" />
    <EXPORT ORDINAL="894" NAME="?Create@BorderLayout@DirectUI@@SAJPEAPEAVLayout@2@@Z" PURGE="0" COMMENT="" />
    <EXPORT ORDINAL="895" NAME="?Create@Browser@DirectUI@@SAJPEAVElement@2@PEAKPEAPEAV32@@Z" PURGE="0" COMMENT="" />
    <EXPORT ORDINAL="896" NAME="?Create@Button@DirectUI@@SAJIPEAVElement@2@PEAKPEAPEAV32@@Z" PURGE="0" COMMENT="" />
    <EXPORT ORDINAL="897" NAME="?Create@Button@DirectUI@@SAJPEAVElement@2@PEAKPEAPEAV32@@Z" PURGE="0" COMMENT="" />
    <EXPORT ORDINAL="898" NAME="?Create@CCAVI@DirectUI@@SAJIPEAVElement@2@PEAKPEAPEAV32@@Z" PURGE="0" COMMENT="" />
    <EXPORT ORDINAL="899" NAME="?Create@CCAVI@DirectUI@@SAJPEAVElement@2@PEAKPEAPEAV32@@Z" PURGE="0" COMMENT="" />
    <EXPORT ORDINAL="900" NAME="?Create@CCBase@DirectUI@@SAJIPEAVElement@2@PEAKPEAPEAV32@@Z" PURGE="0" COMMENT="" />
    <EXPORT ORDINAL="901" NAME="?Create@CCBase@DirectUI@@SAJPEAVElement@2@PEAKPEAPEAV32@@Z" PURGE="0" COMMENT="" />
    <EXPORT ORDINAL="902" NAME="?Create@CCCheckBox@DirectUI@@SAJIPEAVElement@2@PEAKPEAPEAV32@@Z" PURGE="0" COMMENT="" />
    <EXPORT ORDINAL="903" NAME="?Create@CCCheckBox@DirectUI@@SAJPEAVElement@2@PEAKPEAPEAV32@@Z" PURGE="0" COMMENT="" />
    <EXPORT ORDINAL="904" NAME="?Create@CCCommandLink@DirectUI@@SAJIPEAVElement@2@PEAKPEAPEAV32@@Z" PURGE="0" COMMENT="" />
    <EXPORT ORDINAL="905" NAME="?Create@CCCommandLink@DirectUI@@SAJPEAVElement@2@PEAKPEAPEAV32@@Z" PURGE="0" COMMENT="" />
    <EXPORT ORDINAL="906" NAME="?Create@CCHScrollBar@DirectUI@@SAJIPEAVElement@2@PEAKPEAPEAV32@@Z" PURGE="0" COMMENT="" />
    <EXPORT ORDINAL="907" NAME="?Create@CCHScrollBar@DirectUI@@SAJPEAVElement@2@PEAKPEAPEAV32@@Z" PURGE="0" COMMENT="" />
    <EXPORT ORDINAL="908" NAME="?Create@CCListBox@DirectUI@@SAJIPEAVElement@2@PEAKPEAPEAV32@@Z" PURGE="0" COMMENT="" />
    <EXPORT ORDINAL="909" NAME="?Create@CCListBox@DirectUI@@SAJPEAVElement@2@PEAKPEAPEAV32@@Z" PURGE="0" COMMENT="" />
    <EXPORT ORDINAL="910" NAME="?Create@CCListView@DirectUI@@SAJIPEAVElement@2@PEAKPEAPEAV32@@Z" PURGE="0" COMMENT="" />
    <EXPORT ORDINAL="911" NAME="?Create@CCListView@DirectUI@@SAJPEAVElement@2@PEAKPEAPEAV32@@Z" PURGE="0" COMMENT="" />
    <EXPORT ORDINAL="912" NAME="?Create@CCProgressBar@DirectUI@@SAJIPEAVElement@2@PEAKPEAPEAV32@@Z" PURGE="0" COMMENT="" />
    <EXPORT ORDINAL="913" NAME="?Create@CCProgressBar@DirectUI@@SAJPEAVElement@2@PEAKPEAPEAV32@@Z" PURGE="0" COMMENT="" />
    <EXPORT ORDINAL="914" NAME="?Create@CCPushButton@DirectUI@@SAJIPEAVElement@2@PEAKPEAPEAV32@@Z" PURGE="0" COMMENT="" />
    <EXPORT ORDINAL="915" NAME="?Create@CCPushButton@DirectUI@@SAJPEAVElement@2@PEAKPEAPEAV32@@Z" PURGE="0" COMMENT="" />
    <EXPORT ORDINAL="916" NAME="?Create@CCRadioButton@DirectUI@@SAJIPEAVElement@2@PEAKPEAPEAV32@@Z" PURGE="0" COMMENT="" />
    <EXPORT ORDINAL="917" NAME="?Create@CCRadioButton@DirectUI@@SAJPEAVElement@2@PEAKPEAPEAV32@@Z" PURGE="0" COMMENT="" />
    <EXPORT ORDINAL="918" NAME="?Create@CCSysLink@DirectUI@@SAJIPEAVElement@2@PEAKPEAPEAV32@@Z" PURGE="0" COMMENT="" />
    <EXPORT ORDINAL="919" NAME="?Create@CCSysLink@DirectUI@@SAJPEAVElement@2@PEAKPEAPEAV32@@Z" PURGE="0" COMMENT="" />
    <EXPORT ORDINAL="920" NAME="?Create@CCTrackBar@DirectUI@@SAJIPEAVElement@2@PEAKPEAPEAV32@@Z" PURGE="0" COMMENT="" />
    <EXPORT ORDINAL="921" NAME="?Create@CCTrackBar@DirectUI@@SAJPEAVElement@2@PEAKPEAPEAV32@@Z" PURGE="0" COMMENT="" />
    <EXPORT ORDINAL="922" NAME="?Create@CCTreeView@DirectUI@@SAJIPEAVElement@2@PEAKPEAPEAV32@@Z" PURGE="0" COMMENT="" />
    <EXPORT ORDINAL="923" NAME="?Create@CCTreeView@DirectUI@@SAJPEAVElement@2@PEAKPEAPEAV32@@Z" PURGE="0" COMMENT="" />
    <EXPORT ORDINAL="924" NAME="?Create@CCVScrollBar@DirectUI@@SAJIPEAVElement@2@PEAKPEAPEAV32@@Z" PURGE="0" COMMENT="" />
    <EXPORT ORDINAL="925" NAME="?Create@CCVScrollBar@DirectUI@@SAJPEAVElement@2@PEAKPEAPEAV32@@Z" PURGE="0" COMMENT="" />
    <EXPORT ORDINAL="926" NAME="?Create@CheckBoxGlyph@DirectUI@@SAJIPEAVElement@2@PEAKPEAPEAV32@@Z" PURGE="0" COMMENT="" />
    <EXPORT ORDINAL="927" NAME="?Create@CheckBoxGlyph@DirectUI@@SAJPEAVElement@2@PEAKPEAPEAV32@@Z" PURGE="0" COMMENT="" />
    <EXPORT ORDINAL="928" NAME="?Create@Clipper@DirectUI@@SAJPEAVElement@2@PEAKPEAPEAV32@@Z" PURGE="0" COMMENT="" />
    <EXPORT ORDINAL="929" NAME="?Create@Combobox@DirectUI@@SAJIPEAVElement@2@PEAKPEAPEAV32@@Z" PURGE="0" COMMENT="" />
    <EXPORT ORDINAL="930" NAME="?Create@Combobox@DirectUI@@SAJPEAVElement@2@PEAKPEAPEAV32@@Z" PURGE="0" COMMENT="" />
    <EXPORT ORDINAL="931" NAME="?Create@DUIXmlParser@DirectUI@@SAJPEAPEAV12@P6APEAVValue@2@PEBGPEAX@Z2P6AX11H2@Z2@Z" PURGE="0" COMMENT="" />
    <EXPORT ORDINAL="932" NAME="?Create@DialogElement@DirectUI@@SAJPEAUHWND__@@_NIPEAVElement@2@PEAKPEAPEAV42@@Z" PURGE="0" COMMENT="" />
    <EXPORT ORDINAL="933" NAME="?Create@DuiAccessible@DirectUI@@SAJPEAVElement@2@PEAPEAV12@@Z" PURGE="0" COMMENT="" />
    <EXPORT ORDINAL="934" NAME="?Create@Edit@DirectUI@@SAJIPEAVElement@2@PEAKPEAPEAV32@@Z" PURGE="0" COMMENT="" />
    <EXPORT ORDINAL="935" NAME="?Create@Edit@DirectUI@@SAJPEAVElement@2@PEAKPEAPEAV32@@Z" PURGE="0" COMMENT="" />
    <EXPORT ORDINAL="936" NAME="?Create@Element@DirectUI@@SAJIPEAV12@PEAKPEAPEAV12@@Z" PURGE="0" COMMENT="" />
    <EXPORT ORDINAL="937" NAME="?Create@ElementProvider@DirectUI@@SAJPEAVElement@2@PEAVInvokeHelper@2@PEAPEAV12@@Z" PURGE="0" COMMENT="" />
    <EXPORT ORDINAL="938" NAME="?Create@ElementProxy@DirectUI@@SAPEAV12@PEAVElement@2@@Z" PURGE="0" COMMENT="" />
    <EXPORT ORDINAL="939" NAME="?Create@ElementWithHWND@DirectUI@@SAJPEAVElement@2@PEAKPEAPEAV32@@Z" PURGE="0" COMMENT="" />
    <EXPORT ORDINAL="940" NAME="?Create@ExpandCollapseProxy@DirectUI@@SAPEAV12@PEAVElement@2@@Z" PURGE="0" COMMENT="" />
    <EXPORT ORDINAL="941" NAME="?Create@Expandable@DirectUI@@SAJPEAVElement@2@PEAKPEAPEAV32@@Z" PURGE="0" COMMENT="" />
    <EXPORT ORDINAL="942" NAME="?Create@Expando@DirectUI@@SAJPEAVElement@2@PEAKPEAPEAV32@@Z" PURGE="0" COMMENT="" />
    <EXPORT ORDINAL="943" NAME="?Create@ExpandoButtonGlyph@DirectUI@@SAJIPEAVElement@2@PEAKPEAPEAV32@@Z" PURGE="0" COMMENT="" />
    <EXPORT ORDINAL="944" NAME="?Create@ExpandoButtonGlyph@DirectUI@@SAJPEAVElement@2@PEAKPEAPEAV32@@Z" PURGE="0" COMMENT="" />
    <EXPORT ORDINAL="945" NAME="?Create@FillLayout@DirectUI@@SAJHPEAHPEAPEAVValue@2@@Z" PURGE="0" COMMENT="" />
    <EXPORT ORDINAL="946" NAME="?Create@FillLayout@DirectUI@@SAJPEAPEAVLayout@2@@Z" PURGE="0" COMMENT="" />
    <EXPORT ORDINAL="947" NAME="?Create@FlowLayout@DirectUI@@SAJHPEAHPEAPEAVValue@2@@Z" PURGE="0" COMMENT="" />
    <EXPORT ORDINAL="948" NAME="?Create@FlowLayout@DirectUI@@SAJ_NIIIPEAPEAVLayout@2@@Z" PURGE="0" COMMENT="" />
    <EXPORT ORDINAL="949" NAME="?Create@GridItemProxy@DirectUI@@SAPEAV12@PEAVElement@2@@Z" PURGE="0" COMMENT="" />
    <EXPORT ORDINAL="950" NAME="?Create@GridLayout@DirectUI@@SAJHHPEAPEAVLayout@2@@Z" PURGE="0" COMMENT="" />
    <EXPORT ORDINAL="951" NAME="?Create@GridLayout@DirectUI@@SAJHPEAHPEAPEAVValue@2@@Z" PURGE="0" COMMENT="" />
    <EXPORT ORDINAL="952" NAME="?Create@GridProxy@DirectUI@@SAPEAV12@PEAVElement@2@@Z" PURGE="0" COMMENT="" />
    <EXPORT ORDINAL="953" NAME="?Create@HWNDElement@DirectUI@@SAJPEAUHWND__@@_NIPEAVElement@2@PEAKPEAPEAV42@@Z" PURGE="0" COMMENT="" />
    <EXPORT ORDINAL="954" NAME="?Create@HWNDElementAccessible@DirectUI@@SAJPEAVHWNDElement@2@PEAPEAVDuiAccessible@2@@Z" PURGE="0" COMMENT="" />
    <EXPORT ORDINAL="955" NAME="?Create@HWNDElementProvider@DirectUI@@SAJPEAVHWNDElement@2@PEAVInvokeHelper@2@PEAPEAV12@@Z" PURGE="0" COMMENT="" />
    <EXPORT ORDINAL="956" NAME="?Create@HWNDElementProxy@DirectUI@@SAPEAV12@PEAVHWNDElement@2@@Z" PURGE="0" COMMENT="" />
    <EXPORT ORDINAL="957" NAME="?Create@HWNDHost@DirectUI@@SAJIIPEAVElement@2@PEAKPEAPEAV32@@Z" PURGE="0" COMMENT="" />
    <EXPORT ORDINAL="958" NAME="?Create@HWNDHost@DirectUI@@SAJPEAVElement@2@PEAKPEAPEAV32@@Z" PURGE="0" COMMENT="" />
    <EXPORT ORDINAL="959" NAME="?Create@HWNDHostAccessible@DirectUI@@SAJPEAVElement@2@PEAUIAccessible@@PEAPEAVDuiAccessible@2@@Z" PURGE="0" COMMENT="" />
    <EXPORT ORDINAL="960" NAME="?Create@HWNDHostClientAccessible@DirectUI@@SAJPEAVElement@2@PEAUIAccessible@@PEAPEAVDuiAccessible@2@@Z" PURGE="0" COMMENT="" />
    <EXPORT ORDINAL="961" NAME="?Create@InvokeProxy@DirectUI@@SAPEAV12@PEAVElement@2@@Z" PURGE="0" COMMENT="" />
    <EXPORT ORDINAL="962" NAME="?Create@Layout@DirectUI@@SAJPEAPEAV12@@Z" PURGE="0" COMMENT="" />
    <EXPORT ORDINAL="963" NAME="?Create@Macro@DirectUI@@SAJPEAVElement@2@PEAKPEAPEAV32@@Z" PURGE="0" COMMENT="" />
    <EXPORT ORDINAL="964" NAME="?Create@Movie@DirectUI@@SAJIPEAVElement@2@PEAKPEAPEAV32@@Z" PURGE="0" COMMENT="" />
    <EXPORT ORDINAL="965" NAME="?Create@Movie@DirectUI@@SAJPEAVElement@2@PEAKPEAPEAV32@@Z" PURGE="0" COMMENT="" />
    <EXPORT ORDINAL="966" NAME="?Create@NativeHWNDHost@DirectUI@@SAJPEBG0PEAUHWND__@@PEAUHICON__@@HHHHHHPEAUHINSTANCE__@@IPEAPEAV12@@Z" PURGE="0" COMMENT="" />
    <EXPORT ORDINAL="967" NAME="?Create@NativeHWNDHost@DirectUI@@SAJPEBGPEAUHWND__@@PEAUHICON__@@HHHHHHIPEAPEAV12@@Z" PURGE="0" COMMENT="" />
    <EXPORT ORDINAL="968" NAME="?Create@Navigator@DirectUI@@SAJPEAVElement@2@PEAKPEAPEAV32@@Z" PURGE="0" COMMENT="" />
    <EXPORT ORDINAL="969" NAME="?Create@NineGridLayout@DirectUI@@SAJHPEAHPEAPEAVValue@2@@Z" PURGE="0" COMMENT="" />
    <EXPORT ORDINAL="970" NAME="?Create@NineGridLayout@DirectUI@@SAJPEAPEAVLayout@2@@Z" PURGE="0" COMMENT="" />
    <EXPORT ORDINAL="971" NAME="?Create@PText@DirectUI@@SAJPEAVElement@2@PEAKPEAPEAV32@@Z" PURGE="0" COMMENT="" />
    <EXPORT ORDINAL="972" NAME="?Create@Page@DirectUI@@SAJPEAVElement@2@PEAKPEAPEAV32@@Z" PURGE="0" COMMENT="" />
    <EXPORT ORDINAL="973" NAME="?Create@Pages@DirectUI@@SAJPEAVElement@2@PEAKPEAPEAV32@@Z" PURGE="0" COMMENT="" />
    <EXPORT ORDINAL="974" NAME="?Create@Progress@DirectUI@@SAJPEAVElement@2@PEAKPEAPEAV32@@Z" PURGE="0" COMMENT="" />
    <EXPORT ORDINAL="975" NAME="?Create@PushButton@DirectUI@@SAJPEAVElement@2@PEAKPEAPEAV32@@Z" PURGE="0" COMMENT="" />
    <EXPORT ORDINAL="976" NAME="?Create@RadioButtonGlyph@DirectUI@@SAJIPEAVElement@2@PEAKPEAPEAV32@@Z" PURGE="0" COMMENT="" />
    <EXPORT ORDINAL="977" NAME="?Create@RadioButtonGlyph@DirectUI@@SAJPEAVElement@2@PEAKPEAPEAV32@@Z" PURGE="0" COMMENT="" />
    <EXPORT ORDINAL="978" NAME="?Create@RangeValueProxy@DirectUI@@SAPEAV12@PEAVElement@2@@Z" PURGE="0" COMMENT="" />
    <EXPORT ORDINAL="979" NAME="?Create@RefPointElement@DirectUI@@SAJIPEAVElement@2@PEAKPEAPEAV32@@Z" PURGE="0" COMMENT="" />
    <EXPORT ORDINAL="980" NAME="?Create@RefPointElement@DirectUI@@SAJPEAVElement@2@PEAKPEAPEAV32@@Z" PURGE="0" COMMENT="" />
    <EXPORT ORDINAL="981" NAME="?Create@RepeatButton@DirectUI@@SAJIPEAVElement@2@PEAKPEAPEAV32@@Z" PURGE="0" COMMENT="" />
    <EXPORT ORDINAL="982" NAME="?Create@RepeatButton@DirectUI@@SAJPEAVElement@2@PEAKPEAPEAV32@@Z" PURGE="0" COMMENT="" />
    <EXPORT ORDINAL="983" NAME="?Create@Repeater@DirectUI@@SAJPEAVElement@2@PEAKPEAPEAV32@@Z" PURGE="0" COMMENT="" />
    <EXPORT ORDINAL="984" NAME="?Create@RowLayout@DirectUI@@SAJHIIPEAPEAVLayout@2@@Z" PURGE="0" COMMENT="" />
    <EXPORT ORDINAL="985" NAME="?Create@RowLayout@DirectUI@@SAJHPEAHPEAPEAVValue@2@@Z" PURGE="0" COMMENT="" />
    <EXPORT ORDINAL="986" NAME="?Create@RowLayout@DirectUI@@SAJIIPEAPEAVLayout@2@@Z" PURGE="0" COMMENT="" />
    <EXPORT ORDINAL="987" NAME="?Create@ScrollBar@DirectUI@@SAJPEAVElement@2@PEAKPEAPEAV32@@Z" PURGE="0" COMMENT="" />
    <EXPORT ORDINAL="988" NAME="?Create@ScrollBar@DirectUI@@SAJ_NPEAVElement@2@PEAKPEAPEAV32@@Z" PURGE="0" COMMENT="" />
    <EXPORT ORDINAL="989" NAME="?Create@ScrollItemProxy@DirectUI@@SAPEAV12@PEAVElement@2@@Z" PURGE="0" COMMENT="" />
    <EXPORT ORDINAL="990" NAME="?Create@ScrollProxy@DirectUI@@SAPEAV12@PEAVElement@2@@Z" PURGE="0" COMMENT="" />
    <EXPORT ORDINAL="991" NAME="?Create@ScrollViewer@DirectUI@@SAJPEAVElement@2@PEAKPEAPEAV32@@Z" PURGE="0" COMMENT="" />
    <EXPORT ORDINAL="992" NAME="?Create@SelectionItemProxy@DirectUI@@SAPEAV12@PEAVElement@2@@Z" PURGE="0" COMMENT="" />
    <EXPORT ORDINAL="993" NAME="?Create@SelectionProxy@DirectUI@@SAPEAV12@PEAVElement@2@@Z" PURGE="0" COMMENT="" />
    <EXPORT ORDINAL="994" NAME="?Create@Selector@DirectUI@@SAJPEAVElement@2@PEAKPEAPEAV32@@Z" PURGE="0" COMMENT="" />
    <EXPORT ORDINAL="995" NAME="?Create@SelectorNoDefault@DirectUI@@SAJPEAVElement@2@PEAKPEAPEAV32@@Z" PURGE="0" COMMENT="" />
    <EXPORT ORDINAL="996" NAME="?Create@ShellBorderLayout@DirectUI@@SAJHPEAHPEAPEAVValue@2@@Z" PURGE="0" COMMENT="" />
    <EXPORT ORDINAL="997" NAME="?Create@ShellBorderLayout@DirectUI@@SAJPEAPEAVLayout@2@@Z" PURGE="0" COMMENT="" />
    <EXPORT ORDINAL="998" NAME="?Create@StyleSheet@DirectUI@@SAJPEAPEAV12@@Z" PURGE="0" COMMENT="" />
    <EXPORT ORDINAL="999" NAME="?Create@StyledScrollViewer@DirectUI@@SAJPEAVElement@2@PEAKPEAPEAV32@@Z" PURGE="0" COMMENT="" />
    <EXPORT ORDINAL="1000" NAME="?Create@TableItemProxy@DirectUI@@SAPEAV12@PEAVElement@2@@Z" PURGE="0" COMMENT="" />
    <EXPORT ORDINAL="1001" NAME="?Create@TableLayout@DirectUI@@SAJHPEAHPEAPEAVValue@2@@Z" PURGE="0" COMMENT="" />
    <EXPORT ORDINAL="1002" NAME="?Create@TableProxy@DirectUI@@SAPEAV12@PEAVElement@2@@Z" PURGE="0" COMMENT="" />
    <EXPORT ORDINAL="1003" NAME="?Create@TextGraphic@DirectUI@@SAJPEAVElement@2@PEAKPEAPEAV32@@Z" PURGE="0" COMMENT="" />
    <EXPORT ORDINAL="1004" NAME="?Create@Thumb@DirectUI@@SAJIPEAVElement@2@PEAKPEAPEAV32@@Z" PURGE="0" COMMENT="" />
    <EXPORT ORDINAL="1005" NAME="?Create@Thumb@DirectUI@@SAJPEAVElement@2@PEAKPEAPEAV32@@Z" PURGE="0" COMMENT="" />
    <EXPORT ORDINAL="1006" NAME="?Create@ToggleProxy@DirectUI@@SAPEAV12@PEAVElement@2@@Z" PURGE="0" COMMENT="" />
    <EXPORT ORDINAL="1007" NAME="?Create@UnknownElement@DirectUI@@SAJIPEAVElement@2@PEAKPEAPEAV32@@Z" PURGE="0" COMMENT="" />
    <EXPORT ORDINAL="1008" NAME="?Create@UnknownElement@DirectUI@@SAJPEAVElement@2@PEAKPEAPEAV32@@Z" PURGE="0" COMMENT="" />
    <EXPORT ORDINAL="1009" NAME="?Create@ValueProxy@DirectUI@@SAPEAV12@PEAVElement@2@@Z" PURGE="0" COMMENT="" />
    <EXPORT ORDINAL="1010" NAME="?Create@VerticalFlowLayout@DirectUI@@SAJHPEAHPEAPEAVValue@2@@Z" PURGE="0" COMMENT="" />
    <EXPORT ORDINAL="1011" NAME="?Create@VerticalFlowLayout@DirectUI@@SAJ_NIIIPEAPEAVLayout@2@@Z" PURGE="0" COMMENT="" />
    <EXPORT ORDINAL="1012" NAME="?Create@Viewer@DirectUI@@SAJPEAVElement@2@PEAKPEAPEAV32@@Z" PURGE="0" COMMENT="" />
    <EXPORT ORDINAL="1013" NAME="?GetElementProviderImpl@Element@DirectUI@@UEAAJPEAVInvokeHelper@2@PEAPEAVElementProvider@2@@Z" PURGE="0" COMMENT="" />
    <EXPORT ORDINAL="1014" NAME="?Create@XBaby@DirectUI@@SAJPEAVIXElementCP@2@PEAVXProvider@2@PEAUHWND__@@PEAVElement@2@PEAKPEAPEAV62@@Z" PURGE="0" COMMENT="" />
    <EXPORT ORDINAL="1015" NAME="?Create@XElement@DirectUI@@SAJIPEAVElement@2@PEAKPEAPEAV32@@Z" PURGE="0" COMMENT="" />
    <EXPORT ORDINAL="1016" NAME="?Create@XElement@DirectUI@@SAJPEAVElement@2@PEAKPEAPEAV32@@Z" PURGE="0" COMMENT="" />
    <EXPORT ORDINAL="1017" NAME="?Create@XHost@DirectUI@@SAJPEAVIXElementCP@2@PEAPEAV12@@Z" PURGE="0" COMMENT="" />
    <EXPORT ORDINAL="1018" NAME="?Create@XProvider@DirectUI@@SAJPEAVElement@2@PEAVIXProviderCP@2@PEAPEAV12@@Z" PURGE="0" COMMENT="" />
    <EXPORT ORDINAL="1019" NAME="?Create@XResourceProvider@DirectUI@@SAJPEAPEAV12@@Z" PURGE="0" COMMENT="" />
    <EXPORT ORDINAL="1020" NAME="?Create@XResourceProvider@DirectUI@@SAJPEAUHINSTANCE__@@PEBG11PEAPEAV12@@Z" PURGE="0" COMMENT="" />
    <EXPORT ORDINAL="1021" NAME="?CreateAccNameLabel@HWNDHost@DirectUI@@IEAAPEAUHWND__@@PEAU3@@Z" PURGE="0" COMMENT="" />
    <EXPORT ORDINAL="1022" NAME="?CreateAtom@Value@DirectUI@@SAPEAV12@G@Z" PURGE="0" COMMENT="" />
    <EXPORT ORDINAL="1023" NAME="?CreateAtom@Value@DirectUI@@SAPEAV12@PEBG@Z" PURGE="0" COMMENT="" />
    <EXPORT ORDINAL="1024" NAME="?CreateBool@Value@DirectUI@@SAPEAV12@_N@Z" PURGE="0" COMMENT="" />
    <EXPORT ORDINAL="1025" NAME="?CreateButtons@ScrollBar@DirectUI@@MEAAJXZ" PURGE="0" COMMENT="" />
    <EXPORT ORDINAL="1026" NAME="?CreateColor@Value@DirectUI@@SAPEAV12@K@Z" PURGE="0" COMMENT="" />
    <EXPORT ORDINAL="1027" NAME="?CreateColor@Value@DirectUI@@SAPEAV12@KKE@Z" PURGE="0" COMMENT="" />
    <EXPORT ORDINAL="1028" NAME="?CreateColor@Value@DirectUI@@SAPEAV12@KKKE@Z" PURGE="0" COMMENT="" />
    <EXPORT ORDINAL="1029" NAME="?CreateCursor@Value@DirectUI@@SAPEAV12@PEAUHICON__@@@Z" PURGE="0" COMMENT="" />
    <EXPORT ORDINAL="1030" NAME="?CreateCursor@Value@DirectUI@@SAPEAV12@PEBG@Z" PURGE="0" COMMENT="" />
    <EXPORT ORDINAL="1031" NAME="?CreateDFCFill@Value@DirectUI@@SAPEAV12@II@Z" PURGE="0" COMMENT="" />
    <EXPORT ORDINAL="1032" NAME="?CreateDTBFill@Value@DirectUI@@SAPEAV12@PEBGHH@Z" PURGE="0" COMMENT="" />
    <EXPORT ORDINAL="1033" NAME="?CreateDUI@XProvider@DirectUI@@UEAAJPEAVIXElementCP@2@PEAPEAUHWND__@@@Z" PURGE="0" COMMENT="" />
    <EXPORT ORDINAL="1034" NAME="?CreateDUICP@TaskPage@DirectUI@@EEAAJPEAVHWNDElement@2@PEAUHWND__@@1PEAPEAVElement@2@PEAPEAVDUIXmlParser@2@@Z" PURGE="0" COMMENT="" />
    <EXPORT ORDINAL="1035" NAME="?CreateDUICP@XResourceProvider@DirectUI@@UEAAJPEAVHWNDElement@2@PEAUHWND__@@1PEAPEAVElement@2@PEAPEAVDUIXmlParser@2@@Z" PURGE="0" COMMENT="" />
    <EXPORT ORDINAL="1036" NAME="?CreateElement@DUIXmlParser@DirectUI@@QEAAJPEBGPEAVElement@2@1PEAKPEAPEAV32@@Z" PURGE="0" COMMENT="" />
    <EXPORT ORDINAL="1037" NAME="?CreateElementList@Value@DirectUI@@SAPEAV12@PEAV?$DynamicArray@PEAVElement@DirectUI@@$0A@@2@@Z" PURGE="0" COMMENT="" />
    <EXPORT ORDINAL="1038" NAME="?CreateElementRef@Value@DirectUI@@SAPEAV12@PEAVElement@2@@Z" PURGE="0" COMMENT="" />
    <EXPORT ORDINAL="1039" NAME="?CreateEncodedString@Value@DirectUI@@SAPEAV12@PEBG@Z" PURGE="0" COMMENT="" />
    <EXPORT ORDINAL="1040" NAME="?CreateExpression@Value@DirectUI@@SAPEAV12@PEAVExpression@2@@Z" PURGE="0" COMMENT="" />
    <EXPORT ORDINAL="1041" NAME="?CreateFill@Value@DirectUI@@SAPEAV12@AEBUFill@2@@Z" PURGE="0" COMMENT="" />
    <EXPORT ORDINAL="1042" NAME="?CreateGraphic@Value@DirectUI@@SAPEAV12@PEAUHBITMAP__@@EI_N11@Z" PURGE="0" COMMENT="" />
    <EXPORT ORDINAL="1043" NAME="?CreateGraphic@Value@DirectUI@@SAPEAV12@PEAUHENHMETAFILE__@@0@Z" PURGE="0" COMMENT="" />
    <EXPORT ORDINAL="1044" NAME="?CreateGraphic@Value@DirectUI@@SAPEAV12@PEAUHICON__@@_N11@Z" PURGE="0" COMMENT="" />
    <EXPORT ORDINAL="1045" NAME="?CreateGraphic@Value@DirectUI@@SAPEAV12@PEBGEIGGPEAUHINSTANCE__@@_N2@Z" PURGE="0" COMMENT="" />
    <EXPORT ORDINAL="1046" NAME="?CreateGraphic@Value@DirectUI@@SAPEAV12@PEBGGGPEAUHINSTANCE__@@_N2@Z" PURGE="0" COMMENT="" />
    <EXPORT ORDINAL="1047" NAME="?CreateHWND@CCBase@DirectUI@@UEAAPEAUHWND__@@PEAU3@@Z" PURGE="0" COMMENT="" />
    <EXPORT ORDINAL="1048" NAME="?CreateHWND@CCBaseScrollBar@DirectUI@@UEAAPEAUHWND__@@PEAU3@@Z" PURGE="0" COMMENT="" />
    <EXPORT ORDINAL="1049" NAME="?CreateHWND@Combobox@DirectUI@@UEAAPEAUHWND__@@PEAU3@@Z" PURGE="0" COMMENT="" />
    <EXPORT ORDINAL="1050" NAME="?CreateHWND@Edit@DirectUI@@MEAAPEAUHWND__@@PEAU3@@Z" PURGE="-1" COMMENT="" />
    <EXPORT ORDINAL="1051" NAME="?CreateHWND@Edit@DirectUI@@MEAAPEAUHWND__@@PEAU3@_N@Z" PURGE="0" COMMENT="" />
    <EXPORT ORDINAL="1052" NAME="?DefaultAction@CCBase@DirectUI@@UEAAJXZ" PURGE="0" COMMENT="" />
    <EXPORT ORDINAL="1053" NAME="?CreateHWND@XElement@DirectUI@@UEAAPEAUHWND__@@PEAU3@@Z" PURGE="0" COMMENT="" />
    <EXPORT ORDINAL="1054" NAME="?CreateInt@Value@DirectUI@@SAPEAV12@H@Z" PURGE="0" COMMENT="" />
    <EXPORT ORDINAL="1055" NAME="?CreateLayout@DUIXmlParser@DirectUI@@IEAAJPEBUExprNode@ParserTools@2@P6AJHPEAHPEAPEAVValue@2@@Z@Z" PURGE="0" COMMENT="" />
    <EXPORT ORDINAL="1056" NAME="?CreateLayout@Value@DirectUI@@SAPEAV12@PEAVLayout@2@@Z" PURGE="0" COMMENT="" />
    <EXPORT ORDINAL="1057" NAME="?CreateParser@DUIFactory@DirectUI@@QEAAJXZ" PURGE="0" COMMENT="" />
    <EXPORT ORDINAL="1058" NAME="?CreateParser@XProvider@DirectUI@@QEAAJPEAPEAVDUIXmlParser@2@@Z" PURGE="0" COMMENT="" />
    <EXPORT ORDINAL="1059" NAME="?CreateParserCP@TaskPage@DirectUI@@EEAAJPEAPEAVDUIXmlParser@2@@Z" PURGE="-1" COMMENT="" />
    <EXPORT ORDINAL="1060" NAME="?CreateParserCP@XResourceProvider@DirectUI@@UEAAJPEAPEAVDUIXmlParser@2@@Z" PURGE="0" COMMENT="" />
    <EXPORT ORDINAL="1061" NAME="?CreatePatternProvider@Schema@DirectUI@@SAJW4Pattern@12@PEAVElementProvider@2@PEAPEAUIUnknown@@@Z" PURGE="0" COMMENT="" />
    <EXPORT ORDINAL="1062" NAME="?CreatePoint@Value@DirectUI@@SAPEAV12@HH@Z" PURGE="0" COMMENT="" />
    <EXPORT ORDINAL="1063" NAME="?CreateRect@Value@DirectUI@@SAPEAV12@HHHH@Z" PURGE="0" COMMENT="" />
    <EXPORT ORDINAL="1064" NAME="?CreateScrollBars@ScrollViewer@DirectUI@@MEAAJXZ" PURGE="0" COMMENT="" />
    <EXPORT ORDINAL="1065" NAME="?CreateScrollBars@StyledScrollViewer@DirectUI@@MEAAJXZ" PURGE="0" COMMENT="" />
    <EXPORT ORDINAL="1066" NAME="?CreateSize@Value@DirectUI@@SAPEAV12@HH@Z" PURGE="0" COMMENT="" />
    <EXPORT ORDINAL="1067" NAME="?CreateString@Value@DirectUI@@SAPEAV12@PEBGPEAUHINSTANCE__@@@Z" PURGE="0" COMMENT="" />
    <EXPORT ORDINAL="1068" NAME="?CreateStyleParser@HWNDElement@DirectUI@@UEAAJPEAPEAVDUIXmlParser@2@@Z" PURGE="0" COMMENT="" />
    <EXPORT ORDINAL="1069" NAME="?CreateStyleParser@XBaby@DirectUI@@UEAAJPEAPEAVDUIXmlParser@2@@Z" PURGE="0" COMMENT="" />
    <EXPORT ORDINAL="1070" NAME="?CreateStyleSheet@DUIXmlParser@DirectUI@@IEAAJPEAUIXmlReader@@PEBGPEAPEAVStyleSheet@2@@Z" PURGE="0" COMMENT="" />
    <EXPORT ORDINAL="1071" NAME="?CreateStyleSheet@Value@DirectUI@@SAPEAV12@PEAVStyleSheet@2@@Z" PURGE="0" COMMENT="" />
    <EXPORT ORDINAL="1072" NAME="?CreateXmlReader@DUIXmlParser@DirectUI@@IEAAJPEAPEAUIXmlReader@@@Z" PURGE="0" COMMENT="" />
    <EXPORT ORDINAL="1073" NAME="?CreateXmlReaderFromHGLOBAL@DUIXmlParser@DirectUI@@IEAAJPEAXPEAPEAUIXmlReader@@@Z" PURGE="0" COMMENT="" />
    <EXPORT ORDINAL="1074" NAME="?CreateXmlReaderInputWithEncodingName@DUIXmlParser@DirectUI@@IEAAJPEAUIStream@@PEBGPEAPEAUIUnknown@@@Z" PURGE="0" COMMENT="" />
    <EXPORT ORDINAL="1075" NAME="?CtrlSubclassProc@HWNDHost@DirectUI@@KA_JPEAUHWND__@@I_K_J@Z" PURGE="0" COMMENT="" />
    <EXPORT ORDINAL="1076" NAME="?CultureProperty@Schema@DirectUI@@2HA" PURGE="-1" COMMENT="" />
    <EXPORT ORDINAL="1077" NAME="?CursorProp@Element@DirectUI@@SAPEBUPropertyInfo@2@XZ" PURGE="0" COMMENT="" />
    <EXPORT ORDINAL="1078" NAME="?CustomControlType@Schema@DirectUI@@2HA" PURGE="-1" COMMENT="" />
    <EXPORT ORDINAL="1079" NAME="?CustomProp@Element@DirectUI@@SAPEBUPropertyInfo@2@XZ" PURGE="0" COMMENT="" />
    <EXPORT ORDINAL="1080" NAME="?DPIProp@Element@DirectUI@@SAPEBUPropertyInfo@2@XZ" PURGE="0" COMMENT="" />
    <EXPORT ORDINAL="1081" NAME="?DUICreatePropertySheetPage@TaskPage@DirectUI@@QEAAJPEAUHINSTANCE__@@@Z" PURGE="0" COMMENT="" />
    <EXPORT ORDINAL="1082" NAME="?DataGridControlType@Schema@DirectUI@@2HA" PURGE="-1" COMMENT="" />
    <EXPORT ORDINAL="1083" NAME="?DataItemControlType@Schema@DirectUI@@2HA" PURGE="-1" COMMENT="" />
    <EXPORT ORDINAL="1084" NAME="?DefaultAction@Button@DirectUI@@UEAAJXZ" PURGE="0" COMMENT="" />
    <EXPORT ORDINAL="1085" NAME="?DefaultAction@Element@DirectUI@@UEAAJXZ" PURGE="0" COMMENT="" />
    <EXPORT ORDINAL="1086" NAME="?DefaultAction@CCPushButton@DirectUI@@UEAAJXZ" PURGE="0" COMMENT="" />
    <EXPORT ORDINAL="1087" NAME="?GetPageRCID@TaskPage@DirectUI@@MEAAIXZ" PURGE="0" COMMENT="" />
    <EXPORT ORDINAL="1088" NAME="?DefaultButtonTrackingProp@DialogElement@DirectUI@@SAPEBUPropertyInfo@2@XZ" PURGE="0" COMMENT="" />
    <EXPORT ORDINAL="1089" NAME="?DelayActivateTooltip@HWNDElement@DirectUI@@QEAAXXZ" PURGE="0" COMMENT="" />
    <EXPORT ORDINAL="1090" NAME="?DeleteString@CCListBox@DirectUI@@QEAAHH@Z" PURGE="-1" COMMENT="" />
    <EXPORT ORDINAL="1091" NAME="?DesiredSizeProp@Element@DirectUI@@SAPEBUPropertyInfo@2@XZ" PURGE="0" COMMENT="" />
    <EXPORT ORDINAL="1092" NAME="?Destroy@ClassInfoBase@DirectUI@@UEAAXXZ" PURGE="-1" COMMENT="" />
    <EXPORT ORDINAL="1093" NAME="?Destroy@NativeHWNDHost@DirectUI@@QEAAXXZ" PURGE="-1" COMMENT="" />
    <EXPORT ORDINAL="1094" NAME="?Destroy@Element@DirectUI@@QEAAJ_N@Z" PURGE="0" COMMENT="" />
    <EXPORT ORDINAL="1095" NAME="?Destroy@XHost@DirectUI@@QEAAXXZ" PURGE="-1" COMMENT="" />
    <EXPORT ORDINAL="1096" NAME="?Destroy@Layout@DirectUI@@QEAAXXZ" PURGE="-1" COMMENT="" />
    <EXPORT ORDINAL="1097" NAME="?Destroy@DUIXmlParser@DirectUI@@QEAAXXZ" PURGE="-1" COMMENT="" />
    <EXPORT ORDINAL="1098" NAME="?DestroyCP@XResourceProvider@DirectUI@@UEAAXXZ" PURGE="-1" COMMENT="" />
    <EXPORT ORDINAL="1099" NAME="?DestroyAll@Element@DirectUI@@QEAAJ_N@Z" PURGE="0" COMMENT="" />
    <EXPORT ORDINAL="1100" NAME="?DoLayout@Layout@DirectUI@@UEAAXPEAVElement@2@HH@Z" PURGE="0" COMMENT="" />
    <EXPORT ORDINAL="1101" NAME="?Destroy@Expression@DirectUI@@QEAAXXZ" PURGE="-1" COMMENT="" />
    <EXPORT ORDINAL="1102" NAME="?DestroyListener@EventManager@DirectUI@@SAXPEAVElement@2@@Z" PURGE="0" COMMENT="" />
    <EXPORT ORDINAL="1103" NAME="?DestroyWindow@NativeHWNDHost@DirectUI@@QEAAXXZ" PURGE="-1" COMMENT="" />
    <EXPORT ORDINAL="1104" NAME="?DestroyWindow@XHost@DirectUI@@QEAAXXZ" PURGE="-1" COMMENT="" />
    <EXPORT ORDINAL="1105" NAME="?Detach@Element@DirectUI@@QEAAXPEAVDeferCycle@2@@Z" PURGE="0" COMMENT="" />
    <EXPORT ORDINAL="1106" NAME="?Detach@HWNDHost@DirectUI@@QEAAXXZ" PURGE="0" COMMENT="" />
    <EXPORT ORDINAL="1107" NAME="?Detach@Layout@DirectUI@@UEAAXPEAVElement@2@@Z" PURGE="0" COMMENT="" />
    <EXPORT ORDINAL="1108" NAME="?DetachParser@DUIFactory@DirectUI@@QEAAPEAVDUIXmlParser@2@XZ" PURGE="0" COMMENT="" />
    <EXPORT ORDINAL="1109" NAME="?DirectionProp@Element@DirectUI@@SAPEBUPropertyInfo@2@XZ" PURGE="0" COMMENT="" />
    <EXPORT ORDINAL="1110" NAME="?DirtyProp@Edit@DirectUI@@SAPEBUPropertyInfo@2@XZ" PURGE="0" COMMENT="" />
    <EXPORT ORDINAL="1111" NAME="?Disconnect@DuiAccessible@DirectUI@@UEAAJXZ" PURGE="0" COMMENT="" />
    <EXPORT ORDINAL="1112" NAME="?Disconnect@HWNDElementAccessible@DirectUI@@UEAAJXZ" PURGE="0" COMMENT="" />
    <EXPORT ORDINAL="1113" NAME="?Disconnect@HWNDHostAccessible@DirectUI@@UEAAJXZ" PURGE="0" COMMENT="" />
    <EXPORT ORDINAL="1114" NAME="?DllsLoaded@CallstackTracker@DirectUI@@CAHXZ" PURGE="0" COMMENT="" />
    <EXPORT ORDINAL="1115" NAME="?DoInvoke@?$PatternProvider@VGridItemProvider@DirectUI@@UIGridItemProvider@@$01@DirectUI@@IEAAJHZZ" PURGE="0" COMMENT="" />
    <EXPORT ORDINAL="1116" NAME="?DoInvoke@?$PatternProvider@VGridProvider@DirectUI@@UIGridProvider@@$02@DirectUI@@IEAAJHZZ" PURGE="0" COMMENT="" />
    <EXPORT ORDINAL="1117" NAME="?DoInvoke@?$PatternProvider@VInvokeProvider@DirectUI@@UIInvokeProvider@@$0A@@DirectUI@@IEAAJHZZ" PURGE="0" COMMENT="" />
    <EXPORT ORDINAL="1118" NAME="?DoInvoke@?$PatternProvider@VRangeValueProvider@DirectUI@@UIRangeValueProvider@@$03@DirectUI@@IEAAJHZZ" PURGE="0" COMMENT="" />
    <EXPORT ORDINAL="1119" NAME="?DoInvoke@?$PatternProvider@VScrollItemProvider@DirectUI@@UIScrollItemProvider@@$05@DirectUI@@IEAAJHZZ" PURGE="0" COMMENT="" />
    <EXPORT ORDINAL="1120" NAME="?DoInvoke@?$PatternProvider@VScrollProvider@DirectUI@@UIScrollProvider@@$04@DirectUI@@IEAAJHZZ" PURGE="0" COMMENT="" />
    <EXPORT ORDINAL="1121" NAME="?DoInvoke@?$PatternProvider@VSelectionItemProvider@DirectUI@@UISelectionItemProvider@@$06@DirectUI@@IEAAJHZZ" PURGE="0" COMMENT="" />
    <EXPORT ORDINAL="1122" NAME="?DoInvoke@?$PatternProvider@VSelectionProvider@DirectUI@@UISelectionProvider@@$07@DirectUI@@IEAAJHZZ" PURGE="0" COMMENT="" />
    <EXPORT ORDINAL="1123" NAME="?DoInvoke@?$PatternProvider@VTableItemProvider@DirectUI@@UITableItemProvider@@$09@DirectUI@@IEAAJHZZ" PURGE="0" COMMENT="" />
    <EXPORT ORDINAL="1124" NAME="?DoInvoke@?$PatternProvider@VTableProvider@DirectUI@@UITableProvider@@$08@DirectUI@@IEAAJHZZ" PURGE="0" COMMENT="" />
    <EXPORT ORDINAL="1125" NAME="?DoInvoke@?$PatternProvider@VToggleProvider@DirectUI@@UIToggleProvider@@$0L@@DirectUI@@IEAAJHZZ" PURGE="0" COMMENT="" />
    <EXPORT ORDINAL="1126" NAME="?DoInvoke@?$PatternProvider@VValueProvider@DirectUI@@UIValueProvider@@$0M@@DirectUI@@IEAAJHZZ" PURGE="0" COMMENT="" />
    <EXPORT ORDINAL="1127" NAME="?DoInvoke@?$PatternProvider@VExpandCollapseProvider@DirectUI@@UIExpandCollapseProvider@@$00@DirectUI@@IEAAJHZZ" PURGE="0" COMMENT="" />
    <EXPORT ORDINAL="1128" NAME="?DoInvoke@ElementProvider@DirectUI@@IEAAJHZZ" PURGE="0" COMMENT="" />
    <EXPORT ORDINAL="1129" NAME="?DoInvoke@InvokeHelper@DirectUI@@QEAAJHPEAVElementProvider@2@P6APEAVProviderProxy@2@PEAVElement@2@@ZPEAD@Z" PURGE="0" COMMENT="" />
    <EXPORT ORDINAL="1130" NAME="?DoInvokeArgs@ElementProvider@DirectUI@@QEAAJHP6APEAVProviderProxy@2@PEAVElement@2@@ZPEAD@Z" PURGE="0" COMMENT="" />
    <EXPORT ORDINAL="1131" NAME="?DoLayout@BorderLayout@DirectUI@@UEAAXPEAVElement@2@HH@Z" PURGE="0" COMMENT="" />
    <EXPORT ORDINAL="1132" NAME="?DoLayout@FillLayout@DirectUI@@UEAAXPEAVElement@2@HH@Z" PURGE="0" COMMENT="" />
    <EXPORT ORDINAL="1133" NAME="?DoLayout@FlowLayout@DirectUI@@UEAAXPEAVElement@2@HH@Z" PURGE="0" COMMENT="" />
    <EXPORT ORDINAL="1134" NAME="?DoLayout@GridLayout@DirectUI@@UEAAXPEAVElement@2@HH@Z" PURGE="0" COMMENT="" />
    <EXPORT ORDINAL="1135" NAME="?InitPropSheetPage@TaskPage@DirectUI@@MEAAXPEAU_PROPSHEETPAGEW@@@Z" PURGE="0" COMMENT="" />
    <EXPORT ORDINAL="1136" NAME="?DoLayout@NineGridLayout@DirectUI@@UEAAXPEAVElement@2@HH@Z" PURGE="0" COMMENT="" />
    <EXPORT ORDINAL="1137" NAME="?DoLayout@RowLayout@DirectUI@@UEAAXPEAVElement@2@HH@Z" PURGE="0" COMMENT="" />
    <EXPORT ORDINAL="1138" NAME="?DoLayout@TableLayout@DirectUI@@UEAAXPEAVElement@2@HH@Z" PURGE="0" COMMENT="" />
    <EXPORT ORDINAL="1139" NAME="?DoLayout@VerticalFlowLayout@DirectUI@@UEAAXPEAVElement@2@HH@Z" PURGE="0" COMMENT="" />
    <EXPORT ORDINAL="1140" NAME="?DoMethod@BrowserSelectionProxy@DirectUI@@UEAAJHPEAD@Z" PURGE="0" COMMENT="" />
    <EXPORT ORDINAL="1141" NAME="?DoMethod@ElementProxy@DirectUI@@UEAAJHPEAD@Z" PURGE="0" COMMENT="" />
    <EXPORT ORDINAL="1142" NAME="?DoMethod@ExpandCollapseProxy@DirectUI@@UEAAJHPEAD@Z" PURGE="0" COMMENT="" />
    <EXPORT ORDINAL="1143" NAME="?DoMethod@GridItemProxy@DirectUI@@UEAAJHPEAD@Z" PURGE="0" COMMENT="" />
    <EXPORT ORDINAL="1144" NAME="?DoMethod@GridProxy@DirectUI@@UEAAJHPEAD@Z" PURGE="0" COMMENT="" />
    <EXPORT ORDINAL="1145" NAME="?DoMethod@HWNDElementProxy@DirectUI@@UEAAJHPEAD@Z" PURGE="0" COMMENT="" />
    <EXPORT ORDINAL="1146" NAME="?DoMethod@InvokeProxy@DirectUI@@UEAAJHPEAD@Z" PURGE="0" COMMENT="" />
    <EXPORT ORDINAL="1147" NAME="?DoMethod@NavigatorSelectionItemProxy@DirectUI@@UEAAJHPEAD@Z" PURGE="0" COMMENT="" />
    <EXPORT ORDINAL="1148" NAME="?DoMethod@ProgressRangeValueProxy@DirectUI@@UEAAJHPEAD@Z" PURGE="0" COMMENT="" />
    <EXPORT ORDINAL="1149" NAME="?DoMethod@SelectionItemProxy@DirectUI@@UEAAJHPEAD@Z" PURGE="0" COMMENT="" />
    <EXPORT ORDINAL="1150" NAME="?DoMethod@ScrollBarRangeValueProxy@DirectUI@@UEAAJHPEAD@Z" PURGE="0" COMMENT="" />
    <EXPORT ORDINAL="1151" NAME="?DoMethod@ScrollItemProxy@DirectUI@@UEAAJHPEAD@Z" PURGE="0" COMMENT="" />
    <EXPORT ORDINAL="1152" NAME="?DoMethod@ScrollProxy@DirectUI@@UEAAJHPEAD@Z" PURGE="0" COMMENT="" />
    <EXPORT ORDINAL="1153" NAME="?DoMethod@SelectionProxy@DirectUI@@UEAAJHPEAD@Z" PURGE="0" COMMENT="" />
    <EXPORT ORDINAL="1154" NAME="?DoMethod@RangeValueProxy@DirectUI@@UEAAJHPEAD@Z" PURGE="0" COMMENT="" />
    <EXPORT ORDINAL="1155" NAME="?DoMethod@SelectorSelectionItemProxy@DirectUI@@UEAAJHPEAD@Z" PURGE="0" COMMENT="" />
    <EXPORT ORDINAL="1156" NAME="?DoMethod@SelectorSelectionProxy@DirectUI@@UEAAJHPEAD@Z" PURGE="0" COMMENT="" />
    <EXPORT ORDINAL="1157" NAME="?DoMethod@TableItemProxy@DirectUI@@UEAAJHPEAD@Z" PURGE="0" COMMENT="" />
    <EXPORT ORDINAL="1158" NAME="?DoMethod@TableProxy@DirectUI@@UEAAJHPEAD@Z" PURGE="0" COMMENT="" />
    <EXPORT ORDINAL="1159" NAME="?DoMethod@ToggleProxy@DirectUI@@UEAAJHPEAD@Z" PURGE="0" COMMENT="" />
    <EXPORT ORDINAL="1160" NAME="?DoMethod@ValueProxy@DirectUI@@UEAAJHPEAD@Z" PURGE="0" COMMENT="" />
    <EXPORT ORDINAL="1161" NAME="?DockPattern@Schema@DirectUI@@2HA" PURGE="-1" COMMENT="" />
    <EXPORT ORDINAL="1162" NAME="?DocumentControlType@Schema@DirectUI@@2HA" PURGE="-1" COMMENT="" />
    <EXPORT ORDINAL="1163" NAME="?DoubleBuffered@Element@DirectUI@@QEAAX_N@Z" PURGE="0" COMMENT="" />
    <EXPORT ORDINAL="1164" NAME="?Drag@Thumb@DirectUI@@SA?AVUID@@XZ" PURGE="0" COMMENT="" />
    <EXPORT ORDINAL="1165" NAME="?DrawOutlinesProp@Movie@DirectUI@@SAPEBUPropertyInfo@2@XZ" PURGE="0" COMMENT="" />
    <EXPORT ORDINAL="1166" NAME="?DumpDuiProperties@@YAXPEAVElement@DirectUI@@@Z" PURGE="0" COMMENT="" />
    <EXPORT ORDINAL="1167" NAME="?DumpDuiTree@@YAXPEAVElement@DirectUI@@H@Z" PURGE="0" COMMENT="" />
    <EXPORT ORDINAL="1168" NAME="?EditControlType@Schema@DirectUI@@2HA" PURGE="-1" COMMENT="" />
    <EXPORT ORDINAL="1169" NAME="?ElementFromPoint@HWNDElement@DirectUI@@QEAAPEAVElement@2@PEAUtagPOINT@@@Z" PURGE="0" COMMENT="" />
    <EXPORT ORDINAL="1170" NAME="?ElementFromPoint@HWNDElementProxy@DirectUI@@IEAAJNNPEAPEAUIRawElementProviderFragment@@@Z" PURGE="0" COMMENT="" />
    <EXPORT ORDINAL="1171" NAME="?ElementProviderFromPoint@HWNDElementProvider@DirectUI@@UEAAJNNPEAPEAUIRawElementProviderFragment@@@Z" PURGE="0" COMMENT="" />
    <EXPORT ORDINAL="1172" NAME="?EnableDesignMode@DUIXmlParser@DirectUI@@QEAAXXZ" PURGE="0" COMMENT="" />
    <EXPORT ORDINAL="1173" NAME="?EnableUiaEvents@Element@DirectUI@@QEAAX_N@Z" PURGE="0" COMMENT="" />
    <EXPORT ORDINAL="1174" NAME="?EnabledProp@Element@DirectUI@@SAPEBUPropertyInfo@2@XZ" PURGE="0" COMMENT="" />
    <EXPORT ORDINAL="1175" NAME="?End@BaseScrollBar@DirectUI@@UEAAXXZ" PURGE="-1" COMMENT="" />
    <EXPORT ORDINAL="1176" NAME="?EndDefer@Element@DirectUI@@QEAAXK@Z" PURGE="0" COMMENT="" />
    <EXPORT ORDINAL="1177" NAME="?EndDefer@EventManager@DirectUI@@SAJPEAVElement@2@@Z" PURGE="0" COMMENT="" />
    <EXPORT ORDINAL="1178" NAME="?EnforceSizeProp@PushButton@DirectUI@@SAPEBUPropertyInfo@2@XZ" PURGE="0" COMMENT="" />
    <EXPORT ORDINAL="1179" NAME="?EnsureVisible@Element@DirectUI@@QEAA_NI@Z" PURGE="0" COMMENT="" />
    <EXPORT ORDINAL="1180" NAME="?EnsureVisible@Element@DirectUI@@QEAA_NXZ" PURGE="0" COMMENT="" />
    <EXPORT ORDINAL="1181" NAME="?EnsureVisible@Element@DirectUI@@UEAA_NHHHH@Z" PURGE="0" COMMENT="" />
    <EXPORT ORDINAL="1182" NAME="?EnsureVisible@Viewer@DirectUI@@UEAA_NHHHH@Z" PURGE="0" COMMENT="" />
    <EXPORT ORDINAL="1183" NAME="?Enter@Edit@DirectUI@@SA?AVUID@@XZ" PURGE="0" COMMENT="" />
    <EXPORT ORDINAL="1184" NAME="?Entered@Browser@DirectUI@@SA?AVUID@@XZ" PURGE="0" COMMENT="" />
    <EXPORT ORDINAL="1185" NAME="?EnumCallstackFrames@CallstackTracker@DirectUI@@QEAAHP6AXPEBD0KK@Z@Z" PURGE="0" COMMENT="" />
    <EXPORT ORDINAL="1186" NAME="?EnumPropertyInfo@ClassInfoBase@DirectUI@@UEAAPEBUPropertyInfo@2@I@Z" PURGE="0" COMMENT="" />
    <EXPORT ORDINAL="1187" NAME="?EraseBkgnd@HWNDHost@DirectUI@@MEAA_NPEAUHDC__@@PEA_J@Z" PURGE="0" COMMENT="" />
    <EXPORT ORDINAL="1188" NAME="?EstimateContentSize@CCPushButton@DirectUI@@UEAA?AUtagSIZE@@HHPEAVSurface@2@@Z" PURGE="0" COMMENT="" />
    <EXPORT ORDINAL="1189" NAME="?EventFromEventId@Schema@DirectUI@@SA?AW4Event@12@H@Z" PURGE="0" COMMENT="" />
    <EXPORT ORDINAL="1190" NAME="?EventListener@EventManager@DirectUI@@SAJPEAVElement@2@PEAUEvent@2@@Z" PURGE="0" COMMENT="" />
    <EXPORT ORDINAL="1191" NAME="?Expand@ExpandCollapseProvider@DirectUI@@UEAAJXZ" PURGE="0" COMMENT="" />
    <EXPORT ORDINAL="1192" NAME="?ExpandCollapsePattern@Schema@DirectUI@@2HA" PURGE="-1" COMMENT="" />
    <EXPORT ORDINAL="1193" NAME="?ExpandCollapse_ExpandCollapseState_Property@Schema@DirectUI@@2HA" PURGE="-1" COMMENT="" />
    <EXPORT ORDINAL="1194" NAME="?ExpandProp@Macro@DirectUI@@SAPEBUPropertyInfo@2@XZ" PURGE="0" COMMENT="" />
    <EXPORT ORDINAL="1195" NAME="?ExpandedProp@Expandable@DirectUI@@SAPEBUPropertyInfo@2@XZ" PURGE="0" COMMENT="" />
    <EXPORT ORDINAL="1196" NAME="?ExtentProp@Element@DirectUI@@SAPEBUPropertyInfo@2@XZ" PURGE="0" COMMENT="" />
    <EXPORT ORDINAL="1197" NAME="?FWantAnyEvent@EventManager@DirectUI@@SA_NPEAVElement@2@@Z" PURGE="0" COMMENT="" />
    <EXPORT ORDINAL="1198" NAME="?FillSymbolInfo@CallstackTracker@DirectUI@@AEAAXPEAUSTACK_SYMBOL_INFO@12@_K@Z" PURGE="0" COMMENT="" />
    <EXPORT ORDINAL="1199" NAME="?Find@ElementProviderManager@DirectUI@@SAPEAVElementProvider@2@PEAVElement@2@@Z" PURGE="0" COMMENT="" />
    <EXPORT ORDINAL="1200" NAME="?FindAccessibleRole@AccessibleButton@DirectUI@@CAPEBUACCESSIBLEROLE@12@H@Z" PURGE="0" COMMENT="" />
    <EXPORT ORDINAL="1201" NAME="?FindDescendent@Element@DirectUI@@QEAAPEAV12@G@Z" PURGE="0" COMMENT="" />
    <EXPORT ORDINAL="1202" NAME="?FindDescendentWorker@Element@DirectUI@@AEAAPEAV12@G@Z" PURGE="0" COMMENT="" />
    <EXPORT ORDINAL="1203" NAME="?FindElementWithShortcutAndDoDefaultAction@XProvider@DirectUI@@UEAAHGH@Z" PURGE="0" COMMENT="" />
    <EXPORT ORDINAL="1204" NAME="?FindInvokeHelper@InvokeManager@DirectUI@@CAPEAVInvokeHelper@2@PEAI@Z" PURGE="0" COMMENT="" />
    <EXPORT ORDINAL="1205" NAME="?FindProviderCallback@ElementProviderManager@DirectUI@@CA_NPEAVElementProvider@2@PEAX@Z" PURGE="0" COMMENT="" />
    <EXPORT ORDINAL="1206" NAME="?FindRefPoint@RefPointElement@DirectUI@@SAPEAVElement@2@PEAV32@PEAUtagPOINT@@@Z" PURGE="0" COMMENT="" />
    <EXPORT ORDINAL="1207" NAME="?FindShortcut@HWNDElement@DirectUI@@SA_NGPEAVElement@2@PEAPEAV32@PEAH2H@Z" PURGE="0" COMMENT="" />
    <EXPORT ORDINAL="1208" NAME="?FindShortcutRecursive@HWNDElement@DirectUI@@KA_NGPEAVElement@2@PEAPEAV32@PEAH2H@Z" PURGE="0" COMMENT="" />
    <EXPORT ORDINAL="1209" NAME="?FireAnimationChangeEvent@BaseScrollViewer@DirectUI@@IEAAX_N@Z" PURGE="0" COMMENT="" />
    <EXPORT ORDINAL="1210" NAME="?FireEvent@Element@DirectUI@@QEAAXPEAUEvent@2@_N1@Z" PURGE="0" COMMENT="" />
    <EXPORT ORDINAL="1211" NAME="?FireHostEvent@PushButton@DirectUI@@AEAAXPEAVElement@2@_N@Z" PURGE="0" COMMENT="" />
    <EXPORT ORDINAL="1212" NAME="?FireNavigate@Browser@DirectUI@@AEAAHG@Z" PURGE="0" COMMENT="" />
    <EXPORT ORDINAL="1213" NAME="?FireNavigationEvent@Navigator@DirectUI@@AEAAXXZ" PURGE="0" COMMENT="" />
    <EXPORT ORDINAL="1214" NAME="?FireStructureChangedEvent@EventManager@DirectUI@@SAJPEAVElement@2@W4StructureChangeType@@@Z" PURGE="0" COMMENT="" />
    <EXPORT ORDINAL="1215" NAME="?FlushWorkingSet@HWNDElement@DirectUI@@QEAAXXZ" PURGE="0" COMMENT="" />
    <EXPORT ORDINAL="1216" NAME="?FontFaceProp@Element@DirectUI@@SAPEBUPropertyInfo@2@XZ" PURGE="0" COMMENT="" />
    <EXPORT ORDINAL="1217" NAME="?FontProp@Element@DirectUI@@SAPEBUPropertyInfo@2@XZ" PURGE="0" COMMENT="" />
    <EXPORT ORDINAL="1218" NAME="?FontQualityProp@Element@DirectUI@@SAPEBUPropertyInfo@2@XZ" PURGE="0" COMMENT="" />
    <EXPORT ORDINAL="1219" NAME="?FontSizeProp@Element@DirectUI@@SAPEBUPropertyInfo@2@XZ" PURGE="0" COMMENT="" />
    <EXPORT ORDINAL="1220" NAME="?FontStyleProp@Element@DirectUI@@SAPEBUPropertyInfo@2@XZ" PURGE="0" COMMENT="" />
    <EXPORT ORDINAL="1221" NAME="?FontWeightProp@Element@DirectUI@@SAPEBUPropertyInfo@2@XZ" PURGE="0" COMMENT="" />
    <EXPORT ORDINAL="1222" NAME="?ForceThemeChange@XBaby@DirectUI@@QEAAX_K_J@Z" PURGE="0" COMMENT="" />
    <EXPORT ORDINAL="1223" NAME="?ForceThemeChange@XProvider@DirectUI@@UEAAJ_K_J@Z" PURGE="0" COMMENT="" />
    <EXPORT ORDINAL="1224" NAME="?ForegroundProp@Element@DirectUI@@SAPEBUPropertyInfo@2@XZ" PURGE="0" COMMENT="" />
    <EXPORT ORDINAL="1225" NAME="?Forward@Movie@DirectUI@@QEAAXXZ" PURGE="0" COMMENT="" />
    <EXPORT ORDINAL="1226" NAME="?FrameDurationProp@AnimationStrip@DirectUI@@SAPEBUPropertyInfo@2@XZ" PURGE="0" COMMENT="" />
    <EXPORT ORDINAL="1227" NAME="?FrameIndexProp@AnimationStrip@DirectUI@@SAPEBUPropertyInfo@2@XZ" PURGE="0" COMMENT="" />
    <EXPORT ORDINAL="1228" NAME="?FrameWidthProp@AnimationStrip@DirectUI@@SAPEBUPropertyInfo@2@XZ" PURGE="0" COMMENT="" />
    <EXPORT ORDINAL="1229" NAME="?FrameworkId@Schema@DirectUI@@2HA" PURGE="-1" COMMENT="" />
    <EXPORT ORDINAL="1230" NAME="?FreeComCtl32@TaskPage@DirectUI@@AEAAXXZ" PURGE="0" COMMENT="" />
    <EXPORT ORDINAL="1231" NAME="?FreeProvider@XElement@DirectUI@@QEAAXXZ" PURGE="0" COMMENT="" />
    <EXPORT ORDINAL="1232" NAME="?GetAbsorbsShortcut@Element@DirectUI@@QEAA_NXZ" PURGE="0" COMMENT="" />
    <EXPORT ORDINAL="1233" NAME="?GetAccDefAction@Element@DirectUI@@QEAAPEBGPEAPEAVValue@2@@Z" PURGE="0" COMMENT="" />
    <EXPORT ORDINAL="1234" NAME="?GetAccDesc@Element@DirectUI@@QEAAPEBGPEAPEAVValue@2@@Z" PURGE="0" COMMENT="" />
    <EXPORT ORDINAL="1235" NAME="?GetAccHelp@Element@DirectUI@@QEAAPEBGPEAPEAVValue@2@@Z" PURGE="0" COMMENT="" />
    <EXPORT ORDINAL="1236" NAME="?GetAccItemStatus@Element@DirectUI@@QEAAPEBGPEAPEAVValue@2@@Z" PURGE="0" COMMENT="" />
    <EXPORT ORDINAL="1237" NAME="?GetAccItemType@Element@DirectUI@@QEAAPEBGPEAPEAVValue@2@@Z" PURGE="0" COMMENT="" />
    <EXPORT ORDINAL="1238" NAME="?GetAccName@DuiAccessible@DirectUI@@IEAAJUtagVARIANT@@HPEAPEAG@Z" PURGE="0" COMMENT="" />
    <EXPORT ORDINAL="1239" NAME="?GetAccName@Element@DirectUI@@QEAAPEBGPEAPEAVValue@2@@Z" PURGE="0" COMMENT="" />
    <EXPORT ORDINAL="1240" NAME="?GetAccNameAsDisplayed@Element@DirectUI@@QEAAPEBGPEAPEAVValue@2@@Z" PURGE="0" COMMENT="" />
    <EXPORT ORDINAL="1241" NAME="?GetAccNameFromContent@DuiAccessible@DirectUI@@IEAAJPEAPEAG@Z" PURGE="0" COMMENT="" />
    <EXPORT ORDINAL="1242" NAME="?GetAccRole@Element@DirectUI@@QEAAHXZ" PURGE="0" COMMENT="" />
    <EXPORT ORDINAL="1243" NAME="?GetAccState@Element@DirectUI@@QEAAHXZ" PURGE="0" COMMENT="" />
    <EXPORT ORDINAL="1244" NAME="?GetAccValue@Element@DirectUI@@QEAAPEBGPEAPEAVValue@2@@Z" PURGE="0" COMMENT="" />
    <EXPORT ORDINAL="1245" NAME="?GetAccessible@Element@DirectUI@@QEAA_NXZ" PURGE="0" COMMENT="" />
    <EXPORT ORDINAL="1246" NAME="?GetAccessibleImpl@Element@DirectUI@@UEAAJPEAPEAUIAccessible@@@Z" PURGE="0" COMMENT="" />
    <EXPORT ORDINAL="1247" NAME="?GetAccessibleImpl@HWNDElement@DirectUI@@UEAAJPEAPEAUIAccessible@@@Z" PURGE="0" COMMENT="" />
    <EXPORT ORDINAL="1248" NAME="?GetAccessibleImpl@HWNDHost@DirectUI@@AEAAJPEAPEAUIAccessible@@_N@Z" PURGE="0" COMMENT="" />
    <EXPORT ORDINAL="1249" NAME="?GetAccessibleImpl@HWNDHost@DirectUI@@UEAAJPEAPEAUIAccessible@@@Z" PURGE="0" COMMENT="" />
    <EXPORT ORDINAL="1250" NAME="?GetAccessibleParent@DuiAccessible@DirectUI@@SAPEAVElement@2@PEAV32@@Z" PURGE="0" COMMENT="" />
    <EXPORT ORDINAL="1251" NAME="?GetActive@Element@DirectUI@@QEAAHXZ" PURGE="0" COMMENT="" />
    <EXPORT ORDINAL="1252" NAME="?GetActualReferencePoint@RefPointElement@DirectUI@@QEAAPEBUtagPOINT@@PEAPEAVValue@2@@Z" PURGE="0" COMMENT="" />
    <EXPORT ORDINAL="1253" NAME="?GetAdjacent@BorderLayout@DirectUI@@UEAAPEAVElement@2@PEAV32@0HPEBUNavReference@2@K@Z" PURGE="0" COMMENT="" />
    <EXPORT ORDINAL="1254" NAME="?GetAdjacent@Element@DirectUI@@UEAAPEAV12@PEAV12@HPEBUNavReference@2@K@Z" PURGE="0" COMMENT="" />
    <EXPORT ORDINAL="1255" NAME="?GetAdjacent@FillLayout@DirectUI@@UEAAPEAVElement@2@PEAV32@0HPEBUNavReference@2@K@Z" PURGE="0" COMMENT="" />
    <EXPORT ORDINAL="1256" NAME="?GetAdjacent@FlowLayout@DirectUI@@UEAAPEAVElement@2@PEAV32@0HPEBUNavReference@2@K@Z" PURGE="0" COMMENT="" />
    <EXPORT ORDINAL="1257" NAME="?GetAdjacent@GridLayout@DirectUI@@UEAAPEAVElement@2@PEAV32@0HPEBUNavReference@2@K@Z" PURGE="0" COMMENT="" />
    <EXPORT ORDINAL="1258" NAME="?GetAdjacent@Layout@DirectUI@@UEAAPEAVElement@2@PEAV32@0HPEBUNavReference@2@K@Z" PURGE="0" COMMENT="" />
    <EXPORT ORDINAL="1259" NAME="?GetAdjacent@NineGridLayout@DirectUI@@UEAAPEAVElement@2@PEAV32@0HPEBUNavReference@2@K@Z" PURGE="0" COMMENT="" />
    <EXPORT ORDINAL="1260" NAME="?GetAdjacent@RowLayout@DirectUI@@UEAAPEAVElement@2@PEAV32@0HPEBUNavReference@2@K@Z" PURGE="0" COMMENT="" />
    <EXPORT ORDINAL="1261" NAME="?GetAdjacent@Selector@DirectUI@@UEAAPEAVElement@2@PEAV32@HPEBUNavReference@2@K@Z" PURGE="0" COMMENT="" />
    <EXPORT ORDINAL="1262" NAME="?GetAdjacent@ShellBorderLayout@DirectUI@@UEAAPEAVElement@2@PEAV32@0HPEBUNavReference@2@K@Z" PURGE="0" COMMENT="" />
    <EXPORT ORDINAL="1263" NAME="?GetAdjacent@TableLayout@DirectUI@@UEAAPEAVElement@2@PEAV32@0HPEBUNavReference@2@K@Z" PURGE="0" COMMENT="" />
    <EXPORT ORDINAL="1264" NAME="?GetAdjacent@VerticalFlowLayout@DirectUI@@UEAAPEAVElement@2@PEAV32@0HPEBUNavReference@2@K@Z" PURGE="0" COMMENT="" />
    <EXPORT ORDINAL="1265" NAME="?GetAdjacent@XBaby@DirectUI@@UEAAPEAVElement@2@PEAV32@HPEBUNavReference@2@K@Z" PURGE="0" COMMENT="" />
    <EXPORT ORDINAL="1266" NAME="?GetAlpha@Element@DirectUI@@QEAAHXZ" PURGE="0" COMMENT="" />
    <EXPORT ORDINAL="1267" NAME="?GetAnimation@Element@DirectUI@@QEAAHXZ" PURGE="0" COMMENT="" />
    <EXPORT ORDINAL="1268" NAME="?GetAtom@Value@DirectUI@@QEAAGXZ" PURGE="0" COMMENT="" />
    <EXPORT ORDINAL="1269" NAME="?GetAtomZero@Value@DirectUI@@SAPEAV12@XZ" PURGE="0" COMMENT="" />
    <EXPORT ORDINAL="1270" NAME="?GetAutoGrouping@CCRadioButton@DirectUI@@QEAA_NXZ" PURGE="0" COMMENT="" />
    <EXPORT ORDINAL="1271" NAME="?GetAutoStart@Movie@DirectUI@@QEAA_NXZ" PURGE="0" COMMENT="" />
    <EXPORT ORDINAL="1272" NAME="?GetAutoStop@Movie@DirectUI@@QEAA_NXZ" PURGE="0" COMMENT="" />
    <EXPORT ORDINAL="1273" NAME="?GetAutomationId@ElementProxy@DirectUI@@IEAAJPEAUtagVARIANT@@@Z" PURGE="0" COMMENT="" />
    <EXPORT ORDINAL="1274" NAME="?GetBackgroundColor@Element@DirectUI@@QEAAPEBUFill@2@PEAPEAVValue@2@@Z" PURGE="0" COMMENT="" />
    <EXPORT ORDINAL="1275" NAME="?GetBackgroundOwner@HWNDHost@DirectUI@@IEAAPEAVElement@2@XZ" PURGE="0" COMMENT="" />
    <EXPORT ORDINAL="1276" NAME="?GetBackgroundOwnerID@HWNDHost@DirectUI@@QEAAGXZ" PURGE="0" COMMENT="" />
    <EXPORT ORDINAL="1277" NAME="?GetBackgroundStdColor@Element@DirectUI@@QEAAHXZ" PURGE="0" COMMENT="" />
    <EXPORT ORDINAL="1278" NAME="?GetBool@EventManager@DirectUI@@CAJPEAUtagVARIANT@@PEAVValue@2@@Z" PURGE="0" COMMENT="" />
    <EXPORT ORDINAL="1279" NAME="?IsPinned@BaseScrollBar@DirectUI@@QEAA_NXZ" PURGE="0" COMMENT="" />
    <EXPORT ORDINAL="1280" NAME="?GetBoolFalse@Value@DirectUI@@SAPEAV12@XZ" PURGE="0" COMMENT="" />
    <EXPORT ORDINAL="1281" NAME="?GetBoolTrue@Value@DirectUI@@SAPEAV12@XZ" PURGE="0" COMMENT="" />
    <EXPORT ORDINAL="1282" NAME="?GetBorderColor@Element@DirectUI@@QEAAPEBUFill@2@PEAPEAVValue@2@@Z" PURGE="0" COMMENT="" />
    <EXPORT ORDINAL="1283" NAME="?GetBorderStdColor@Element@DirectUI@@QEAAHXZ" PURGE="0" COMMENT="" />
    <EXPORT ORDINAL="1284" NAME="?GetBorderStyle@Element@DirectUI@@QEAAHXZ" PURGE="0" COMMENT="" />
    <EXPORT ORDINAL="1285" NAME="?GetBorderThickness@Element@DirectUI@@QEAAPEBUtagRECT@@PEAPEAVValue@2@@Z" PURGE="0" COMMENT="" />
    <EXPORT ORDINAL="1286" NAME="?GetBoundingRect@ElementProxy@DirectUI@@IEAAJPEAUUiaRect@@@Z" PURGE="0" COMMENT="" />
    <EXPORT ORDINAL="1287" NAME="?GetBrowser@Navigator@DirectUI@@QEAAPEAVBrowser@2@XZ" PURGE="0" COMMENT="" />
    <EXPORT ORDINAL="1288" NAME="?GetButtonClassAcceptsEnterKey@DialogElement@DirectUI@@QEAA_NXZ" PURGE="0" COMMENT="" />
    <EXPORT ORDINAL="1289" NAME="?GetButtonColor@CCPushButton@DirectUI@@UEAA_NPEAUHDC__@@PEAPEAUHBRUSH__@@@Z" PURGE="0" COMMENT="" />
    <EXPORT ORDINAL="1290" NAME="?GetByClassIndex@ClassInfoBase@DirectUI@@UEAAPEBUPropertyInfo@2@I@Z" PURGE="0" COMMENT="" />
    <EXPORT ORDINAL="1291" NAME="?GetCaptured@Button@DirectUI@@QEAA_NXZ" PURGE="0" COMMENT="" />
    <EXPORT ORDINAL="1292" NAME="?GetCellInfo@TableLayout@DirectUI@@QEAAPEAUCellInfo@2@H@Z" PURGE="0" COMMENT="" />
    <EXPORT ORDINAL="1293" NAME="?GetChildFromLayoutIndex@Layout@DirectUI@@QEAAPEAVElement@2@PEAV32@HPEAV?$DynamicArray@PEAVElement@DirectUI@@$0A@@2@@Z" PURGE="0" COMMENT="" />
    <EXPORT ORDINAL="1294" NAME="?GetChildren@ClassInfoBase@DirectUI@@UEBAHXZ" PURGE="0" COMMENT="" />
    <EXPORT ORDINAL="1295" NAME="?GetChildren@Element@DirectUI@@QEAAPEAV?$DynamicArray@PEAVElement@DirectUI@@$0A@@2@PEAPEAVValue@2@@Z" PURGE="0" COMMENT="" />
    <EXPORT ORDINAL="1296" NAME="?GetClass@Element@DirectUI@@QEAAPEBGPEAPEAVValue@2@@Z" PURGE="0" COMMENT="" />
    <EXPORT ORDINAL="1297" NAME="?GetClassInfoW@AccessibleButton@DirectUI@@UEAAPEAUIClassInfo@2@XZ" PURGE="0" COMMENT="" />
    <EXPORT ORDINAL="1298" NAME="?GetClassInfoW@AnimationStrip@DirectUI@@UEAAPEAUIClassInfo@2@XZ" PURGE="0" COMMENT="" />
    <EXPORT ORDINAL="1299" NAME="?GetClassInfoW@AutoButton@DirectUI@@UEAAPEAUIClassInfo@2@XZ" PURGE="0" COMMENT="" />
    <EXPORT ORDINAL="1300" NAME="?GetClassInfoW@BaseScrollViewer@DirectUI@@UEAAPEAUIClassInfo@2@XZ" PURGE="0" COMMENT="" />
    <EXPORT ORDINAL="1301" NAME="?GetClassInfoW@Bind@DirectUI@@UEAAPEAUIClassInfo@2@XZ" PURGE="0" COMMENT="" />
    <EXPORT ORDINAL="1302" NAME="?GetClassInfoW@Browser@DirectUI@@UEAAPEAUIClassInfo@2@XZ" PURGE="0" COMMENT="" />
    <EXPORT ORDINAL="1303" NAME="?GetClassInfoW@Button@DirectUI@@UEAAPEAUIClassInfo@2@XZ" PURGE="0" COMMENT="" />
    <EXPORT ORDINAL="1304" NAME="?GetClassInfoW@CCAVI@DirectUI@@UEAAPEAUIClassInfo@2@XZ" PURGE="0" COMMENT="" />
    <EXPORT ORDINAL="1305" NAME="?GetClassInfoW@CCBase@DirectUI@@UEAAPEAUIClassInfo@2@XZ" PURGE="0" COMMENT="" />
    <EXPORT ORDINAL="1306" NAME="?GetClassInfoW@CCBaseCheckRadioButton@DirectUI@@UEAAPEAUIClassInfo@2@XZ" PURGE="0" COMMENT="" />
    <EXPORT ORDINAL="1307" NAME="?GetClassInfoW@CCBaseScrollBar@DirectUI@@UEAAPEAUIClassInfo@2@XZ" PURGE="0" COMMENT="" />
    <EXPORT ORDINAL="1308" NAME="?GetClassInfoW@CCCheckBox@DirectUI@@UEAAPEAUIClassInfo@2@XZ" PURGE="0" COMMENT="" />
    <EXPORT ORDINAL="1309" NAME="?GetClassInfoW@CCCommandLink@DirectUI@@UEAAPEAUIClassInfo@2@XZ" PURGE="0" COMMENT="" />
    <EXPORT ORDINAL="1310" NAME="?GetClassInfoW@CCHScrollBar@DirectUI@@UEAAPEAUIClassInfo@2@XZ" PURGE="0" COMMENT="" />
    <EXPORT ORDINAL="1311" NAME="?GetClassInfoW@CCListBox@DirectUI@@UEAAPEAUIClassInfo@2@XZ" PURGE="0" COMMENT="" />
    <EXPORT ORDINAL="1312" NAME="?GetClassInfoW@CCListView@DirectUI@@UEAAPEAUIClassInfo@2@XZ" PURGE="0" COMMENT="" />
    <EXPORT ORDINAL="1313" NAME="?GetClassInfoW@CCProgressBar@DirectUI@@UEAAPEAUIClassInfo@2@XZ" PURGE="0" COMMENT="" />
    <EXPORT ORDINAL="1314" NAME="?GetClassInfoW@CCPushButton@DirectUI@@UEAAPEAUIClassInfo@2@XZ" PURGE="0" COMMENT="" />
    <EXPORT ORDINAL="1315" NAME="?GetClassInfoW@CCRadioButton@DirectUI@@UEAAPEAUIClassInfo@2@XZ" PURGE="0" COMMENT="" />
    <EXPORT ORDINAL="1316" NAME="?GetClassInfoW@CCSysLink@DirectUI@@UEAAPEAUIClassInfo@2@XZ" PURGE="0" COMMENT="" />
    <EXPORT ORDINAL="1317" NAME="?GetClassInfoW@CCTrackBar@DirectUI@@UEAAPEAUIClassInfo@2@XZ" PURGE="0" COMMENT="" />
    <EXPORT ORDINAL="1318" NAME="?GetClassInfoW@CCTreeView@DirectUI@@UEAAPEAUIClassInfo@2@XZ" PURGE="0" COMMENT="" />
    <EXPORT ORDINAL="1319" NAME="?GetClassInfoW@CCVScrollBar@DirectUI@@UEAAPEAUIClassInfo@2@XZ" PURGE="0" COMMENT="" />
    <EXPORT ORDINAL="1320" NAME="?GetClassInfoW@CheckBoxGlyph@DirectUI@@UEAAPEAUIClassInfo@2@XZ" PURGE="0" COMMENT="" />
    <EXPORT ORDINAL="1321" NAME="?GetClassInfoW@Clipper@DirectUI@@UEAAPEAUIClassInfo@2@XZ" PURGE="0" COMMENT="" />
    <EXPORT ORDINAL="1322" NAME="?GetClassInfoW@Combobox@DirectUI@@UEAAPEAUIClassInfo@2@XZ" PURGE="0" COMMENT="" />
    <EXPORT ORDINAL="1323" NAME="?GetClassInfoW@DialogElement@DirectUI@@UEAAPEAUIClassInfo@2@XZ" PURGE="0" COMMENT="" />
    <EXPORT ORDINAL="1324" NAME="?GetClassInfoW@Edit@DirectUI@@UEAAPEAUIClassInfo@2@XZ" PURGE="0" COMMENT="" />
    <EXPORT ORDINAL="1325" NAME="?GetClassInfoW@Element@DirectUI@@UEAAPEAUIClassInfo@2@XZ" PURGE="0" COMMENT="" />
    <EXPORT ORDINAL="1326" NAME="?GetClassInfoW@ElementWithHWND@DirectUI@@UEAAPEAUIClassInfo@2@XZ" PURGE="0" COMMENT="" />
    <EXPORT ORDINAL="1327" NAME="?GetClassInfoW@Expandable@DirectUI@@UEAAPEAUIClassInfo@2@XZ" PURGE="0" COMMENT="" />
    <EXPORT ORDINAL="1328" NAME="?GetClassInfoW@Expando@DirectUI@@UEAAPEAUIClassInfo@2@XZ" PURGE="0" COMMENT="" />
    <EXPORT ORDINAL="1329" NAME="?GetClassInfoW@ExpandoButtonGlyph@DirectUI@@UEAAPEAUIClassInfo@2@XZ" PURGE="0" COMMENT="" />
    <EXPORT ORDINAL="1330" NAME="?GetClassInfoW@HWNDElement@DirectUI@@UEAAPEAUIClassInfo@2@XZ" PURGE="0" COMMENT="" />
    <EXPORT ORDINAL="1331" NAME="?GetClassInfoW@HWNDHost@DirectUI@@UEAAPEAUIClassInfo@2@XZ" PURGE="0" COMMENT="" />
    <EXPORT ORDINAL="1332" NAME="?GetClassInfoW@Macro@DirectUI@@UEAAPEAUIClassInfo@2@XZ" PURGE="0" COMMENT="" />
    <EXPORT ORDINAL="1333" NAME="?GetClassInfoW@Movie@DirectUI@@UEAAPEAUIClassInfo@2@XZ" PURGE="0" COMMENT="" />
    <EXPORT ORDINAL="1334" NAME="?GetClassInfoW@Navigator@DirectUI@@UEAAPEAUIClassInfo@2@XZ" PURGE="0" COMMENT="" />
    <EXPORT ORDINAL="1335" NAME="?GetClassInfoW@PText@DirectUI@@UEAAPEAUIClassInfo@2@XZ" PURGE="0" COMMENT="" />
    <EXPORT ORDINAL="1336" NAME="?GetClassInfoW@Page@DirectUI@@UEAAPEAUIClassInfo@2@XZ" PURGE="0" COMMENT="" />
    <EXPORT ORDINAL="1337" NAME="?GetClassInfoW@Pages@DirectUI@@UEAAPEAUIClassInfo@2@XZ" PURGE="0" COMMENT="" />
    <EXPORT ORDINAL="1338" NAME="?GetClassInfoW@Progress@DirectUI@@UEAAPEAUIClassInfo@2@XZ" PURGE="0" COMMENT="" />
    <EXPORT ORDINAL="1339" NAME="?GetClassInfoW@PushButton@DirectUI@@UEAAPEAUIClassInfo@2@XZ" PURGE="0" COMMENT="" />
    <EXPORT ORDINAL="1340" NAME="?GetClassInfoW@RadioButtonGlyph@DirectUI@@UEAAPEAUIClassInfo@2@XZ" PURGE="0" COMMENT="" />
    <EXPORT ORDINAL="1341" NAME="?GetClassInfoW@RefPointElement@DirectUI@@UEAAPEAUIClassInfo@2@XZ" PURGE="0" COMMENT="" />
    <EXPORT ORDINAL="1342" NAME="?GetClassInfoW@RepeatButton@DirectUI@@UEAAPEAUIClassInfo@2@XZ" PURGE="0" COMMENT="" />
    <EXPORT ORDINAL="1343" NAME="?GetClassInfoW@Repeater@DirectUI@@UEAAPEAUIClassInfo@2@XZ" PURGE="0" COMMENT="" />
    <EXPORT ORDINAL="1344" NAME="?GetClassInfoW@ScrollBar@DirectUI@@UEAAPEAUIClassInfo@2@XZ" PURGE="0" COMMENT="" />
    <EXPORT ORDINAL="1345" NAME="?GetClassInfoW@ScrollViewer@DirectUI@@UEAAPEAUIClassInfo@2@XZ" PURGE="0" COMMENT="" />
    <EXPORT ORDINAL="1346" NAME="?GetClassInfoW@Selector@DirectUI@@UEAAPEAUIClassInfo@2@XZ" PURGE="0" COMMENT="" />
    <EXPORT ORDINAL="1347" NAME="?GetClassInfoW@SelectorNoDefault@DirectUI@@UEAAPEAUIClassInfo@2@XZ" PURGE="0" COMMENT="" />
    <EXPORT ORDINAL="1348" NAME="?GetClassInfoW@StyledScrollViewer@DirectUI@@UEAAPEAUIClassInfo@2@XZ" PURGE="0" COMMENT="" />
    <EXPORT ORDINAL="1349" NAME="?GetClassInfoW@TextGraphic@DirectUI@@UEAAPEAUIClassInfo@2@XZ" PURGE="0" COMMENT="" />
    <EXPORT ORDINAL="1350" NAME="?GetClassInfoW@Thumb@DirectUI@@UEAAPEAUIClassInfo@2@XZ" PURGE="0" COMMENT="" />
    <EXPORT ORDINAL="1351" NAME="?GetClassInfoW@UnknownElement@DirectUI@@UEAAPEAUIClassInfo@2@XZ" PURGE="0" COMMENT="" />
    <EXPORT ORDINAL="1352" NAME="?GetClassInfoW@Viewer@DirectUI@@UEAAPEAUIClassInfo@2@XZ" PURGE="0" COMMENT="" />
    <EXPORT ORDINAL="1353" NAME="?GetClassInfoW@XBaby@DirectUI@@UEAAPEAUIClassInfo@2@XZ" PURGE="0" COMMENT="" />
    <EXPORT ORDINAL="1354" NAME="?GetClassInfoW@XElement@DirectUI@@UEAAPEAUIClassInfo@2@XZ" PURGE="0" COMMENT="" />
    <EXPORT ORDINAL="1355" NAME="?GetClassInfoPtr@AccessibleButton@DirectUI@@SAPEAUIClassInfo@2@XZ" PURGE="0" COMMENT="" />
    <EXPORT ORDINAL="1356" NAME="?GetClassInfoPtr@AnimationStrip@DirectUI@@SAPEAUIClassInfo@2@XZ" PURGE="0" COMMENT="" />
    <EXPORT ORDINAL="1357" NAME="?GetClassInfoPtr@AutoButton@DirectUI@@SAPEAUIClassInfo@2@XZ" PURGE="0" COMMENT="" />
    <EXPORT ORDINAL="1358" NAME="?GetClassInfoPtr@BaseScrollViewer@DirectUI@@SAPEAUIClassInfo@2@XZ" PURGE="0" COMMENT="" />
    <EXPORT ORDINAL="1359" NAME="?GetClassInfoPtr@Bind@DirectUI@@SAPEAUIClassInfo@2@XZ" PURGE="0" COMMENT="" />
    <EXPORT ORDINAL="1360" NAME="?GetClassInfoPtr@Browser@DirectUI@@SAPEAUIClassInfo@2@XZ" PURGE="0" COMMENT="" />
    <EXPORT ORDINAL="1361" NAME="?GetClassInfoPtr@Button@DirectUI@@SAPEAUIClassInfo@2@XZ" PURGE="0" COMMENT="" />
    <EXPORT ORDINAL="1362" NAME="?GetClassInfoPtr@CCAVI@DirectUI@@SAPEAUIClassInfo@2@XZ" PURGE="0" COMMENT="" />
    <EXPORT ORDINAL="1363" NAME="?GetClassInfoPtr@CCBase@DirectUI@@SAPEAUIClassInfo@2@XZ" PURGE="0" COMMENT="" />
    <EXPORT ORDINAL="1364" NAME="?GetClassInfoPtr@CCBaseCheckRadioButton@DirectUI@@SAPEAUIClassInfo@2@XZ" PURGE="0" COMMENT="" />
    <EXPORT ORDINAL="1365" NAME="?GetClassInfoPtr@CCBaseScrollBar@DirectUI@@SAPEAUIClassInfo@2@XZ" PURGE="0" COMMENT="" />
    <EXPORT ORDINAL="1366" NAME="?GetClassInfoPtr@CCCheckBox@DirectUI@@SAPEAUIClassInfo@2@XZ" PURGE="0" COMMENT="" />
    <EXPORT ORDINAL="1367" NAME="?GetClassInfoPtr@CCCommandLink@DirectUI@@SAPEAUIClassInfo@2@XZ" PURGE="0" COMMENT="" />
    <EXPORT ORDINAL="1368" NAME="?GetClassInfoPtr@CCHScrollBar@DirectUI@@SAPEAUIClassInfo@2@XZ" PURGE="0" COMMENT="" />
    <EXPORT ORDINAL="1369" NAME="?GetClassInfoPtr@CCListBox@DirectUI@@SAPEAUIClassInfo@2@XZ" PURGE="0" COMMENT="" />
    <EXPORT ORDINAL="1370" NAME="?GetClassInfoPtr@CCListView@DirectUI@@SAPEAUIClassInfo@2@XZ" PURGE="0" COMMENT="" />
    <EXPORT ORDINAL="1371" NAME="?GetClassInfoPtr@CCProgressBar@DirectUI@@SAPEAUIClassInfo@2@XZ" PURGE="0" COMMENT="" />
    <EXPORT ORDINAL="1372" NAME="?GetClassInfoPtr@CCPushButton@DirectUI@@SAPEAUIClassInfo@2@XZ" PURGE="0" COMMENT="" />
    <EXPORT ORDINAL="1373" NAME="?GetClassInfoPtr@CCRadioButton@DirectUI@@SAPEAUIClassInfo@2@XZ" PURGE="0" COMMENT="" />
    <EXPORT ORDINAL="1374" NAME="?GetClassInfoPtr@CCSysLink@DirectUI@@SAPEAUIClassInfo@2@XZ" PURGE="0" COMMENT="" />
    <EXPORT ORDINAL="1375" NAME="?GetClassInfoPtr@CCTrackBar@DirectUI@@SAPEAUIClassInfo@2@XZ" PURGE="0" COMMENT="" />
    <EXPORT ORDINAL="1376" NAME="?GetClassInfoPtr@CCTreeView@DirectUI@@SAPEAUIClassInfo@2@XZ" PURGE="0" COMMENT="" />
    <EXPORT ORDINAL="1377" NAME="?GetClassInfoPtr@CCVScrollBar@DirectUI@@SAPEAUIClassInfo@2@XZ" PURGE="0" COMMENT="" />
    <EXPORT ORDINAL="1378" NAME="?GetClassInfoPtr@CheckBoxGlyph@DirectUI@@SAPEAUIClassInfo@2@XZ" PURGE="0" COMMENT="" />
    <EXPORT ORDINAL="1379" NAME="?GetClassInfoPtr@Clipper@DirectUI@@SAPEAUIClassInfo@2@XZ" PURGE="0" COMMENT="" />
    <EXPORT ORDINAL="1380" NAME="?GetClassInfoPtr@Combobox@DirectUI@@SAPEAUIClassInfo@2@XZ" PURGE="0" COMMENT="" />
    <EXPORT ORDINAL="1381" NAME="?GetClassInfoPtr@DialogElement@DirectUI@@SAPEAUIClassInfo@2@XZ" PURGE="0" COMMENT="" />
    <EXPORT ORDINAL="1382" NAME="?GetClassInfoPtr@Edit@DirectUI@@SAPEAUIClassInfo@2@XZ" PURGE="0" COMMENT="" />
    <EXPORT ORDINAL="1383" NAME="?GetClassInfoPtr@Element@DirectUI@@SAPEAUIClassInfo@2@XZ" PURGE="0" COMMENT="" />
    <EXPORT ORDINAL="1384" NAME="?GetClassInfoPtr@ElementWithHWND@DirectUI@@SAPEAUIClassInfo@2@XZ" PURGE="0" COMMENT="" />
    <EXPORT ORDINAL="1385" NAME="?GetClassInfoPtr@Expandable@DirectUI@@SAPEAUIClassInfo@2@XZ" PURGE="0" COMMENT="" />
    <EXPORT ORDINAL="1386" NAME="?GetClassInfoPtr@Expando@DirectUI@@SAPEAUIClassInfo@2@XZ" PURGE="0" COMMENT="" />
    <EXPORT ORDINAL="1387" NAME="?GetClassInfoPtr@ExpandoButtonGlyph@DirectUI@@SAPEAUIClassInfo@2@XZ" PURGE="0" COMMENT="" />
    <EXPORT ORDINAL="1388" NAME="?GetClassInfoPtr@HWNDElement@DirectUI@@SAPEAUIClassInfo@2@XZ" PURGE="0" COMMENT="" />
    <EXPORT ORDINAL="1389" NAME="?GetClassInfoPtr@HWNDHost@DirectUI@@SAPEAUIClassInfo@2@XZ" PURGE="0" COMMENT="" />
    <EXPORT ORDINAL="1390" NAME="?GetClassInfoPtr@Macro@DirectUI@@SAPEAUIClassInfo@2@XZ" PURGE="0" COMMENT="" />
    <EXPORT ORDINAL="1391" NAME="?GetClassInfoPtr@Movie@DirectUI@@SAPEAUIClassInfo@2@XZ" PURGE="0" COMMENT="" />
    <EXPORT ORDINAL="1392" NAME="?GetClassInfoPtr@Navigator@DirectUI@@SAPEAUIClassInfo@2@XZ" PURGE="0" COMMENT="" />
    <EXPORT ORDINAL="1393" NAME="?GetClassInfoPtr@PText@DirectUI@@SAPEAUIClassInfo@2@XZ" PURGE="0" COMMENT="" />
    <EXPORT ORDINAL="1394" NAME="?GetClassInfoPtr@Page@DirectUI@@SAPEAUIClassInfo@2@XZ" PURGE="0" COMMENT="" />
    <EXPORT ORDINAL="1395" NAME="?GetClassInfoPtr@Pages@DirectUI@@SAPEAUIClassInfo@2@XZ" PURGE="0" COMMENT="" />
    <EXPORT ORDINAL="1396" NAME="?GetClassInfoPtr@Progress@DirectUI@@SAPEAUIClassInfo@2@XZ" PURGE="0" COMMENT="" />
    <EXPORT ORDINAL="1397" NAME="?GetClassInfoPtr@PushButton@DirectUI@@SAPEAUIClassInfo@2@XZ" PURGE="0" COMMENT="" />
    <EXPORT ORDINAL="1398" NAME="?GetClassInfoPtr@RadioButtonGlyph@DirectUI@@SAPEAUIClassInfo@2@XZ" PURGE="0" COMMENT="" />
    <EXPORT ORDINAL="1399" NAME="?GetClassInfoPtr@RefPointElement@DirectUI@@SAPEAUIClassInfo@2@XZ" PURGE="0" COMMENT="" />
    <EXPORT ORDINAL="1400" NAME="?GetClassInfoPtr@RepeatButton@DirectUI@@SAPEAUIClassInfo@2@XZ" PURGE="0" COMMENT="" />
    <EXPORT ORDINAL="1401" NAME="?GetClassInfoPtr@Repeater@DirectUI@@SAPEAUIClassInfo@2@XZ" PURGE="0" COMMENT="" />
    <EXPORT ORDINAL="1402" NAME="?GetClassInfoPtr@ScrollBar@DirectUI@@SAPEAUIClassInfo@2@XZ" PURGE="0" COMMENT="" />
    <EXPORT ORDINAL="1403" NAME="?GetClassInfoPtr@ScrollViewer@DirectUI@@SAPEAUIClassInfo@2@XZ" PURGE="0" COMMENT="" />
    <EXPORT ORDINAL="1404" NAME="?GetClassInfoPtr@Selector@DirectUI@@SAPEAUIClassInfo@2@XZ" PURGE="0" COMMENT="" />
    <EXPORT ORDINAL="1405" NAME="?GetClassInfoPtr@SelectorNoDefault@DirectUI@@SAPEAUIClassInfo@2@XZ" PURGE="0" COMMENT="" />
    <EXPORT ORDINAL="1406" NAME="?GetClassInfoPtr@StyledScrollViewer@DirectUI@@SAPEAUIClassInfo@2@XZ" PURGE="0" COMMENT="" />
    <EXPORT ORDINAL="1407" NAME="?GetClassInfoPtr@TextGraphic@DirectUI@@SAPEAUIClassInfo@2@XZ" PURGE="0" COMMENT="" />
    <EXPORT ORDINAL="1408" NAME="?GetClassInfoPtr@Thumb@DirectUI@@SAPEAUIClassInfo@2@XZ" PURGE="0" COMMENT="" />
    <EXPORT ORDINAL="1409" NAME="?GetClassInfoPtr@UnknownElement@DirectUI@@SAPEAUIClassInfo@2@XZ" PURGE="0" COMMENT="" />
    <EXPORT ORDINAL="1410" NAME="?GetClassInfoPtr@Viewer@DirectUI@@SAPEAUIClassInfo@2@XZ" PURGE="0" COMMENT="" />
    <EXPORT ORDINAL="1411" NAME="?GetClassInfoPtr@XBaby@DirectUI@@SAPEAUIClassInfo@2@XZ" PURGE="0" COMMENT="" />
    <EXPORT ORDINAL="1412" NAME="?GetClassInfoPtr@XElement@DirectUI@@SAPEAUIClassInfo@2@XZ" PURGE="0" COMMENT="" />
    <EXPORT ORDINAL="1413" NAME="?GetClickablePoint@Element@DirectUI@@QEAA_NPEAUtagPOINT@@@Z" PURGE="0" COMMENT="" />
    <EXPORT ORDINAL="1414" NAME="?GetClientAccessibleImpl@HWNDHost@DirectUI@@QEAAJPEAPEAUIAccessible@@@Z" PURGE="0" COMMENT="" />
    <EXPORT ORDINAL="1415" NAME="?GetColorTrans@Value@DirectUI@@SAPEAV12@XZ" PURGE="0" COMMENT="" />
    <EXPORT ORDINAL="1416" NAME="?GetColorize@Element@DirectUI@@QEAAHXZ" PURGE="0" COMMENT="" />
    <EXPORT ORDINAL="1417" NAME="?GetColumn@GridItemProxy@DirectUI@@AEAAJPEAH@Z" PURGE="0" COMMENT="" />
    <EXPORT ORDINAL="1418" NAME="?GetColumnCount@GridProxy@DirectUI@@AEAAJPEAH@Z" PURGE="0" COMMENT="" />
    <EXPORT ORDINAL="1419" NAME="?GetColumnHeaderItems@TableItemProvider@DirectUI@@UEAAJPEAPEAUtagSAFEARRAY@@@Z" PURGE="0" COMMENT="" />
    <EXPORT ORDINAL="1420" NAME="?GetColumnHeaders@TableProvider@DirectUI@@UEAAJPEAPEAUtagSAFEARRAY@@@Z" PURGE="0" COMMENT="" />
    <EXPORT ORDINAL="1421" NAME="?GetCommonDrawTextFlags@Element@DirectUI@@AEAAIH@Z" PURGE="0" COMMENT="" />
    <EXPORT ORDINAL="1422" NAME="?GetCompositingQuality@Movie@DirectUI@@QEAAHXZ" PURGE="0" COMMENT="" />
    <EXPORT ORDINAL="1423" NAME="?GetConnect@Bind@DirectUI@@QEAAPEBGPEAPEAVValue@2@@Z" PURGE="0" COMMENT="" />
    <EXPORT ORDINAL="1424" NAME="?GetContainingGrid@GridItemProxy@DirectUI@@AEAAJPEAPEAUIRawElementProviderSimple@@@Z" PURGE="0" COMMENT="" />
    <EXPORT ORDINAL="1425" NAME="?GetContent@ElementProxy@DirectUI@@IEAAJPEAUtagVARIANT@@PEAUIAccessible@@@Z" PURGE="0" COMMENT="" />
    <EXPORT ORDINAL="1426" NAME="?GetContent@Viewer@DirectUI@@AEAAPEAVElement@2@XZ" PURGE="0" COMMENT="" />
    <EXPORT ORDINAL="1427" NAME="?GetContentAlign@Element@DirectUI@@QEAAHXZ" PURGE="0" COMMENT="" />
    <EXPORT ORDINAL="1428" NAME="?GetContentDesiredSize@XBaby@DirectUI@@QEAA?AUtagSIZE@@HH@Z" PURGE="0" COMMENT="" />
    <EXPORT ORDINAL="1429" NAME="?GetContentSize@CCBase@DirectUI@@UEAA?AUtagSIZE@@HHPEAVSurface@2@@Z" PURGE="0" COMMENT="" />
    <EXPORT ORDINAL="1430" NAME="?GetContentSize@CCBaseCheckRadioButton@DirectUI@@UEAA?AUtagSIZE@@HHPEAVSurface@2@@Z" PURGE="0" COMMENT="" />
    <EXPORT ORDINAL="1431" NAME="?GetContentSize@CCCommandLink@DirectUI@@UEAA?AUtagSIZE@@HHPEAVSurface@2@@Z" PURGE="0" COMMENT="" />
    <EXPORT ORDINAL="1432" NAME="?GetContentSize@CCHScrollBar@DirectUI@@UEAA?AUtagSIZE@@HHPEAVSurface@2@@Z" PURGE="0" COMMENT="" />
    <EXPORT ORDINAL="1433" NAME="?GetContentSize@CCListBox@DirectUI@@UEAA?AUtagSIZE@@HHPEAVSurface@2@@Z" PURGE="0" COMMENT="" />
    <EXPORT ORDINAL="1434" NAME="?GetContentSize@CCListView@DirectUI@@UEAA?AUtagSIZE@@HHPEAVSurface@2@@Z" PURGE="0" COMMENT="" />
    <EXPORT ORDINAL="1435" NAME="?GetContentSize@CCPushButton@DirectUI@@UEAA?AUtagSIZE@@HHPEAVSurface@2@@Z" PURGE="0" COMMENT="" />
    <EXPORT ORDINAL="1436" NAME="?GetContentSize@CCSysLink@DirectUI@@UEAA?AUtagSIZE@@HHPEAVSurface@2@@Z" PURGE="0" COMMENT="" />
    <EXPORT ORDINAL="1437" NAME="?GetContentSize@CCTreeView@DirectUI@@UEAA?AUtagSIZE@@HHPEAVSurface@2@@Z" PURGE="0" COMMENT="" />
    <EXPORT ORDINAL="1438" NAME="?GetContentSize@CCVScrollBar@DirectUI@@UEAA?AUtagSIZE@@HHPEAVSurface@2@@Z" PURGE="0" COMMENT="" />
    <EXPORT ORDINAL="1439" NAME="?GetContentSize@Combobox@DirectUI@@UEAA?AUtagSIZE@@HHPEAVSurface@2@@Z" PURGE="0" COMMENT="" />
    <EXPORT ORDINAL="1440" NAME="?GetContentSize@Edit@DirectUI@@UEAA?AUtagSIZE@@HHPEAVSurface@2@@Z" PURGE="0" COMMENT="" />
    <EXPORT ORDINAL="1441" NAME="?GetContentSize@Element@DirectUI@@UEAA?AUtagSIZE@@HHPEAVSurface@2@@Z" PURGE="0" COMMENT="" />
    <EXPORT ORDINAL="1442" NAME="?_SelfLayoutUpdateDesiredSize@Element@DirectUI@@MEAA?AUtagSIZE@@HHPEAVSurface@2@@Z" PURGE="0" COMMENT="" />
    <EXPORT ORDINAL="1443" NAME="?GetContentSize@PushButton@DirectUI@@UEAA?AUtagSIZE@@HHPEAVSurface@2@@Z" PURGE="0" COMMENT="" />
    <EXPORT ORDINAL="1444" NAME="?GetContentString@Element@DirectUI@@QEAAPEBGPEAPEAVValue@2@@Z" PURGE="0" COMMENT="" />
    <EXPORT ORDINAL="1445" NAME="?GetContentStringAsDisplayed@Edit@DirectUI@@UEAAPEBGPEAPEAVValue@2@@Z" PURGE="0" COMMENT="" />
    <EXPORT ORDINAL="1446" NAME="?GetContentStringAsDisplayed@Element@DirectUI@@UEAAPEBGPEAPEAVValue@2@@Z" PURGE="0" COMMENT="" />
    <EXPORT ORDINAL="1447" NAME="?GetContentStringAsDisplayed@TextGraphic@DirectUI@@UEAAPEBGPEAPEAVValue@2@@Z" PURGE="-1" COMMENT="" />
    <EXPORT ORDINAL="1448" NAME="?GetControlType@ElementProxy@DirectUI@@IEAAXPEAUtagVARIANT@@PEAUIAccessible@@@Z" PURGE="0" COMMENT="" />
    <EXPORT ORDINAL="1449" NAME="?GetCount@CCListBox@DirectUI@@QEAAHXZ" PURGE="-1" COMMENT="" />
    <EXPORT ORDINAL="1450" NAME="?GetCount@Pages@DirectUI@@QEAAIXZ" PURGE="0" COMMENT="" />
    <EXPORT ORDINAL="1451" NAME="?GetCurrentCols@GridLayout@DirectUI@@IEAAIH@Z" PURGE="0" COMMENT="" />
    <EXPORT ORDINAL="1452" NAME="?GetCurrentCols@GridLayout@DirectUI@@IEAAIPEAVElement@2@@Z" PURGE="0" COMMENT="" />
    <EXPORT ORDINAL="1453" NAME="?GetHWND@HWNDElement@DirectUI@@UEAAPEAUHWND__@@XZ" PURGE="0" COMMENT="" />
    <EXPORT ORDINAL="1454" NAME="?GetCurrentPageID@Browser@DirectUI@@QEAAGXZ" PURGE="0" COMMENT="" />
    <EXPORT ORDINAL="1455" NAME="?GetCurrentRows@GridLayout@DirectUI@@IEAAIH@Z" PURGE="0" COMMENT="" />
    <EXPORT ORDINAL="1456" NAME="?GetCurrentRows@GridLayout@DirectUI@@IEAAIPEAVElement@2@@Z" PURGE="0" COMMENT="" />
    <EXPORT ORDINAL="1457" NAME="?GetFill@Value@DirectUI@@QEAAPEBUFill@2@XZ" PURGE="0" COMMENT="" />
    <EXPORT ORDINAL="1458" NAME="?GetCursorNull@Value@DirectUI@@SAPEAV12@XZ" PURGE="0" COMMENT="" />
    <EXPORT ORDINAL="1459" NAME="?GetDPI@Element@DirectUI@@QEAAHXZ" PURGE="0" COMMENT="" />
    <EXPORT ORDINAL="1460" NAME="?GetHWND@HWNDHost@DirectUI@@UEAAPEAUHWND__@@XZ" PURGE="0" COMMENT="" />
    <EXPORT ORDINAL="1461" NAME="?GetDefaultButton@DialogElement@DirectUI@@UEAAPEAVElement@2@XZ" PURGE="0" COMMENT="" />
    <EXPORT ORDINAL="1462" NAME="?GetDefaultButtonTracking@DialogElement@DirectUI@@QEAA_NXZ" PURGE="0" COMMENT="" />
    <EXPORT ORDINAL="1463" NAME="?GetDeferObject@Element@DirectUI@@QEAAPEAVDeferCycle@2@XZ" PURGE="0" COMMENT="" />
    <EXPORT ORDINAL="1464" NAME="?GetDesiredSize@Element@DirectUI@@QEAAPEBUtagSIZE@@XZ" PURGE="0" COMMENT="" />
    <EXPORT ORDINAL="1465" NAME="?GetDesiredSize@XProvider@DirectUI@@UEAAJHHPEAUtagSIZE@@@Z" PURGE="0" COMMENT="" />
    <EXPORT ORDINAL="1466" NAME="?GetDirection@Element@DirectUI@@QEAAHXZ" PURGE="0" COMMENT="" />
    <EXPORT ORDINAL="1467" NAME="?GetDirty@Edit@DirectUI@@QEAA_NXZ" PURGE="0" COMMENT="" />
    <EXPORT ORDINAL="1468" NAME="?GetDispatchFromElement@DuiAccessible@DirectUI@@IEAAJPEAVElement@2@PEAPEAUIDispatch@@@Z" PURGE="0" COMMENT="" />
    <EXPORT ORDINAL="1469" NAME="?GetElement@Value@DirectUI@@QEAAPEAVElement@2@XZ" PURGE="0" COMMENT="" />
    <EXPORT ORDINAL="1470" NAME="?GetDrawOutlines@Movie@DirectUI@@QEAA_NXZ" PURGE="0" COMMENT="" />
    <EXPORT ORDINAL="1471" NAME="?GetElListNull@Value@DirectUI@@SAPEAV12@XZ" PURGE="0" COMMENT="" />
    <EXPORT ORDINAL="1472" NAME="?GetElement@CCBaseScrollBar@DirectUI@@UEAAPEAVElement@2@XZ" PURGE="0" COMMENT="" />
    <EXPORT ORDINAL="1473" NAME="?GetElement@ElementProvider@DirectUI@@UEAAPEDVElement@2@XZ" PURGE="0" COMMENT="" />
    <EXPORT ORDINAL="1474" NAME="?GetParser@DUIFactory@DirectUI@@QEAAPEAVDUIXmlParser@2@XZ" PURGE="0" COMMENT="" />
    <EXPORT ORDINAL="1475" NAME="?GetElement@ScrollBar@DirectUI@@UEAAPEAVElement@2@XZ" PURGE="0" COMMENT="" />
    <EXPORT ORDINAL="1476" NAME="?GetElement@TaskPage@DirectUI@@IEAAPEAVElement@2@XZ" PURGE="0" COMMENT="" />
    <EXPORT ORDINAL="1477" NAME="?GetElement@XHost@DirectUI@@QEAAPEAVElement@2@XZ" PURGE="0" COMMENT="" />
    <EXPORT ORDINAL="1478" NAME="?GetElementList@Value@DirectUI@@QEAAPEAV?$DynamicArray@PEAVElement@DirectUI@@$0A@@2@XZ" PURGE="0" COMMENT="" />
    <EXPORT ORDINAL="1479" NAME="?GetElementKey@ElementProvider@DirectUI@@QEAAPEBVElement@2@XZ" PURGE="0" COMMENT="" />
    <EXPORT ORDINAL="1480" NAME="?GetExpression@Value@DirectUI@@QEAAPEAVExpression@2@XZ" PURGE="0" COMMENT="" />
    <EXPORT ORDINAL="1481" NAME="?GetElementNull@Value@DirectUI@@SAPEAV12@XZ" PURGE="0" COMMENT="" />
    <EXPORT ORDINAL="1482" NAME="?GetIDsOfNames@DuiAccessible@DirectUI@@UEAAJAEBU_GUID@@PEAPEAGIKPEAJ@Z" PURGE="0" COMMENT="" />
    <EXPORT ORDINAL="1483" NAME="?GetRowHeaderItems@TableItemProvider@DirectUI@@UEAAJPEAPEAUtagSAFEARRAY@@@Z" PURGE="0" COMMENT="" />
    <EXPORT ORDINAL="1484" NAME="?GetEnabled@Element@DirectUI@@QEAA_NXZ" PURGE="0" COMMENT="" />
    <EXPORT ORDINAL="1485" NAME="?GetEncodedContentString@Element@DirectUI@@QEAAJPEAG_K@Z" PURGE="0" COMMENT="" />
    <EXPORT ORDINAL="1486" NAME="?GetEnforceSize@PushButton@DirectUI@@QEAA_NXZ" PURGE="0" COMMENT="" />
    <EXPORT ORDINAL="1487" NAME="?GetExpand@Macro@DirectUI@@QEAAPEBGPEAPEAVValue@2@@Z" PURGE="0" COMMENT="" />
    <EXPORT ORDINAL="1488" NAME="?GetExpandCollapseState@EventManager@DirectUI@@CAXPEAUtagVARIANT@@@Z" PURGE="0" COMMENT="" />
    <EXPORT ORDINAL="1489" NAME="?GetExpanded@Expandable@DirectUI@@QEAA_NXZ" PURGE="0" COMMENT="" />
    <EXPORT ORDINAL="1490" NAME="?GetExprNull@Value@DirectUI@@SAPEAV12@XZ" PURGE="0" COMMENT="" />
    <EXPORT ORDINAL="1491" NAME="?GetHDC@DCSurface@DirectUI@@QEAAPEAUHDC__@@XZ" PURGE="0" COMMENT="" />
    <EXPORT ORDINAL="1492" NAME="?GetExtent@Element@DirectUI@@QEAAPEBUtagSIZE@@PEAPEAVValue@2@@Z" PURGE="0" COMMENT="" />
    <EXPORT ORDINAL="1493" NAME="?GetFactoryLock@Element@DirectUI@@SAPEAU_RTL_CRITICAL_SECTION@@XZ" PURGE="0" COMMENT="" />
    <EXPORT ORDINAL="1494" NAME="?GetGraphic@Value@DirectUI@@QEAAPEAUGraphic@2@XZ" PURGE="0" COMMENT="" />
    <EXPORT ORDINAL="1495" NAME="?GetFocus@HWNDElementProvider@DirectUI@@UEAAJPEAPEAUIRawElementProviderFragment@@@Z" PURGE="0" COMMENT="" />
    <EXPORT ORDINAL="1496" NAME="?GetFocus@HWNDElementProxy@DirectUI@@IEAAJPEAPEAUIRawElementProviderFragment@@@Z" PURGE="0" COMMENT="" />
    <EXPORT ORDINAL="1497" NAME="?GetFocusableElement@XBaby@DirectUI@@UEAAPEAVElement@2@XZ" PURGE="0" COMMENT="" />
    <EXPORT ORDINAL="1498" NAME="?GetFocusedHWNDElement@HWNDElement@DirectUI@@SAPEAV12@XZ" PURGE="0" COMMENT="" />
    <EXPORT ORDINAL="1499" NAME="?GetFont@Element@DirectUI@@QEAAPEBGPEAPEAVValue@2@@Z" PURGE="0" COMMENT="" />
    <EXPORT ORDINAL="1500" NAME="?GetFont@HWNDHost@DirectUI@@IEAAPEAUHFONT__@@XZ" PURGE="0" COMMENT="" />
    <EXPORT ORDINAL="1501" NAME="?GetFontFace@Element@DirectUI@@QEAAPEBGPEAPEAVValue@2@@Z" PURGE="0" COMMENT="" />
    <EXPORT ORDINAL="1502" NAME="?GetFontQuality@Element@DirectUI@@QEAAHXZ" PURGE="0" COMMENT="" />
    <EXPORT ORDINAL="1503" NAME="?GetFontSize@Element@DirectUI@@QEAAHXZ" PURGE="0" COMMENT="" />
    <EXPORT ORDINAL="1504" NAME="?GetFontStyle@Element@DirectUI@@QEAAHXZ" PURGE="0" COMMENT="" />
    <EXPORT ORDINAL="1505" NAME="?GetFontWeight@Element@DirectUI@@QEAAHXZ" PURGE="0" COMMENT="" />
    <EXPORT ORDINAL="1506" NAME="?GetForegroundColor@Element@DirectUI@@QEAAPEBUFill@2@PEAPEAVValue@2@@Z" PURGE="0" COMMENT="" />
    <EXPORT ORDINAL="1507" NAME="?GetForegroundStdColor@Element@DirectUI@@QEAAHXZ" PURGE="0" COMMENT="" />
    <EXPORT ORDINAL="1508" NAME="?GetFragmentRoot@ElementProxy@DirectUI@@IEAAJPEAPEAUIRawElementProviderFragmentRoot@@@Z" PURGE="0" COMMENT="" />
    <EXPORT ORDINAL="1509" NAME="?GetFrameDuration@AnimationStrip@DirectUI@@QEAAHXZ" PURGE="0" COMMENT="" />
    <EXPORT ORDINAL="1510" NAME="?GetFrameIndex@AnimationStrip@DirectUI@@QEAAHXZ" PURGE="0" COMMENT="" />
    <EXPORT ORDINAL="1511" NAME="?GetFrameWidth@AnimationStrip@DirectUI@@QEAAHXZ" PURGE="0" COMMENT="" />
    <EXPORT ORDINAL="1512" NAME="?GetGetSheetCallback@DUIXmlParser@DirectUI@@QEAAP6APEAVValue@2@PEBGPEAX@ZXZ" PURGE="0" COMMENT="" />
    <EXPORT ORDINAL="1513" NAME="?GetGlobalIndex@ClassInfoBase@DirectUI@@UEBAIXZ" PURGE="0" COMMENT="" />
    <EXPORT ORDINAL="1514" NAME="?GetPoint@Value@DirectUI@@QEAAPEBUtagPOINT@@XZ" PURGE="0" COMMENT="" />
    <EXPORT ORDINAL="1515" NAME="?GetHWND@NativeHWNDHost@DirectUI@@QEAAPEAUHWND__@@XZ" PURGE="0" COMMENT="" />
    <EXPORT ORDINAL="1516" NAME="?GetResourceHInstance@DUIXmlParser@DirectUI@@QEAAPEAUHINSTANCE__@@XZ" PURGE="0" COMMENT="" />
    <EXPORT ORDINAL="1517" NAME="?GetHScroll@ScrollViewer@DirectUI@@MEAAPEAVBaseScrollBar@2@XZ" PURGE="0" COMMENT="" />
    <EXPORT ORDINAL="1518" NAME="?GetHScroll@StyledScrollViewer@DirectUI@@MEAAPEAVBaseScrollBar@2@XZ" PURGE="0" COMMENT="" />
    <EXPORT ORDINAL="1519" NAME="?GetCurrentPage@Browser@DirectUI@@QEAAPEAVElement@2@XZ" PURGE="0" COMMENT="" />
    <EXPORT ORDINAL="1520" NAME="?GetDataEntry@Macro@DirectUI@@QEAAPEAUIDataEntry@2@XZ" PURGE="0" COMMENT="" />
    <EXPORT ORDINAL="1521" NAME="?GetLayout@Value@DirectUI@@QEAAPEAVLayout@2@XZ" PURGE="0" COMMENT="" />
    <EXPORT ORDINAL="1522" NAME="?GetHWND@XHost@DirectUI@@QEAAPEAUHWND__@@XZ" PURGE="0" COMMENT="" />
    <EXPORT ORDINAL="1523" NAME="?GetHWNDParent@HWNDHost@DirectUI@@QEAAPEAUHWND__@@XZ" PURGE="0" COMMENT="" />
    <EXPORT ORDINAL="1524" NAME="?GetHandle@ResourceModuleHandles@DirectUI@@QEAAJPEBGPEAPEAUHINSTANCE__@@@Z" PURGE="0" COMMENT="" />
    <EXPORT ORDINAL="1525" NAME="?GetHandleEnterKey@DialogElement@DirectUI@@QEAA_NXZ" PURGE="0" COMMENT="" />
    <EXPORT ORDINAL="1526" NAME="?GetHasShield@CCPushButton@DirectUI@@QEAA_NXZ" PURGE="0" COMMENT="" />
    <EXPORT ORDINAL="1527" NAME="?GetHeight@Element@DirectUI@@QEAAHXZ" PURGE="0" COMMENT="" />
    <EXPORT ORDINAL="1528" NAME="?GetHighDPI@Element@DirectUI@@QEAA_NXZ" PURGE="0" COMMENT="" />
    <EXPORT ORDINAL="1529" NAME="?GetHostedElementID@XBaby@DirectUI@@QEAAJPEAG@Z" PURGE="0" COMMENT="" />
    <EXPORT ORDINAL="1530" NAME="?GetHostedElementID@XProvider@DirectUI@@UEAAJPEAG@Z" PURGE="0" COMMENT="" />
    <EXPORT ORDINAL="1531" NAME="?GetHwnd@ElementProxy@DirectUI@@IEAAJPEAPEAUHWND__@@@Z" PURGE="0" COMMENT="" />
    <EXPORT ORDINAL="1532" NAME="?GetID@Element@DirectUI@@QEAAGXZ" PURGE="0" COMMENT="" />
    <EXPORT ORDINAL="1533" NAME="?GetIdentityString@DuiAccessible@DirectUI@@UEAAJKPEAPEAEPEAK@Z" PURGE="0" COMMENT="" />
    <EXPORT ORDINAL="1534" NAME="?GetTypeInfo@DuiAccessible@DirectUI@@UEAAJIKPEAPEAUITypeInfo@@@Z" PURGE="0" COMMENT="" />
    <EXPORT ORDINAL="1535" NAME="?GetIdentityString@HWNDHostAccessible@DirectUI@@UEAAJKPEAPEAEPEAK@Z" PURGE="0" COMMENT="" />
    <EXPORT ORDINAL="1536" NAME="?GetImage@Value@DirectUI@@QEAAPEAX_N@Z" PURGE="0" COMMENT="" />
    <EXPORT ORDINAL="1537" NAME="?GetImmediateChild@Element@DirectUI@@QEAAPEAV12@PEAV12@@Z" PURGE="0" COMMENT="" />
    <EXPORT ORDINAL="1538" NAME="?GetIndex@Element@DirectUI@@QEAAHXZ" PURGE="0" COMMENT="" />
    <EXPORT ORDINAL="1539" NAME="?GetInnerHWND@XElement@DirectUI@@QEAAPEAUHWND__@@XZ" PURGE="0" COMMENT="" />
    <EXPORT ORDINAL="1540" NAME="?GetInt@EventManager@DirectUI@@CAJPEAUtagVARIANT@@PEAVValue@2@@Z" PURGE="0" COMMENT="" />
    <EXPORT ORDINAL="1541" NAME="?Count@?$SafeArrayAccessor@H@DirectUI@@QEAAHXZ" PURGE="0" COMMENT="" />
    <EXPORT ORDINAL="1542" NAME="?GetIntZero@Value@DirectUI@@SAPEAV12@XZ" PURGE="0" COMMENT="" />
    <EXPORT ORDINAL="1543" NAME="?GetInterpolationMode@Movie@DirectUI@@QEAAHXZ" PURGE="0" COMMENT="" />
    <EXPORT ORDINAL="1544" NAME="?GetInvokeHelper@InvokeManager@DirectUI@@SAJPEAPEAVInvokeHelper@2@@Z" PURGE="0" COMMENT="" />
    <EXPORT ORDINAL="1545" NAME="?GetIsReadOnly@ValueProxy@DirectUI@@AEAAJPEAH@Z" PURGE="0" COMMENT="" />
    <EXPORT ORDINAL="1546" NAME="?GetIsSelected@NavigatorSelectionItemProxy@DirectUI@@AEAAJPEAVBrowser@2@PEAH@Z" PURGE="0" COMMENT="" />
    <EXPORT ORDINAL="1547" NAME="?GetIsSelectionRequired@BrowserSelectionProxy@DirectUI@@AEAAJPEAH@Z" PURGE="0" COMMENT="" />
    <EXPORT ORDINAL="1548" NAME="?GetIsSelectionRequired@SelectorSelectionProxy@DirectUI@@AEAAJPEAH@Z" PURGE="0" COMMENT="" />
    <EXPORT ORDINAL="1549" NAME="?GetItem@GridProvider@DirectUI@@UEAAJHHPEAPEAUIRawElementProviderSimple@@@Z" PURGE="0" COMMENT="" />
    <EXPORT ORDINAL="1550" NAME="?GetItem@GridProxy@DirectUI@@AEAAJIIPEAPEAUIRawElementProviderSimple@@@Z" PURGE="0" COMMENT="" />
    <EXPORT ORDINAL="1551" NAME="?GetItemState@CCTreeView@DirectUI@@QEAAIQEAU_TREEITEM@@@Z" PURGE="0" COMMENT="" />
    <EXPORT ORDINAL="1552" NAME="?GetKeyFocused@Element@DirectUI@@UEAA_NXZ" PURGE="0" COMMENT="" />
    <EXPORT ORDINAL="1553" NAME="?GetKeyFocused@HWNDHost@DirectUI@@UEAA_NXZ" PURGE="0" COMMENT="" />
    <EXPORT ORDINAL="1554" NAME="?GetKeyFocusedElement@HWNDElement@DirectUI@@SAPEAVElement@2@XZ" PURGE="0" COMMENT="" />
    <EXPORT ORDINAL="1555" NAME="?GetKeyWithin@Element@DirectUI@@QEAA_NXZ" PURGE="0" COMMENT="" />
    <EXPORT ORDINAL="1556" NAME="?GetKeyWithinChild@Element@DirectUI@@QEAAPEAV12@XZ" PURGE="0" COMMENT="" />
    <EXPORT ORDINAL="1557" NAME="?GetLabel@ElementProxy@DirectUI@@IEAAJPEAUtagVARIANT@@@Z" PURGE="0" COMMENT="" />
    <EXPORT ORDINAL="1558" NAME="?GetLayout@Element@DirectUI@@QEAAPEAVLayout@2@PEAPEAVValue@2@@Z" PURGE="0" COMMENT="" />
    <EXPORT ORDINAL="1559" NAME="?GetRoot@XProvider@DirectUI@@IEAAPEAVElement@2@XZ" PURGE="0" COMMENT="" />
    <EXPORT ORDINAL="1560" NAME="?GetLayoutChildCount@Layout@DirectUI@@QEAAIPEAVElement@2@@Z" PURGE="0" COMMENT="" />
    <EXPORT ORDINAL="1561" NAME="?GetLayoutIndexFromChild@Layout@DirectUI@@QEAAHPEAVElement@2@0@Z" PURGE="0" COMMENT="" />
    <EXPORT ORDINAL="1562" NAME="?GetLayoutNull@Value@DirectUI@@SAPEAV12@XZ" PURGE="0" COMMENT="" />
    <EXPORT ORDINAL="1563" NAME="?GetLayoutPos@Element@DirectUI@@QEAAHXZ" PURGE="0" COMMENT="" />
    <EXPORT ORDINAL="1564" NAME="?GetLine@CCBaseScrollBar@DirectUI@@UEAAHXZ" PURGE="0" COMMENT="" />
    <EXPORT ORDINAL="1565" NAME="?GetLine@VerticalFlowLayout@DirectUI@@QEAAHPEAVElement@2@0@Z" PURGE="0" COMMENT="" />
    <EXPORT ORDINAL="1566" NAME="?GetLine@ScrollBar@DirectUI@@UEAAHXZ" PURGE="0" COMMENT="" />
    <EXPORT ORDINAL="1567" NAME="?GetLine@FlowLayout@DirectUI@@QEAAHPEAVElement@2@0@Z" PURGE="0" COMMENT="" />
    <EXPORT ORDINAL="1568" NAME="?GetLineSize@CCTrackBar@DirectUI@@QEAAHXZ" PURGE="0" COMMENT="" />
    <EXPORT ORDINAL="1569" NAME="?GetLocation@Element@DirectUI@@QEAAPEBUtagPOINT@@PEAPEAVValue@2@@Z" PURGE="0" COMMENT="" />
    <EXPORT ORDINAL="1570" NAME="?GetMargin@Element@DirectUI@@QEAAPEBUtagRECT@@PEAPEAVValue@2@@Z" PURGE="0" COMMENT="" />
    <EXPORT ORDINAL="1571" NAME="?GetMaxLength@Edit@DirectUI@@QEAAHXZ" PURGE="0" COMMENT="" />
    <EXPORT ORDINAL="1572" NAME="?GetMaximum@CCBaseScrollBar@DirectUI@@UEAAHXZ" PURGE="0" COMMENT="" />
    <EXPORT ORDINAL="1573" NAME="?GetMaximum@Progress@DirectUI@@QEAAHXZ" PURGE="0" COMMENT="" />
    <EXPORT ORDINAL="1574" NAME="?GetMaximum@ScrollBar@DirectUI@@UEAAHXZ" PURGE="0" COMMENT="" />
    <EXPORT ORDINAL="1575" NAME="?GetMinSize@Element@DirectUI@@QEAAPEBUtagSIZE@@PEAPEAVValue@2@@Z" PURGE="0" COMMENT="" />
    <EXPORT ORDINAL="1576" NAME="?GetMinimum@CCBaseScrollBar@DirectUI@@UEAAHXZ" PURGE="0" COMMENT="" />
    <EXPORT ORDINAL="1577" NAME="?GetMinimum@Progress@DirectUI@@QEAAHXZ" PURGE="0" COMMENT="" />
    <EXPORT ORDINAL="1578" NAME="?GetMinimum@ScrollBar@DirectUI@@UEAAHXZ" PURGE="0" COMMENT="" />
    <EXPORT ORDINAL="1579" NAME="?GetModule@ClassInfoBase@DirectUI@@UEBAPEAUHINSTANCE__@@XZ" PURGE="0" COMMENT="" />
    <EXPORT ORDINAL="1580" NAME="?GetModuleBase@CallstackTracker@DirectUI@@AEAA_KPEAX_K@Z" PURGE="0" COMMENT="" />
    <EXPORT ORDINAL="1581" NAME="?GetMouseFocused@Element@DirectUI@@QEAA_NXZ" PURGE="0" COMMENT="" />
    <EXPORT ORDINAL="1582" NAME="?GetMouseWithin@Element@DirectUI@@QEAA_NXZ" PURGE="0" COMMENT="" />
    <EXPORT ORDINAL="1583" NAME="?GetMouseWithinChild@Element@DirectUI@@QEAAPEAV12@XZ" PURGE="0" COMMENT="" />
    <EXPORT ORDINAL="1584" NAME="?GetMultiline@Edit@DirectUI@@QEAA_NXZ" PURGE="0" COMMENT="" />
    <EXPORT ORDINAL="1585" NAME="?GetName@ClassInfoBase@DirectUI@@UEBAPEBGXZ" PURGE="0" COMMENT="" />
    <EXPORT ORDINAL="1586" NAME="?GetNote@CCCommandLink@DirectUI@@QEAAPEBGPEAPEAVValue@2@@Z" PURGE="0" COMMENT="" />
    <EXPORT ORDINAL="1587" NAME="?GetNotificationSinkHWND@XElement@DirectUI@@UEAAPEAUHWND__@@XZ" PURGE="0" COMMENT="" />
    <EXPORT ORDINAL="1588" NAME="?GetNull@Value@DirectUI@@SAPEAV12@XZ" PURGE="0" COMMENT="" />
    <EXPORT ORDINAL="1589" NAME="?GetOptimizeMove@HWNDHost@DirectUI@@QEAA_NXZ" PURGE="0" COMMENT="" />
    <EXPORT ORDINAL="1590" NAME="?GetOrder@ScrollBar@DirectUI@@QEAAHXZ" PURGE="0" COMMENT="" />
    <EXPORT ORDINAL="1591" NAME="?GetOverhang@Element@DirectUI@@QEAA_NXZ" PURGE="0" COMMENT="" />
    <EXPORT ORDINAL="1592" NAME="?GetOverrideButtonBackground@CCPushButton@DirectUI@@QEAA_NXZ" PURGE="0" COMMENT="" />
    <EXPORT ORDINAL="1593" NAME="?GetPICount@ClassInfoBase@DirectUI@@UEBAIXZ" PURGE="0" COMMENT="" />
    <EXPORT ORDINAL="1594" NAME="?GetPadding@Element@DirectUI@@QEAAPEBUtagRECT@@PEAPEAVValue@2@@Z" PURGE="0" COMMENT="" />
    <EXPORT ORDINAL="1595" NAME="?GetPage@CCBaseScrollBar@DirectUI@@UEAAHXZ" PURGE="0" COMMENT="" />
    <EXPORT ORDINAL="1596" NAME="?GetPage@Pages@DirectUI@@QEAAPEAVElement@2@I@Z" PURGE="0" COMMENT="" />
    <EXPORT ORDINAL="1597" NAME="?GetPage@Pages@DirectUI@@QEAAPEAVElement@2@PEBG@Z" PURGE="0" COMMENT="" />
    <EXPORT ORDINAL="1598" NAME="?GetPage@ScrollBar@DirectUI@@UEAAHXZ" PURGE="0" COMMENT="" />
    <EXPORT ORDINAL="1599" NAME="?GetPageInc@BaseScrollBar@DirectUI@@AEAAHXZ" PURGE="0" COMMENT="" />
    <EXPORT ORDINAL="1600" NAME="?GetPageResID@TaskPage@DirectUI@@MEAAPEBGXZ" PURGE="0" COMMENT="" />
    <EXPORT ORDINAL="1601" NAME="?GetProxyCreator@?$PatternProvider@VExpandCollapseProvider@DirectUI@@UIExpandCollapseProvider@@$00@DirectUI@@UEAAP6APEAVProviderProxy@2@PEAVElement@2@@ZXZ" PURGE="0" COMMENT="" />
    <EXPORT ORDINAL="1602" NAME="?GetPages@Browser@DirectUI@@QEAAPEAVPages@2@XZ" PURGE="0" COMMENT="" />
    <EXPORT ORDINAL="1603" NAME="?GetSheetContext@DUIXmlParser@DirectUI@@QEAAPEAXXZ" PURGE="0" COMMENT="" />
    <EXPORT ORDINAL="1604" NAME="?GetParentHWND@TaskPage@DirectUI@@QEAAPEAUHWND__@@XZ" PURGE="0" COMMENT="" />
    <EXPORT ORDINAL="1605" NAME="??B?$SafeArrayAccessor@H@DirectUI@@QEAAPEAHXZ" PURGE="0" COMMENT="" />
    <EXPORT ORDINAL="1606" NAME="?GetParserCommon@DUIXmlParser@DirectUI@@IEAAJPEAPEAV12@@Z" PURGE="0" COMMENT="" />
    <EXPORT ORDINAL="1607" NAME="?GetPasswordCharacter@Edit@DirectUI@@QEAAHXZ" PURGE="0" COMMENT="" />
    <EXPORT ORDINAL="1608" NAME="?GetPath@Movie@DirectUI@@QEAAPEBGPEAPEAVValue@2@@Z" PURGE="0" COMMENT="" />
    <EXPORT ORDINAL="1609" NAME="?GetPatternProvider@ElementProvider@DirectUI@@UEAAJHPEAPEAUIUnknown@@@Z" PURGE="0" COMMENT="" />
    <EXPORT ORDINAL="1610" NAME="?GetPinning@BaseScrollViewer@DirectUI@@QEAAHXZ" PURGE="0" COMMENT="" />
    <EXPORT ORDINAL="1611" NAME="?GetPixelOffsetMode@Movie@DirectUI@@QEAAHXZ" PURGE="0" COMMENT="" />
    <EXPORT ORDINAL="1612" NAME="?GetPlay@AnimationStrip@DirectUI@@QEAA_NXZ" PURGE="0" COMMENT="" />
    <EXPORT ORDINAL="1613" NAME="?GetPlayAllFramesMode@Movie@DirectUI@@QEAA_NXZ" PURGE="0" COMMENT="" />
    <EXPORT ORDINAL="1614" NAME="?GetRect@Value@DirectUI@@QEAAPEBUtagRECT@@XZ" PURGE="0" COMMENT="" />
    <EXPORT ORDINAL="1615" NAME="?GetPointZero@Value@DirectUI@@SAPEAV12@XZ" PURGE="0" COMMENT="" />
    <EXPORT ORDINAL="1616" NAME="?GetPosition@CCBaseScrollBar@DirectUI@@UEAAHXZ" PURGE="0" COMMENT="" />
    <EXPORT ORDINAL="1617" NAME="?GetPosition@Progress@DirectUI@@QEAAHXZ" PURGE="0" COMMENT="" />
    <EXPORT ORDINAL="1618" NAME="?GetPosition@ScrollBar@DirectUI@@UEAAHXZ" PURGE="0" COMMENT="" />
    <EXPORT ORDINAL="1619" NAME="?GetPressed@Button@DirectUI@@QEAA_NXZ" PURGE="0" COMMENT="" />
    <EXPORT ORDINAL="1620" NAME="?GetProcs@Schema@DirectUI@@CAJXZ" PURGE="0" COMMENT="" />
    <EXPORT ORDINAL="1621" NAME="?GetPropValPairInfo@DUIXmlParser@DirectUI@@IEAAJPEAUIXmlReader@@PEAUIClassInfo@2@PEBG2PEAPEBUPropertyInfo@2@PEAPEAVValue@2@@Z" PURGE="0" COMMENT="" />
    <EXPORT ORDINAL="1622" NAME="?GetPropValPairInfo@DUIXmlParser@DirectUI@@IEAAJULINEINFO@2@PEAUIClassInfo@2@PEBG2PEAPEBUPropertyInfo@2@PEAPEAVValue@2@@Z" PURGE="0" COMMENT="" />
    <EXPORT ORDINAL="1623" NAME="?GetProperty@Bind@DirectUI@@QEAAPEBGPEAPEAVValue@2@@Z" PURGE="0" COMMENT="" />
    <EXPORT ORDINAL="1624" NAME="?GetProperty@ElementProxy@DirectUI@@IEAAJPEAUtagVARIANT@@H@Z" PURGE="0" COMMENT="" />
    <EXPORT ORDINAL="1625" NAME="?GetPropertyValue@ElementProvider@DirectUI@@UEAAJHPEAUtagVARIANT@@@Z" PURGE="0" COMMENT="" />
    <EXPORT ORDINAL="1626" NAME="?IsPatternSupported@ValueProxy@DirectUI@@SA_NPEAVElement@2@@Z" PURGE="0" COMMENT="" />
    <EXPORT ORDINAL="1627" NAME="?GetProportional@ScrollBar@DirectUI@@UEAA_NXZ" PURGE="0" COMMENT="" />
    <EXPORT ORDINAL="1628" NAME="?GetProvider@XElement@DirectUI@@QEAAPEAUIXProvider@2@XZ" PURGE="0" COMMENT="" />
    <EXPORT ORDINAL="1629" NAME="?GetProviderOptions@ElementProxy@DirectUI@@IEAAJPEAW4ProviderOptions@@@Z" PURGE="0" COMMENT="" />
    <EXPORT ORDINAL="1630" NAME="?GetProxyCreator@?$PatternProvider@VGridItemProvider@DirectUI@@UIGridItemProvider@@$01@DirectUI@@UEAAP6APEAVProviderProxy@2@PEAVElement@2@@ZXZ" PURGE="0" COMMENT="" />
    <EXPORT ORDINAL="1631" NAME="?GetProxyCreator@?$PatternProvider@VGridProvider@DirectUI@@UIGridProvider@@$02@DirectUI@@UEAAP6APEAVProviderProxy@2@PEAVElement@2@@ZXZ" PURGE="0" COMMENT="" />
    <EXPORT ORDINAL="1632" NAME="?GetProxyCreator@?$PatternProvider@VInvokeProvider@DirectUI@@UIInvokeProvider@@$0A@@DirectUI@@UEAAP6APEAVProviderProxy@2@PEAVElement@2@@ZXZ" PURGE="0" COMMENT="" />
    <EXPORT ORDINAL="1633" NAME="?GetProxyCreator@?$PatternProvider@VRangeValueProvider@DirectUI@@UIRangeValueProvider@@$03@DirectUI@@UEAAP6APEAVProviderProxy@2@PEAVElement@2@@ZXZ" PURGE="0" COMMENT="" />
    <EXPORT ORDINAL="1634" NAME="?GetProxyCreator@?$PatternProvider@VScrollItemProvider@DirectUI@@UIScrollItemProvider@@$05@DirectUI@@UEAAP6APEAVProviderProxy@2@PEAVElement@2@@ZXZ" PURGE="0" COMMENT="" />
    <EXPORT ORDINAL="1635" NAME="?GetProxyCreator@?$PatternProvider@VScrollProvider@DirectUI@@UIScrollProvider@@$04@DirectUI@@UEAAP6APEAVProviderProxy@2@PEAVElement@2@@ZXZ" PURGE="0" COMMENT="" />
    <EXPORT ORDINAL="1636" NAME="?GetProxyCreator@?$PatternProvider@VSelectionItemProvider@DirectUI@@UISelectionItemProvider@@$06@DirectUI@@UEAAP6APEAVProviderProxy@2@PEAVElement@2@@ZXZ" PURGE="0" COMMENT="" />
    <EXPORT ORDINAL="1637" NAME="?GetProxyCreator@?$PatternProvider@VSelectionProvider@DirectUI@@UISelectionProvider@@$07@DirectUI@@UEAAP6APEAVProviderProxy@2@PEAVElement@2@@ZXZ" PURGE="0" COMMENT="" />
    <EXPORT ORDINAL="1638" NAME="?GetProxyCreator@?$PatternProvider@VTableItemProvider@DirectUI@@UITableItemProvider@@$09@DirectUI@@UEAAP6APEAVProviderProxy@2@PEAVElement@2@@ZXZ" PURGE="0" COMMENT="" />
    <EXPORT ORDINAL="1639" NAME="?GetProxyCreator@?$PatternProvider@VTableProvider@DirectUI@@UITableProvider@@$08@DirectUI@@UEAAP6APEAVProviderProxy@2@PEAVElement@2@@ZXZ" PURGE="0" COMMENT="" />
    <EXPORT ORDINAL="1640" NAME="?GetProxyCreator@?$PatternProvider@VToggleProvider@DirectUI@@UIToggleProvider@@$0L@@DirectUI@@UEAAP6APEAVProviderProxy@2@PEAVElement@2@@ZXZ" PURGE="0" COMMENT="" />
    <EXPORT ORDINAL="1641" NAME="?GetProxyCreator@?$PatternProvider@VValueProvider@DirectUI@@UIValueProvider@@$0M@@DirectUI@@UEAAP6APEAVProviderProxy@2@PEAVElement@2@@ZXZ" PURGE="0" COMMENT="" />
    <EXPORT ORDINAL="1642" NAME="?GetType@DCSurface@DirectUI@@UEBA?AW4EType@Surface@2@XZ" PURGE="0" COMMENT="" />
    <EXPORT ORDINAL="1643" NAME="?GetProxyCreator@ElementProvider@DirectUI@@UEAAP6APEAVProviderProxy@2@PEAVElement@2@@ZXZ" PURGE="0" COMMENT="" />
    <EXPORT ORDINAL="1644" NAME="?GetProxyCreator@ExpandCollapseProvider@DirectUI@@UEAAP6APEAVProviderProxy@2@PEAVElement@2@@ZXZ" PURGE="0" COMMENT="" />
    <EXPORT ORDINAL="1645" NAME="?GetProxyCreator@GridItemProvider@DirectUI@@UEAAP6APEAVProviderProxy@2@PEAVElement@2@@ZXZ" PURGE="0" COMMENT="" />
    <EXPORT ORDINAL="1646" NAME="?GetProxyCreator@GridProvider@DirectUI@@UEAAP6APEAVProviderProxy@2@PEAVElement@2@@ZXZ" PURGE="0" COMMENT="" />
    <EXPORT ORDINAL="1647" NAME="?GetProxyCreator@HWNDElementProvider@DirectUI@@UEAAP6APEAVProviderProxy@2@PEAVElement@2@@ZXZ" PURGE="0" COMMENT="" />
    <EXPORT ORDINAL="1648" NAME="?GetProxyCreator@InvokeProvider@DirectUI@@UEAAP6APEAVProviderProxy@2@PEAVElement@2@@ZXZ" PURGE="0" COMMENT="" />
    <EXPORT ORDINAL="1649" NAME="?GetProxyCreator@RangeValueProvider@DirectUI@@UEAAP6APEAVProviderProxy@2@PEAVElement@2@@ZXZ" PURGE="0" COMMENT="" />
    <EXPORT ORDINAL="1650" NAME="?GetProxyCreator@ScrollItemProvider@DirectUI@@UEAAP6APEAVProviderProxy@2@PEAVElement@2@@ZXZ" PURGE="0" COMMENT="" />
    <EXPORT ORDINAL="1651" NAME="?GetProxyCreator@ScrollProvider@DirectUI@@UEAAP6APEAVProviderProxy@2@PEAVElement@2@@ZXZ" PURGE="0" COMMENT="" />
    <EXPORT ORDINAL="1652" NAME="?GetProxyCreator@SelectionItemProvider@DirectUI@@UEAAP6APEAVProviderProxy@2@PEAVElement@2@@ZXZ" PURGE="0" COMMENT="" />
    <EXPORT ORDINAL="1653" NAME="?GetProxyCreator@SelectionProvider@DirectUI@@UEAAP6APEAVProviderProxy@2@PEAVElement@2@@ZXZ" PURGE="0" COMMENT="" />
    <EXPORT ORDINAL="1654" NAME="?GetProxyCreator@TableItemProvider@DirectUI@@UEAAP6APEAVProviderProxy@2@PEAVElement@2@@ZXZ" PURGE="0" COMMENT="" />
    <EXPORT ORDINAL="1655" NAME="?GetProxyCreator@TableProvider@DirectUI@@UEAAP6APEAVProviderProxy@2@PEAVElement@2@@ZXZ" PURGE="0" COMMENT="" />
    <EXPORT ORDINAL="1656" NAME="?GetProxyCreator@ToggleProvider@DirectUI@@UEAAP6APEAVProviderProxy@2@PEAVElement@2@@ZXZ" PURGE="0" COMMENT="" />
    <EXPORT ORDINAL="1657" NAME="?GetProxyCreator@ValueProvider@DirectUI@@UEAAP6APEAVProviderProxy@2@PEAVElement@2@@ZXZ" PURGE="0" COMMENT="" />
    <EXPORT ORDINAL="1658" NAME="?GetRangeMax@CCTrackBar@DirectUI@@QEAAHXZ" PURGE="0" COMMENT="" />
    <EXPORT ORDINAL="1659" NAME="?GetRangeMin@CCTrackBar@DirectUI@@QEAAHXZ" PURGE="0" COMMENT="" />
    <EXPORT ORDINAL="1660" NAME="?GetSize@Value@DirectUI@@QEAAPEBUtagSIZE@@XZ" PURGE="0" COMMENT="" />
    <EXPORT ORDINAL="1661" NAME="?GetRectZero@Value@DirectUI@@SAPEAV12@XZ" PURGE="0" COMMENT="" />
    <EXPORT ORDINAL="1662" NAME="?GetRefCount@Value@DirectUI@@QEBAHXZ" PURGE="0" COMMENT="" />
    <EXPORT ORDINAL="1663" NAME="?GetReferencePoint@RefPointElement@DirectUI@@QEAAPEBUtagPOINT@@PEAPEAVValue@2@@Z" PURGE="0" COMMENT="" />
    <EXPORT ORDINAL="1664" NAME="?GetRegisteredDefaultButton@DialogElement@DirectUI@@QEAAPEAVElement@2@XZ" PURGE="0" COMMENT="" />
    <EXPORT ORDINAL="1665" NAME="?GetRepeat@Movie@DirectUI@@QEAA_NXZ" PURGE="0" COMMENT="" />
    <EXPORT ORDINAL="1666" NAME="?GetHInstance@DUIXmlParser@DirectUI@@QEAAPEAUHINSTANCE__@@XZ" PURGE="0" COMMENT="" />
    <EXPORT ORDINAL="1667" NAME="?GetRoot@Element@DirectUI@@QEAAPEAV12@XZ" PURGE="0" COMMENT="" />
    <EXPORT ORDINAL="1668" NAME="?GetString@Value@DirectUI@@QEAAPEBGXZ" PURGE="0" COMMENT="" />
    <EXPORT ORDINAL="1669" NAME="?GetRootRelativeBounds@Element@DirectUI@@QEAAJPEAUtagRECT@@@Z" PURGE="0" COMMENT="" />
    <EXPORT ORDINAL="1670" NAME="?GetRow@GridItemProxy@DirectUI@@AEAAJPEAH@Z" PURGE="0" COMMENT="" />
    <EXPORT ORDINAL="1671" NAME="?GetRowCount@GridProxy@DirectUI@@AEAAJPEAH@Z" PURGE="0" COMMENT="" />
    <EXPORT ORDINAL="1672" NAME="?GetRowHeaders@TableProvider@DirectUI@@UEAAJPEAPEAUtagSAFEARRAY@@@Z" PURGE="0" COMMENT="" />
    <EXPORT ORDINAL="1673" NAME="?GetEmbeddedFragmentRoots@ElementProvider@DirectUI@@UEAAJPEAPEAUtagSAFEARRAY@@@Z" PURGE="0" COMMENT="" />
    <EXPORT ORDINAL="1674" NAME="?GetRuntimeId@ElementProvider@DirectUI@@UEAAJPEAPEAUtagSAFEARRAY@@@Z" PURGE="0" COMMENT="" />
    <EXPORT ORDINAL="1675" NAME="?GetRuntimeId@ElementProxy@DirectUI@@IEAAJPEAPEAUtagSAFEARRAY@@@Z" PURGE="0" COMMENT="" />
    <EXPORT ORDINAL="1676" NAME="?GetScrollBar@ScrollProxy@DirectUI@@AEAAPEAVBaseScrollBar@2@_N@Z" PURGE="0" COMMENT="" />
    <EXPORT ORDINAL="1677" NAME="?GetScrollPercent@ScrollProxy@DirectUI@@AEAAJ_NPEAN@Z" PURGE="0" COMMENT="" />
    <EXPORT ORDINAL="1678" NAME="?GetScrollable@ScrollProxy@DirectUI@@AEAAJ_NPEAH@Z" PURGE="0" COMMENT="" />
    <EXPORT ORDINAL="1679" NAME="?GetSelected@Element@DirectUI@@QEAA_NXZ" PURGE="0" COMMENT="" />
    <EXPORT ORDINAL="1680" NAME="?GetSelection@BrowserSelectionProxy@DirectUI@@AEAAJPEAPEAUtagSAFEARRAY@@@Z" PURGE="0" COMMENT="" />
    <EXPORT ORDINAL="1681" NAME="?GetSelection@Combobox@DirectUI@@QEAAHXZ" PURGE="0" COMMENT="" />
    <EXPORT ORDINAL="1682" NAME="?GetSelection@SelectionProvider@DirectUI@@UEAAJPEAPEAUtagSAFEARRAY@@@Z" PURGE="0" COMMENT="" />
    <EXPORT ORDINAL="1683" NAME="?GetSelection@Selector@DirectUI@@QEAAPEAVElement@2@XZ" PURGE="0" COMMENT="" />
    <EXPORT ORDINAL="1684" NAME="?GetSelectionContainer@SelectorSelectionItemProxy@DirectUI@@AEAAJPEAPEAUIRawElementProviderSimple@@@Z" PURGE="0" COMMENT="" />
    <EXPORT ORDINAL="1685" NAME="?GetShadowIntensity@Element@DirectUI@@QEAAHXZ" PURGE="0" COMMENT="" />
    <EXPORT ORDINAL="1686" NAME="?GetSheet@DUIXmlParser@DirectUI@@QEAAJPEBGPEAPEAVValue@2@@Z" PURGE="0" COMMENT="" />
    <EXPORT ORDINAL="1687" NAME="?GetSheet@Element@DirectUI@@QEAAPEAVStyleSheet@2@XZ" PURGE="0" COMMENT="" />
    <EXPORT ORDINAL="1688" NAME="?GetParent@Element@DirectUI@@QEAAPEAV12@XZ" PURGE="0" COMMENT="" />
    <EXPORT ORDINAL="1689" NAME="?GetSheetNull@Value@DirectUI@@SAPEAV12@XZ" PURGE="0" COMMENT="" />
    <EXPORT ORDINAL="1690" NAME="?GetShortcut@Element@DirectUI@@QEAAHXZ" PURGE="0" COMMENT="" />
    <EXPORT ORDINAL="1691" NAME="?GetShortcutChar@Element@DirectUI@@QEAAGXZ" PURGE="0" COMMENT="" />
    <EXPORT ORDINAL="1692" NAME="?GetSinkRect@HWNDHost@DirectUI@@AEAAXPEBUtagRECT@@PEAU3@@Z" PURGE="0" COMMENT="" />
    <EXPORT ORDINAL="1693" NAME="?GetCursor@Value@DirectUI@@QEAAPEAUCursor@2@XZ" PURGE="0" COMMENT="" />
    <EXPORT ORDINAL="1694" NAME="?GetSizeZero@Value@DirectUI@@SAPEAV12@XZ" PURGE="0" COMMENT="" />
    <EXPORT ORDINAL="1695" NAME="?GetSmoothingMode@Movie@DirectUI@@QEAAHXZ" PURGE="0" COMMENT="" />
    <EXPORT ORDINAL="1696" NAME="?GetStaticColor@HWNDHost@DirectUI@@IEAA_NPEAUHDC__@@PEAPEAUHBRUSH__@@@Z" PURGE="0" COMMENT="" />
    <EXPORT ORDINAL="1697" NAME="?GetString@EventManager@DirectUI@@CAJPEAUtagVARIANT@@PEAVValue@2@@Z" PURGE="0" COMMENT="" />
    <EXPORT ORDINAL="1698" NAME="?GetStyleSheet@Value@DirectUI@@QEAAPEAVStyleSheet@2@XZ" PURGE="0" COMMENT="" />
    <EXPORT ORDINAL="1699" NAME="?GetStringNull@Value@DirectUI@@SAPEAV12@XZ" PURGE="0" COMMENT="" />
    <EXPORT ORDINAL="1700" NAME="?GetStyle@CCTreeView@DirectUI@@QEAAKXZ" PURGE="0" COMMENT="" />
    <EXPORT ORDINAL="1701" NAME="?GetDisplayNode@Element@DirectUI@@QEAAPEAUHGADGET__@@XZ" PURGE="0" COMMENT="" />
    <EXPORT ORDINAL="1702" NAME="?GetSurfaceType@Surface@DirectUI@@SAIW4EType@12@@Z" PURGE="0" COMMENT="" />
    <EXPORT ORDINAL="1703" NAME="?GetSurfaceType@Surface@DirectUI@@SA?AW4EType@12@I@Z" PURGE="0" COMMENT="" />
    <EXPORT ORDINAL="1704" NAME="?GetTargetPage@Navigator@DirectUI@@QEAAPEBGPEAPEAVValue@2@@Z" PURGE="0" COMMENT="" />
    <EXPORT ORDINAL="1705" NAME="?GetTextGlowSize@Element@DirectUI@@QEAAHXZ" PURGE="0" COMMENT="" />
    <EXPORT ORDINAL="1706" NAME="?GetTextHeight@Edit@DirectUI@@AEAAIXZ" PURGE="0" COMMENT="" />
    <EXPORT ORDINAL="1707" NAME="?GetThemeChanged@HWNDHost@DirectUI@@IEAAHXZ" PURGE="0" COMMENT="" />
    <EXPORT ORDINAL="1708" NAME="?GetThemedBorder@Edit@DirectUI@@QEAA_NXZ" PURGE="0" COMMENT="" />
    <EXPORT ORDINAL="1709" NAME="?GetThumbPosition@CCTrackBar@DirectUI@@QEAAHXZ" PURGE="0" COMMENT="" />
    <EXPORT ORDINAL="1710" NAME="?GetToggleState@EventManager@DirectUI@@CAXPEAUtagVARIANT@@@Z" PURGE="0" COMMENT="" />
    <EXPORT ORDINAL="1711" NAME="?GetToggleState@ToggleProxy@DirectUI@@AEAAJPEAW4ToggleState@@@Z" PURGE="0" COMMENT="" />
    <EXPORT ORDINAL="1712" NAME="?GetTooltip@Element@DirectUI@@QEAA_NXZ" PURGE="0" COMMENT="" />
    <EXPORT ORDINAL="1713" NAME="?GetTooltipMaxWidth@Element@DirectUI@@QEAAHXZ" PURGE="0" COMMENT="" />
    <EXPORT ORDINAL="1714" NAME="?GetTopLevel@Element@DirectUI@@QEAAPEAV12@XZ" PURGE="0" COMMENT="" />
    <EXPORT ORDINAL="1715" NAME="?GetTracking@CCBaseScrollBar@DirectUI@@QEAA_NXZ" PURGE="0" COMMENT="" />
    <EXPORT ORDINAL="1716" NAME="?GetTransparent@HWNDHost@DirectUI@@QEAA_NXZ" PURGE="0" COMMENT="" />
    <EXPORT ORDINAL="1717" NAME="?GetTreeAlphaLevel@Element@DirectUI@@QEAAMXZ" PURGE="0" COMMENT="" />
    <EXPORT ORDINAL="1718" NAME="?OnKillActive@TaskPage@DirectUI@@MEAA_JXZ" PURGE="0" COMMENT="" />
    <EXPORT ORDINAL="1719" NAME="?GetType@Value@DirectUI@@QEBAHXZ" PURGE="0" COMMENT="" />
    <EXPORT ORDINAL="1720" NAME="?GetTypeInfoCount@DuiAccessible@DirectUI@@UEAAJPEAI@Z" PURGE="0" COMMENT="" />
    <EXPORT ORDINAL="1721" NAME="?GetWindow@DuiAccessible@DirectUI@@UEAAJPEAPEAUHWND__@@@Z" PURGE="0" COMMENT="" />
    <EXPORT ORDINAL="1722" NAME="?GetUIState@HWNDElement@DirectUI@@QEAAGXZ" PURGE="0" COMMENT="" />
    <EXPORT ORDINAL="1723" NAME="?GetUnavailable@Value@DirectUI@@SAPEAV12@XZ" PURGE="0" COMMENT="" />
    <EXPORT ORDINAL="1724" NAME="?GetUnset@Value@DirectUI@@SAPEAV12@XZ" PURGE="0" COMMENT="" />
    <EXPORT ORDINAL="1725" NAME="?GetVScroll@ScrollViewer@DirectUI@@MEAAPEAVBaseScrollBar@2@XZ" PURGE="0" COMMENT="" />
    <EXPORT ORDINAL="1726" NAME="?GetVScroll@StyledScrollViewer@DirectUI@@MEAAPEAVBaseScrollBar@2@XZ" PURGE="0" COMMENT="" />
    <EXPORT ORDINAL="1727" NAME="?GetValue@Element@DirectUI@@QEAAPEAVValue@2@P6APEBUPropertyInfo@2@XZHPEAUUpdateCache@2@@Z" PURGE="0" COMMENT="" />
    <EXPORT ORDINAL="1728" NAME="?GetValue@Element@DirectUI@@QEAAPEAVValue@2@PEBUPropertyInfo@2@HPEAUUpdateCache@2@@Z" PURGE="0" COMMENT="" />
    <EXPORT ORDINAL="1729" NAME="?GetValue@ValueProxy@DirectUI@@AEAAJPEAPEAG@Z" PURGE="0" COMMENT="" />
    <EXPORT ORDINAL="1730" NAME="?GetValueParser@DUIXmlParser@DirectUI@@IEAAJPEAPEAVValueParser@ParserTools@2@@Z" PURGE="0" COMMENT="" />
    <EXPORT ORDINAL="1731" NAME="?GetVertical@ScrollBar@DirectUI@@QEAA_NXZ" PURGE="0" COMMENT="" />
    <EXPORT ORDINAL="1732" NAME="?GetViewSize@ScrollProxy@DirectUI@@AEAAJ_NPEAN@Z" PURGE="0" COMMENT="" />
    <EXPORT ORDINAL="1733" NAME="?GetViewer@ScrollProxy@DirectUI@@AEAAJPEAPEAVViewer@2@@Z" PURGE="0" COMMENT="" />
    <EXPORT ORDINAL="1734" NAME="?GetVisible@Element@DirectUI@@QEAA_NXZ" PURGE="0" COMMENT="" />
    <EXPORT ORDINAL="1735" NAME="?GetWantTabs@Edit@DirectUI@@QEAA_NXZ" PURGE="0" COMMENT="" />
    <EXPORT ORDINAL="1736" NAME="?GetWidth@Element@DirectUI@@QEAAHXZ" PURGE="0" COMMENT="" />
    <EXPORT ORDINAL="1737" NAME="?GetWinStyle@CCBase@DirectUI@@QEAAHXZ" PURGE="0" COMMENT="" />
    <EXPORT ORDINAL="1738" NAME="?Invoke@DuiAccessible@DirectUI@@UEAAJJAEBU_GUID@@KGPEAUtagDISPPARAMS@@PEAUtagVARIANT@@PEAUtagEXCEPINFO@@PEAI@Z" PURGE="0" COMMENT="" />
    <EXPORT ORDINAL="1739" NAME="?GetWindow@HWNDHostAccessible@DirectUI@@UEAAJPEAPEAUHWND__@@@Z" PURGE="0" COMMENT="" />
    <EXPORT ORDINAL="1740" NAME="?GetWindowActive@Element@DirectUI@@QEAA_NXZ" PURGE="0" COMMENT="" />
    <EXPORT ORDINAL="1741" NAME="?GetWrapKeyboardNavigate@HWNDElement@DirectUI@@QEAA_NXZ" PURGE="0" COMMENT="" />
    <EXPORT ORDINAL="1742" NAME="?GetX@Element@DirectUI@@QEAAHXZ" PURGE="0" COMMENT="" />
    <EXPORT ORDINAL="1743" NAME="?GetXBarVisibility@BaseScrollViewer@DirectUI@@QEAAHXZ" PURGE="0" COMMENT="" />
    <EXPORT ORDINAL="1744" NAME="?GetXOffset@BaseScrollViewer@DirectUI@@QEAAHXZ" PURGE="0" COMMENT="" />
    <EXPORT ORDINAL="1745" NAME="?GetXOffset@Viewer@DirectUI@@QEAAHXZ" PURGE="0" COMMENT="" />
    <EXPORT ORDINAL="1746" NAME="?GetXScrollable@BaseScrollViewer@DirectUI@@QEAA_NXZ" PURGE="0" COMMENT="" />
    <EXPORT ORDINAL="1747" NAME="?GetXScrollable@Viewer@DirectUI@@QEAA_NXZ" PURGE="0" COMMENT="" />
    <EXPORT ORDINAL="1748" NAME="?GetXmlLiteDll@DUIXmlParser@DirectUI@@KAJPEAPEAUHINSTANCE__@@@Z" PURGE="0" COMMENT="" />
    <EXPORT ORDINAL="1749" NAME="?GetY@Element@DirectUI@@QEAAHXZ" PURGE="0" COMMENT="" />
    <EXPORT ORDINAL="1750" NAME="?GetYBarVisibility@BaseScrollViewer@DirectUI@@QEAAHXZ" PURGE="0" COMMENT="" />
    <EXPORT ORDINAL="1751" NAME="?GetYOffset@BaseScrollViewer@DirectUI@@QEAAHXZ" PURGE="0" COMMENT="" />
    <EXPORT ORDINAL="1752" NAME="?GetYOffset@Viewer@DirectUI@@QEAAHXZ" PURGE="0" COMMENT="" />
    <EXPORT ORDINAL="1753" NAME="?GetYScrollable@BaseScrollViewer@DirectUI@@QEAA_NXZ" PURGE="0" COMMENT="" />
    <EXPORT ORDINAL="1754" NAME="?GetYScrollable@Viewer@DirectUI@@QEAA_NXZ" PURGE="0" COMMENT="" />
    <EXPORT ORDINAL="1755" NAME="?GridItemPattern@Schema@DirectUI@@2HA" PURGE="-1" COMMENT="" />
    <EXPORT ORDINAL="1756" NAME="?GridItem_ColumnSpan_Property@Schema@DirectUI@@2HA" PURGE="-1" COMMENT="" />
    <EXPORT ORDINAL="1757" NAME="?GridItem_Column_Property@Schema@DirectUI@@2HA" PURGE="-1" COMMENT="" />
    <EXPORT ORDINAL="1758" NAME="?GridItem_Parent_Property@Schema@DirectUI@@2HA" PURGE="-1" COMMENT="" />
    <EXPORT ORDINAL="1759" NAME="?GridItem_RowSpan_Property@Schema@DirectUI@@2HA" PURGE="-1" COMMENT="" />
    <EXPORT ORDINAL="1760" NAME="?GridItem_Row_Property@Schema@DirectUI@@2HA" PURGE="-1" COMMENT="" />
    <EXPORT ORDINAL="1761" NAME="?GridPattern@Schema@DirectUI@@2HA" PURGE="-1" COMMENT="" />
    <EXPORT ORDINAL="1762" NAME="?Grid_ColumnCount_Property@Schema@DirectUI@@2HA" PURGE="-1" COMMENT="" />
    <EXPORT ORDINAL="1763" NAME="?Grid_RowCount_Property@Schema@DirectUI@@2HA" PURGE="-1" COMMENT="" />
    <EXPORT ORDINAL="1764" NAME="?GroupControlType@Schema@DirectUI@@2HA" PURGE="-1" COMMENT="" />
    <EXPORT ORDINAL="1765" NAME="?HandleAccChange@EventManager@DirectUI@@CAJPEAVElement@2@PEAUIRawElementProviderSimple@@PEAVValue@2@2@Z" PURGE="0" COMMENT="" />
    <EXPORT ORDINAL="1766" NAME="?HandleAccDesc@EventManager@DirectUI@@CAJPEAVElement@2@PEAUIRawElementProviderSimple@@PEAVValue@2@2@Z" PURGE="0" COMMENT="" />
    <EXPORT ORDINAL="1767" NAME="?HandleAccPatternChange@EventManager@DirectUI@@CAJPEAVElement@2@PEAUIRawElementProviderSimple@@IIHPEAUtagVARIANT@@2P6AX2@Z@Z" PURGE="0" COMMENT="" />
    <EXPORT ORDINAL="1768" NAME="?HandleAccRoleEvent@EventManager@DirectUI@@CAJPEAUIRawElementProviderSimple@@PEAVValue@2@1@Z" PURGE="0" COMMENT="" />
    <EXPORT ORDINAL="1769" NAME="?HandleAccStateChange@EventManager@DirectUI@@CAJPEAUIRawElementProviderSimple@@IIHPEAUtagVARIANT@@1@Z" PURGE="0" COMMENT="" />
    <EXPORT ORDINAL="1770" NAME="?HandleBoolProp@EventManager@DirectUI@@CAJPEAVElement@2@P6A_N0@ZPEAUIRawElementProviderSimple@@HPEAVValue@2@3@Z" PURGE="0" COMMENT="" />
    <EXPORT ORDINAL="1771" NAME="?HandleChildrenEvent@EventManager@DirectUI@@CAJPEAVElement@2@PEAVValue@2@1@Z" PURGE="0" COMMENT="" />
    <EXPORT ORDINAL="1772" NAME="?HandleEnterKeyProp@DialogElement@DirectUI@@SAPEBUPropertyInfo@2@XZ" PURGE="0" COMMENT="" />
    <EXPORT ORDINAL="1773" NAME="?HandleRangeValue@EventManager@DirectUI@@CAJPEAVElement@2@PEAUIRawElementProviderSimple@@PEAVValue@2@2@Z" PURGE="0" COMMENT="" />
    <EXPORT ORDINAL="1774" NAME="?HandleScrollPos@EventManager@DirectUI@@CAJPEAVElement@2@PEAUIRawElementProviderSimple@@PEAVValue@2@2@Z" PURGE="0" COMMENT="" />
    <EXPORT ORDINAL="1775" NAME="?HandleSelectedChange@EventManager@DirectUI@@CAJPEAUIRawElementProviderSimple@@PEAVValue@2@@Z" PURGE="0" COMMENT="" />
    <EXPORT ORDINAL="1776" NAME="?HandleStringProp@EventManager@DirectUI@@CAJPEAUIRawElementProviderSimple@@HPEAVValue@2@1@Z" PURGE="0" COMMENT="" />
    <EXPORT ORDINAL="1777" NAME="?HandleUiaDestroyListener@Element@DirectUI@@UEAAXXZ" PURGE="0" COMMENT="" />
    <EXPORT ORDINAL="1778" NAME="?HandleUiaEventListener@Element@DirectUI@@UEAAXPEAUEvent@2@@Z" PURGE="0" COMMENT="" />
    <EXPORT ORDINAL="1779" NAME="?HandleUiaPropertyChangingListener@Element@DirectUI@@UEAAXPEBUPropertyInfo@2@@Z" PURGE="0" COMMENT="" />
    <EXPORT ORDINAL="1780" NAME="?HandleUiaPropertyListener@Element@DirectUI@@UEAAXPEBUPropertyInfo@2@HPEAVValue@2@1@Z" PURGE="0" COMMENT="" />
    <EXPORT ORDINAL="1781" NAME="?HandleVisibilityChange@EventManager@DirectUI@@CAJPEAVElement@2@I@Z" PURGE="0" COMMENT="" />
    <EXPORT ORDINAL="1782" NAME="?HasAnimation@Element@DirectUI@@QEAA_NXZ" PURGE="0" COMMENT="" />
    <EXPORT ORDINAL="1783" NAME="?HasBorder@Element@DirectUI@@QEAA_NXZ" PURGE="0" COMMENT="" />
    <EXPORT ORDINAL="1784" NAME="?HasChildren@Element@DirectUI@@QEAA_NXZ" PURGE="0" COMMENT="" />
    <EXPORT ORDINAL="1785" NAME="?HasContent@Element@DirectUI@@QEAA_NXZ" PURGE="0" COMMENT="" />
    <EXPORT ORDINAL="1786" NAME="?HasKeyboardFocusProperty@Schema@DirectUI@@2HA" PURGE="-1" COMMENT="" />
    <EXPORT ORDINAL="1787" NAME="?HasLayout@Element@DirectUI@@QEAA_NXZ" PURGE="0" COMMENT="" />
    <EXPORT ORDINAL="1788" NAME="?HasMargin@Element@DirectUI@@QEAA_NXZ" PURGE="0" COMMENT="" />
    <EXPORT ORDINAL="1789" NAME="?HasPadding@Element@DirectUI@@QEAA_NXZ" PURGE="0" COMMENT="" />
    <EXPORT ORDINAL="1790" NAME="?HasShieldProp@CCPushButton@DirectUI@@SAPEBUPropertyInfo@2@XZ" PURGE="0" COMMENT="" />
    <EXPORT ORDINAL="1791" NAME="?HaveWin32Focus@HWNDHost@DirectUI@@AEAA_NXZ" PURGE="0" COMMENT="" />
    <EXPORT ORDINAL="1792" NAME="?HeaderControlType@Schema@DirectUI@@2HA" PURGE="-1" COMMENT="" />
    <EXPORT ORDINAL="1793" NAME="?HeaderItemControlType@Schema@DirectUI@@2HA" PURGE="-1" COMMENT="" />
    <EXPORT ORDINAL="1794" NAME="?HeightProp@Element@DirectUI@@SAPEBUPropertyInfo@2@XZ" PURGE="0" COMMENT="" />
    <EXPORT ORDINAL="1795" NAME="?HelpTextProperty@Schema@DirectUI@@2HA" PURGE="-1" COMMENT="" />
    <EXPORT ORDINAL="1796" NAME="?HideWindow@NativeHWNDHost@DirectUI@@QEAAXXZ" PURGE="0" COMMENT="" />
    <EXPORT ORDINAL="1797" NAME="?HideWindow@XHost@DirectUI@@QEAAXXZ" PURGE="-1" COMMENT="" />
    <EXPORT ORDINAL="1798" NAME="?HighDPIProp@Element@DirectUI@@SAPEBUPropertyInfo@2@XZ" PURGE="0" COMMENT="" />
    <EXPORT ORDINAL="1799" NAME="?Home@BaseScrollBar@DirectUI@@UEAAXXZ" PURGE="-1" COMMENT="" />
    <EXPORT ORDINAL="1800" NAME="?Host@NativeHWNDHost@DirectUI@@QEAAXPEAVElement@2@@Z" PURGE="0" COMMENT="" />
    <EXPORT ORDINAL="1801" NAME="?Host@XHost@DirectUI@@QEAAXPEAVElement@2@@Z" PURGE="0" COMMENT="" />
    <EXPORT ORDINAL="1802" NAME="?Hosted@PushButton@DirectUI@@SA?AVUID@@XZ" PURGE="0" COMMENT="" />
    <EXPORT ORDINAL="1803" NAME="?HyperlinkControlType@Schema@DirectUI@@2HA" PURGE="-1" COMMENT="" />
    <EXPORT ORDINAL="1804" NAME="?IDProp@Element@DirectUI@@SAPEBUPropertyInfo@2@XZ" PURGE="0" COMMENT="" />
    <EXPORT ORDINAL="1805" NAME="?INITIALSTACKSKIP@CallstackTracker@DirectUI@@0HB" PURGE="-1" COMMENT="" />
    <EXPORT ORDINAL="1806" NAME="?ImageControlType@Schema@DirectUI@@2HA" PURGE="-1" COMMENT="" />
    <EXPORT ORDINAL="1807" NAME="?Init@?$PatternProvider@VGridItemProvider@DirectUI@@UIGridItemProvider@@$01@DirectUI@@UEAAXPEAVElementProvider@2@@Z" PURGE="-1" COMMENT="" />
    <EXPORT ORDINAL="1808" NAME="?Init@?$PatternProvider@VGridProvider@DirectUI@@UIGridProvider@@$02@DirectUI@@UEAAXPEAVElementProvider@2@@Z" PURGE="-1" COMMENT="" />
    <EXPORT ORDINAL="1809" NAME="?Init@?$PatternProvider@VInvokeProvider@DirectUI@@UIInvokeProvider@@$0A@@DirectUI@@UEAAXPEAVElementProvider@2@@Z" PURGE="-1" COMMENT="" />
    <EXPORT ORDINAL="1810" NAME="?Init@?$PatternProvider@VRangeValueProvider@DirectUI@@UIRangeValueProvider@@$03@DirectUI@@UEAAXPEAVElementProvider@2@@Z" PURGE="-1" COMMENT="" />
    <EXPORT ORDINAL="1811" NAME="?Init@?$PatternProvider@VScrollItemProvider@DirectUI@@UIScrollItemProvider@@$05@DirectUI@@UEAAXPEAVElementProvider@2@@Z" PURGE="-1" COMMENT="" />
    <EXPORT ORDINAL="1812" NAME="?Init@?$PatternProvider@VScrollProvider@DirectUI@@UIScrollProvider@@$04@DirectUI@@UEAAXPEAVElementProvider@2@@Z" PURGE="-1" COMMENT="" />
    <EXPORT ORDINAL="1813" NAME="?Init@?$PatternProvider@VSelectionItemProvider@DirectUI@@UISelectionItemProvider@@$06@DirectUI@@UEAAXPEAVElementProvider@2@@Z" PURGE="-1" COMMENT="" />
    <EXPORT ORDINAL="1814" NAME="?Init@?$PatternProvider@VSelectionProvider@DirectUI@@UISelectionProvider@@$07@DirectUI@@UEAAXPEAVElementProvider@2@@Z" PURGE="-1" COMMENT="" />
    <EXPORT ORDINAL="1815" NAME="?Init@?$PatternProvider@VTableItemProvider@DirectUI@@UITableItemProvider@@$09@DirectUI@@UEAAXPEAVElementProvider@2@@Z" PURGE="-1" COMMENT="" />
    <EXPORT ORDINAL="1816" NAME="?Init@?$PatternProvider@VTableProvider@DirectUI@@UITableProvider@@$08@DirectUI@@UEAAXPEAVElementProvider@2@@Z" PURGE="-1" COMMENT="" />
    <EXPORT ORDINAL="1817" NAME="?Init@?$PatternProvider@VToggleProvider@DirectUI@@UIToggleProvider@@$0L@@DirectUI@@UEAAXPEAVElementProvider@2@@Z" PURGE="-1" COMMENT="" />
    <EXPORT ORDINAL="1818" NAME="?Init@?$PatternProvider@VValueProvider@DirectUI@@UIValueProvider@@$0M@@DirectUI@@UEAAXPEAVElementProvider@2@@Z" PURGE="-1" COMMENT="" />
    <EXPORT ORDINAL="1819" NAME="?Init@?$PatternProvider@VExpandCollapseProvider@DirectUI@@UIExpandCollapseProvider@@$00@DirectUI@@UEAAXPEAVElementProvider@2@@Z" PURGE="-1" COMMENT="" />
    <EXPORT ORDINAL="1820" NAME="?Init@AutoThread@DirectUI@@QEAAJXZ" PURGE="0" COMMENT="" />
    <EXPORT ORDINAL="1821" NAME="?Init@ElementProxy@DirectUI@@MEAAXPEAVElement@2@@Z" PURGE="0" COMMENT="" />
    <EXPORT ORDINAL="1822" NAME="?Init@CallstackTracker@DirectUI@@SAHXZ" PURGE="0" COMMENT="" />
    <EXPORT ORDINAL="1823" NAME="?Init@ElementProvider@DirectUI@@MEAAJPEAVElement@2@PEAVInvokeHelper@2@@Z" PURGE="0" COMMENT="" />
    <EXPORT ORDINAL="1824" NAME="?Init@ElementProviderManager@DirectUI@@SAJXZ" PURGE="0" COMMENT="" />
    <EXPORT ORDINAL="1825" NAME="?Init@ExpandCollapseProxy@DirectUI@@MEAAXPEAVElement@2@@Z" PURGE="0" COMMENT="" />
    <EXPORT ORDINAL="1826" NAME="?Init@EventManager@DirectUI@@SAJXZ" PURGE="0" COMMENT="" />
    <EXPORT ORDINAL="1827" NAME="?Init@GridItemProxy@DirectUI@@MEAAXPEAVElement@2@@Z" PURGE="0" COMMENT="" />
    <EXPORT ORDINAL="1828" NAME="?Init@GridProxy@DirectUI@@MEAAXPEAVElement@2@@Z" PURGE="0" COMMENT="" />
    <EXPORT ORDINAL="1829" NAME="?Init@HWNDElementProxy@DirectUI@@UEAAXPEAVHWNDElement@2@@Z" PURGE="0" COMMENT="" />
    <EXPORT ORDINAL="1830" NAME="?Init@HWNDElementProvider@DirectUI@@MEAAJPEAVHWNDElement@2@PEAVInvokeHelper@2@@Z" PURGE="0" COMMENT="" />
    <EXPORT ORDINAL="1831" NAME="?Init@InvokeProxy@DirectUI@@MEAAXPEAVElement@2@@Z" PURGE="0" COMMENT="" />
    <EXPORT ORDINAL="1832" NAME="?Init@InvokeHelper@DirectUI@@QEAAHK@Z" PURGE="0" COMMENT="" />
    <EXPORT ORDINAL="1833" NAME="?Init@InvokeManager@DirectUI@@SAJXZ" PURGE="0" COMMENT="" />
    <EXPORT ORDINAL="1834" NAME="?Init@NavigatorSelectionItemProxy@DirectUI@@MEAAXPEAVElement@2@@Z" PURGE="0" COMMENT="" />
    <EXPORT ORDINAL="1835" NAME="?Init@NavReference@DirectUI@@QEAAXPEAVElement@2@PEAUtagRECT@@@Z" PURGE="0" COMMENT="" />
    <EXPORT ORDINAL="1836" NAME="?Init@NavScoring@DirectUI@@QEAAXPEAVElement@2@HPEBUNavReference@2@@Z" PURGE="0" COMMENT="" />
    <EXPORT ORDINAL="1837" NAME="?Init@ProgressRangeValueProxy@DirectUI@@MEAAXPEAVElement@2@@Z" PURGE="0" COMMENT="" />
    <EXPORT ORDINAL="1838" NAME="?Init@ProviderProxy@DirectUI@@MEAAXPEAVElement@2@@Z" PURGE="0" COMMENT="" />
    <EXPORT ORDINAL="1839" NAME="?Init@RangeValueProxy@DirectUI@@MEAAXPEAVElement@2@@Z" PURGE="0" COMMENT="" />
    <EXPORT ORDINAL="1840" NAME="?Init@ScrollBarRangeValueProxy@DirectUI@@MEAAXPEAVElement@2@@Z" PURGE="0" COMMENT="" />
    <EXPORT ORDINAL="1841" NAME="?Init@Schema@DirectUI@@SAJXZ" PURGE="0" COMMENT="" />
    <EXPORT ORDINAL="1842" NAME="?Init@ScrollItemProxy@DirectUI@@MEAAXPEAVElement@2@@Z" PURGE="0" COMMENT="" />
    <EXPORT ORDINAL="1843" NAME="?Init@ScrollProxy@DirectUI@@MEAAXPEAVElement@2@@Z" PURGE="0" COMMENT="" />
    <EXPORT ORDINAL="1844" NAME="?Init@SelectionItemProxy@DirectUI@@MEAAXPEAVElement@2@@Z" PURGE="0" COMMENT="" />
    <EXPORT ORDINAL="1845" NAME="?Init@SelectionProxy@DirectUI@@MEAAXPEAVElement@2@@Z" PURGE="0" COMMENT="" />
    <EXPORT ORDINAL="1846" NAME="?Init@SelectorSelectionItemProxy@DirectUI@@MEAAXPEAVElement@2@@Z" PURGE="0" COMMENT="" />
    <EXPORT ORDINAL="1847" NAME="?Init@SelectorSelectionProxy@DirectUI@@MEAAXPEAVElement@2@@Z" PURGE="0" COMMENT="" />
    <EXPORT ORDINAL="1848" NAME="?Init@TableItemProxy@DirectUI@@MEAAXPEAVElement@2@@Z" PURGE="0" COMMENT="" />
    <EXPORT ORDINAL="1849" NAME="?Init@TableProxy@DirectUI@@MEAAXPEAVElement@2@@Z" PURGE="0" COMMENT="" />
    <EXPORT ORDINAL="1850" NAME="?Init@ToggleProxy@DirectUI@@MEAAXPEAVElement@2@@Z" PURGE="0" COMMENT="" />
    <EXPORT ORDINAL="1851" NAME="?Init@ValueProxy@DirectUI@@MEAAXPEAVElement@2@@Z" PURGE="0" COMMENT="" />
    <EXPORT ORDINAL="1852" NAME="?Init@BrowserSelectionProxy@DirectUI@@MEAAXPEAVElement@2@@Z" PURGE="0" COMMENT="" />
    <EXPORT ORDINAL="1853" NAME="?InitDefaultFontSize@Element@DirectUI@@SAXXZ" PURGE="0" COMMENT="" />
    <EXPORT ORDINAL="1854" NAME="?InitFailed@CallstackTracker@DirectUI@@CAHXZ" PURGE="0" COMMENT="" />
    <EXPORT ORDINAL="1855" NAME="?InitProcess@FontCache@DirectUI@@SAJXZ" PURGE="0" COMMENT="" />
    <EXPORT ORDINAL="1856" NAME="?OnInvoke@Proxy@DirectUI@@MEAAXIPEAX@Z" PURGE="0" COMMENT="" />
    <EXPORT ORDINAL="1857" NAME="?InitThread@FontCache@DirectUI@@SAJXZ" PURGE="0" COMMENT="" />
    <EXPORT ORDINAL="1858" NAME="?Initialize@AutoButton@DirectUI@@QEAAJPEAVElement@2@PEAK@Z" PURGE="0" COMMENT="" />
    <EXPORT ORDINAL="1859" NAME="?Initialize@AnimationStrip@DirectUI@@QEAAJIPEAVElement@2@PEAK@Z" PURGE="0" COMMENT="" />
    <EXPORT ORDINAL="1860" NAME="?Initialize@Navigator@DirectUI@@QEAAJPEAVElement@2@PEAK@Z" PURGE="0" COMMENT="" />
    <EXPORT ORDINAL="1861" NAME="?Initialize@BaseScrollViewer@DirectUI@@QEAAJPEAVElement@2@PEAK@Z" PURGE="0" COMMENT="" />
    <EXPORT ORDINAL="1862" NAME="?Initialize@Browser@DirectUI@@QEAAJPEAVElement@2@PEAK@Z" PURGE="0" COMMENT="" />
    <EXPORT ORDINAL="1863" NAME="?Initialize@BorderLayout@DirectUI@@QEAAXXZ" PURGE="0" COMMENT="" />
    <EXPORT ORDINAL="1864" NAME="?Initialize@Macro@DirectUI@@QEAAJPEAVElement@2@PEAK@Z" PURGE="0" COMMENT="" />
    <EXPORT ORDINAL="1865" NAME="?Initialize@RefPointElement@DirectUI@@QEAAJIPEAVElement@2@PEAK@Z" PURGE="0" COMMENT="" />
    <EXPORT ORDINAL="1866" NAME="?Initialize@Combobox@DirectUI@@QEAAJIPEAVElement@2@PEAK@Z" PURGE="0" COMMENT="" />
    <EXPORT ORDINAL="1867" NAME="?Initialize@CCBaseScrollBar@DirectUI@@QEAAJIPEAVElement@2@PEAK@Z" PURGE="0" COMMENT="" />
    <EXPORT ORDINAL="1868" NAME="?Initialize@CCListView@DirectUI@@QEAAJIPEAVElement@2@PEAK@Z" PURGE="0" COMMENT="" />
    <EXPORT ORDINAL="1869" NAME="?Initialize@CCProgressBar@DirectUI@@QEAAJIPEAVElement@2@PEAK@Z" PURGE="0" COMMENT="" />
    <EXPORT ORDINAL="1870" NAME="?Initialize@ExpandoButtonGlyph@DirectUI@@QEAAJIPEAVElement@2@PEAK@Z" PURGE="0" COMMENT="" />
    <EXPORT ORDINAL="1871" NAME="?Initialize@ClassInfoBase@DirectUI@@QEAAJPEAUHINSTANCE__@@PEBG_NPEBQEBUPropertyInfo@2@I@Z" PURGE="0" COMMENT="" />
    <EXPORT ORDINAL="1872" NAME="?Initialize@Clipper@DirectUI@@QEAAJPEAVElement@2@PEAK@Z" PURGE="0" COMMENT="" />
    <EXPORT ORDINAL="1873" NAME="?Initialize@Edit@DirectUI@@QEAAJIPEAVElement@2@PEAK@Z" PURGE="0" COMMENT="" />
    <EXPORT ORDINAL="1874" NAME="?Initialize@DUIXmlParser@DirectUI@@IEAAJXZ" PURGE="0" COMMENT="" />
    <EXPORT ORDINAL="1875" NAME="?Initialize@DuiAccessible@DirectUI@@QEAAXPEAVElement@2@@Z" PURGE="0" COMMENT="" />
    <EXPORT ORDINAL="1876" NAME="?Initialize@XElement@DirectUI@@QEAAJIPEAVElement@2@PEAK@Z" PURGE="0" COMMENT="" />
    <EXPORT ORDINAL="1877" NAME="?Initialize@Element@DirectUI@@QEAAJIPEAV12@PEAK@Z" PURGE="0" COMMENT="" />
    <EXPORT ORDINAL="1878" NAME="?Initialize@Expando@DirectUI@@QEAAJPEAVElement@2@PEAK@Z" PURGE="0" COMMENT="" />
    <EXPORT ORDINAL="1879" NAME="?Initialize@RadioButtonGlyph@DirectUI@@QEAAJIPEAVElement@2@PEAK@Z" PURGE="0" COMMENT="" />
    <EXPORT ORDINAL="1880" NAME="?Initialize@FillLayout@DirectUI@@QEAAXXZ" PURGE="0" COMMENT="" />
    <EXPORT ORDINAL="1881" NAME="?Initialize@VerticalFlowLayout@DirectUI@@QEAAX_NIII@Z" PURGE="0" COMMENT="" />
    <EXPORT ORDINAL="1882" NAME="?Initialize@GridLayout@DirectUI@@QEAAXHH@Z" PURGE="0" COMMENT="" />
    <EXPORT ORDINAL="1883" NAME="?Initialize@HWNDElement@DirectUI@@QEAAJPEAUHWND__@@_NIPEAVElement@2@PEAK@Z" PURGE="0" COMMENT="" />
    <EXPORT ORDINAL="1884" NAME="?Initialize@HWNDElementAccessible@DirectUI@@QEAAJPEAVHWNDElement@2@@Z" PURGE="-1" COMMENT="" />
    <EXPORT ORDINAL="1885" NAME="?Initialize@HWNDHost@DirectUI@@QEAAJIIPEAVElement@2@PEAK@Z" PURGE="0" COMMENT="" />
    <EXPORT ORDINAL="1886" NAME="?Initialize@HWNDHostAccessible@DirectUI@@QEAAJPEAVElement@2@PEAUIAccessible@@@Z" PURGE="0" COMMENT="" />
    <EXPORT ORDINAL="1887" NAME="?Initialize@Layout@DirectUI@@QEAAXXZ" PURGE="0" COMMENT="" />
    <EXPORT ORDINAL="1888" NAME="?Initialize@Pages@DirectUI@@QEAAJPEAVElement@2@PEAK@Z" PURGE="0" COMMENT="" />
    <EXPORT ORDINAL="1889" NAME="?Initialize@NativeHWNDHost@DirectUI@@QEAAJPEBG0PEAUHWND__@@PEAUHICON__@@HHHHHHPEAUHINSTANCE__@@I@Z" PURGE="0" COMMENT="" />
    <EXPORT ORDINAL="1890" NAME="?Initialize@NativeHWNDHost@DirectUI@@QEAAJPEBGPEAUHWND__@@PEAUHICON__@@HHHHHHI@Z" PURGE="0" COMMENT="" />
    <EXPORT ORDINAL="1891" NAME="?Initialize@AccessibleButton@DirectUI@@QEAAJPEAVElement@2@PEAK@Z" PURGE="0" COMMENT="" />
    <EXPORT ORDINAL="1892" NAME="?Initialize@NineGridLayout@DirectUI@@QEAAXXZ" PURGE="0" COMMENT="" />
    <EXPORT ORDINAL="1893" NAME="?Initialize@PText@DirectUI@@QEAAJPEAVElement@2@PEAK@Z" PURGE="0" COMMENT="" />
    <EXPORT ORDINAL="1894" NAME="?Initialize@Page@DirectUI@@QEAAJPEAVElement@2@PEAK@Z" PURGE="0" COMMENT="" />
    <EXPORT ORDINAL="1895" NAME="?Initialize@Progress@DirectUI@@QEAAJPEAVElement@2@PEAK@Z" PURGE="0" COMMENT="" />
    <EXPORT ORDINAL="1896" NAME="?Initialize@Repeater@DirectUI@@QEAAJPEAVElement@2@PEAK@Z" PURGE="0" COMMENT="" />
    <EXPORT ORDINAL="1897" NAME="?Initialize@Thumb@DirectUI@@QEAAJIPEAVElement@2@PEAK@Z" PURGE="0" COMMENT="" />
    <EXPORT ORDINAL="1898" NAME="?Initialize@UnknownElement@DirectUI@@QEAAJIPEAVElement@2@PEAK@Z" PURGE="0" COMMENT="" />
    <EXPORT ORDINAL="1899" NAME="?Initialize@RepeatButton@DirectUI@@QEAAJIPEAVElement@2@PEAK@Z" PURGE="0" COMMENT="" />
    <EXPORT ORDINAL="1900" NAME="?Initialize@Selector@DirectUI@@QEAAJPEAVElement@2@PEAK@Z" PURGE="0" COMMENT="" />
    <EXPORT ORDINAL="1901" NAME="?Initialize@RowLayout@DirectUI@@QEAAJHII@Z" PURGE="0" COMMENT="" />
    <EXPORT ORDINAL="1902" NAME="?Initialize@ScrollBar@DirectUI@@QEAAJ_NPEAVElement@2@PEAK@Z" PURGE="0" COMMENT="" />
    <EXPORT ORDINAL="1903" NAME="?Initialize@SelectorNoDefault@DirectUI@@QEAAJPEAVElement@2@PEAK@Z" PURGE="0" COMMENT="" />
    <EXPORT ORDINAL="1904" NAME="?Initialize@Bind@DirectUI@@QEAAJPEAVElement@2@PEAK@Z" PURGE="0" COMMENT="" />
    <EXPORT ORDINAL="1905" NAME="?Initialize@TableLayout@DirectUI@@QEAAXHHHPEAH@Z" PURGE="0" COMMENT="" />
    <EXPORT ORDINAL="1906" NAME="?Initialize@TextGraphic@DirectUI@@QEAAJPEAVElement@2@PEAK@Z" PURGE="0" COMMENT="" />
    <EXPORT ORDINAL="1907" NAME="?Initialize@CheckBoxGlyph@DirectUI@@QEAAJIPEAVElement@2@PEAK@Z" PURGE="0" COMMENT="" />
    <EXPORT ORDINAL="1908" NAME="?Initialize@Button@DirectUI@@QEAAJIPEAVElement@2@PEAK@Z" PURGE="0" COMMENT="" />
    <EXPORT ORDINAL="1909" NAME="?Initialize@FlowLayout@DirectUI@@QEAAX_NIII@Z" PURGE="0" COMMENT="" />
    <EXPORT ORDINAL="1910" NAME="?Initialize@Viewer@DirectUI@@QEAAJPEAVElement@2@PEAK@Z" PURGE="0" COMMENT="" />
    <EXPORT ORDINAL="1911" NAME="?Initialize@XBaby@DirectUI@@IEAAJPEAVIXElementCP@2@PEAVXProvider@2@PEAUHWND__@@PEAVElement@2@PEAK@Z" PURGE="0" COMMENT="" />
    <EXPORT ORDINAL="1912" NAME="?Initialize@CCBase@DirectUI@@QEAAJIPEAVElement@2@PEAK@Z" PURGE="0" COMMENT="" />
    <EXPORT ORDINAL="1913" NAME="?Initialize@XHost@DirectUI@@QEAAJPEAVIXElementCP@2@@Z" PURGE="0" COMMENT="" />
    <EXPORT ORDINAL="1914" NAME="?Initialize@XProvider@DirectUI@@QEAAJPEAVElement@2@PEAVIXProviderCP@2@@Z" PURGE="0" COMMENT="" />
    <EXPORT ORDINAL="1915" NAME="?Initialize@XResourceProvider@DirectUI@@QEAAJPEAUHINSTANCE__@@PEBG11@Z" PURGE="0" COMMENT="" />
    <EXPORT ORDINAL="1916" NAME="?InitializeDllInfo@CallstackTracker@DirectUI@@CAHXZ" PURGE="0" COMMENT="" />
    <EXPORT ORDINAL="1917" NAME="?InitializeParserFromXmlLiteReader@DUIXmlParser@DirectUI@@IEAAJPEAUIXmlReader@@@Z" PURGE="0" COMMENT="" />
    <EXPORT ORDINAL="1918" NAME="?InitializeSymbols@CallstackTracker@DirectUI@@CAHXZ" PURGE="-1" COMMENT="" />
    <EXPORT ORDINAL="1919" NAME="?Insert@Element@DirectUI@@QEAAJPEAV12@I@Z" PURGE="0" COMMENT="" />
    <EXPORT ORDINAL="1920" NAME="?Insert@Element@DirectUI@@UEAAJPEAPEAV12@II@Z" PURGE="0" COMMENT="" />
    <EXPORT ORDINAL="1921" NAME="?InsertItem@CCTreeView@DirectUI@@QEAAPEAU_TREEITEM@@PEAGIQEAU3@1@Z" PURGE="0" COMMENT="" />
    <EXPORT ORDINAL="1922" NAME="?InsertItem@CCTreeView@DirectUI@@QEAAPEAU_TREEITEM@@PEBUtagTVINSERTSTRUCTW@@@Z" PURGE="0" COMMENT="" />
    <EXPORT ORDINAL="1923" NAME="?InternalCreate@TableLayout@DirectUI@@SAJHHHPEAHPEAPEAVLayout@2@@Z" PURGE="0" COMMENT="" />
    <EXPORT ORDINAL="1924" NAME="?InternalEnsureVisible@Viewer@DirectUI@@AEAA_NHHHH@Z" PURGE="0" COMMENT="" />
    <EXPORT ORDINAL="1925" NAME="?InterpolationModeProp@Movie@DirectUI@@SAPEBUPropertyInfo@2@XZ" PURGE="0" COMMENT="" />
    <EXPORT ORDINAL="1926" NAME="?LoadPage@TaskPage@DirectUI@@MEAAJPEAVHWNDElement@2@PEAUHINSTANCE__@@PEAPEAVElement@2@PEAPEAVDUIXmlParser@2@@Z" PURGE="0" COMMENT="" />
    <EXPORT ORDINAL="1927" NAME="?Invoke@InvokeProvider@DirectUI@@UEAAJXZ" PURGE="0" COMMENT="" />
    <EXPORT ORDINAL="1928" NAME="?Invoke@Proxy@DirectUI@@IEAAXIPEAX@Z" PURGE="0" COMMENT="" />
    <EXPORT ORDINAL="1929" NAME="?InvokeAnimation@Element@DirectUI@@QEAAXHI@Z" PURGE="0" COMMENT="" />
    <EXPORT ORDINAL="1930" NAME="?InvokeAnimation@Element@DirectUI@@QEAAXIIMM_N@Z" PURGE="0" COMMENT="" />
    <EXPORT ORDINAL="1931" NAME="?InvokeInvokedEvent@Schema@DirectUI@@2HA" PURGE="-1" COMMENT="" />
    <EXPORT ORDINAL="1932" NAME="?InvokePattern@Schema@DirectUI@@2HA" PURGE="-1" COMMENT="" />
    <EXPORT ORDINAL="1933" NAME="?IsButtonEnabledAndVisible@DialogElement@DirectUI@@KA_NPEAVElement@2@@Z" PURGE="0" COMMENT="" />
    <EXPORT ORDINAL="1934" NAME="?IsCacheDirty@Layout@DirectUI@@IEAA_NXZ" PURGE="0" COMMENT="" />
    <EXPORT ORDINAL="1935" NAME="?IsCompositedText@Element@DirectUI@@QEAA_NXZ" PURGE="0" COMMENT="" />
    <EXPORT ORDINAL="1936" NAME="?IsContentElementProperty@Schema@DirectUI@@2HA" PURGE="-1" COMMENT="" />
    <EXPORT ORDINAL="1937" NAME="?IsContentProtected@Edit@DirectUI@@UEAA_NXZ" PURGE="0" COMMENT="" />
    <EXPORT ORDINAL="1938" NAME="?OnCustomDraw@CCBase@DirectUI@@UEAA_NPEAUtagNMCUSTOMDRAWINFO@@PEA_J@Z" PURGE="0" COMMENT="" />
    <EXPORT ORDINAL="1939" NAME="?IsControlElementProperty@Schema@DirectUI@@2HA" PURGE="-1" COMMENT="" />
    <EXPORT ORDINAL="1940" NAME="?IsCorrectImageHlpVersion@CallstackTracker@DirectUI@@CAHXZ" PURGE="0" COMMENT="" />
    <EXPORT ORDINAL="1941" NAME="?IsDefaultCAlign@Element@DirectUI@@QEAA_NXZ" PURGE="0" COMMENT="" />
    <EXPORT ORDINAL="1942" NAME="?IsDefaultCursor@Element@DirectUI@@QEAA_NXZ" PURGE="0" COMMENT="" />
    <EXPORT ORDINAL="1943" NAME="?IsDescendent@Element@DirectUI@@QEAA_NPEAV12@@Z" PURGE="0" COMMENT="" />
    <EXPORT ORDINAL="1944" NAME="?IsDescendent@XElement@DirectUI@@QEAA_NPEAVElement@2@@Z" PURGE="0" COMMENT="" />
    <EXPORT ORDINAL="1945" NAME="?IsDescendent@XProvider@DirectUI@@UEAAJPEAVElement@2@PEA_N@Z" PURGE="0" COMMENT="" />
    <EXPORT ORDINAL="1946" NAME="?IsDestroyed@Element@DirectUI@@QEAA_NXZ" PURGE="0" COMMENT="" />
    <EXPORT ORDINAL="1947" NAME="?IsEnabledProperty@Schema@DirectUI@@2HA" PURGE="-1" COMMENT="" />
    <EXPORT ORDINAL="1948" NAME="?IsEqual@Value@DirectUI@@QEAA_NPEAV12@@Z" PURGE="0" COMMENT="" />
    <EXPORT ORDINAL="1949" NAME="?IsFirstElement@HWNDElement@DirectUI@@QEAA_NPEAVElement@2@@Z" PURGE="0" COMMENT="" />
    <EXPORT ORDINAL="1950" NAME="?IsGlobal@ClassInfoBase@DirectUI@@UEBA_NXZ" PURGE="0" COMMENT="" />
    <EXPORT ORDINAL="1951" NAME="?IsHosted@Element@DirectUI@@QEAA_NXZ" PURGE="0" COMMENT="" />
    <EXPORT ORDINAL="1952" NAME="?IsKeyboardFocusableProperty@Schema@DirectUI@@2HA" PURGE="-1" COMMENT="" />
    <EXPORT ORDINAL="1953" NAME="?IsLastElement@HWNDElement@DirectUI@@QEAA_NPEAVElement@2@@Z" PURGE="0" COMMENT="" />
    <EXPORT ORDINAL="1954" NAME="?IsMoveDeferred@HWNDHost@DirectUI@@IEAA_NXZ" PURGE="0" COMMENT="" />
    <EXPORT ORDINAL="1955" NAME="?IsOffscreen@Schema@DirectUI@@2HA" PURGE="-1" COMMENT="" />
    <EXPORT ORDINAL="1956" NAME="?IsPasswordProperty@Schema@DirectUI@@2HA" PURGE="-1" COMMENT="" />
    <EXPORT ORDINAL="1957" NAME="?IsPatternSupported@ElementProxy@DirectUI@@IEAAJW4Pattern@Schema@2@PEA_N@Z" PURGE="0" COMMENT="" />
    <EXPORT ORDINAL="1958" NAME="?IsPatternSupported@ExpandCollapseProxy@DirectUI@@SA_NPEAVElement@2@@Z" PURGE="0" COMMENT="" />
    <EXPORT ORDINAL="1959" NAME="?IsPatternSupported@GridItemProxy@DirectUI@@SA_NPEAVElement@2@@Z" PURGE="0" COMMENT="" />
    <EXPORT ORDINAL="1960" NAME="?IsPatternSupported@GridProxy@DirectUI@@SA_NPEAVElement@2@@Z" PURGE="0" COMMENT="" />
    <EXPORT ORDINAL="1961" NAME="?IsPatternSupported@InvokeProxy@DirectUI@@SA_NPEAVElement@2@@Z" PURGE="0" COMMENT="" />
    <EXPORT ORDINAL="1962" NAME="?IsPatternSupported@RangeValueProxy@DirectUI@@SA_NPEAVElement@2@@Z" PURGE="0" COMMENT="" />
    <EXPORT ORDINAL="1963" NAME="?IsPatternSupported@ScrollItemProxy@DirectUI@@SA_NPEAVElement@2@@Z" PURGE="0" COMMENT="" />
    <EXPORT ORDINAL="1964" NAME="?IsPatternSupported@ScrollProxy@DirectUI@@SA_NPEAVElement@2@@Z" PURGE="-1" COMMENT="" />
    <EXPORT ORDINAL="1965" NAME="?IsPatternSupported@SelectionItemProxy@DirectUI@@SA_NPEAVElement@2@@Z" PURGE="0" COMMENT="" />
    <EXPORT ORDINAL="1966" NAME="?IsPatternSupported@SelectionProxy@DirectUI@@SA_NPEAVElement@2@@Z" PURGE="0" COMMENT="" />
    <EXPORT ORDINAL="1967" NAME="?IsPatternSupported@TableItemProxy@DirectUI@@SA_NPEAVElement@2@@Z" PURGE="0" COMMENT="" />
    <EXPORT ORDINAL="1968" NAME="?IsPatternSupported@TableProxy@DirectUI@@SA_NPEAVElement@2@@Z" PURGE="0" COMMENT="" />
    <EXPORT ORDINAL="1969" NAME="?IsPatternSupported@ToggleProxy@DirectUI@@SA_NPEAVElement@2@@Z" PURGE="0" COMMENT="" />
    <EXPORT ORDINAL="1970" NAME="?OnListenedPropertyChanging@BaseScrollViewer@DirectUI@@UEAA_NPEAVElement@2@PEBUPropertyInfo@2@HPEAVValue@2@2@Z" PURGE="0" COMMENT="" />
    <EXPORT ORDINAL="1971" NAME="?GetBool@Value@DirectUI@@QEAA_NXZ" PURGE="0" COMMENT="" />
    <EXPORT ORDINAL="1972" NAME="?IsPointValid@Element@DirectUI@@AEAA_NNN@Z" PURGE="0" COMMENT="" />
    <EXPORT ORDINAL="1973" NAME="?IsRTLReading@Element@DirectUI@@UEAA_NXZ" PURGE="0" COMMENT="" />
    <EXPORT ORDINAL="1974" NAME="?IsRTL@Element@DirectUI@@QEAA_NXZ" PURGE="0" COMMENT="" />
    <EXPORT ORDINAL="1975" NAME="?IsRoot@Element@DirectUI@@QEAAHXZ" PURGE="0" COMMENT="" />
    <EXPORT ORDINAL="1976" NAME="?IsScrollable@BaseScrollBar@DirectUI@@QEAA_NXZ" PURGE="0" COMMENT="" />
    <EXPORT ORDINAL="1977" NAME="?IsSelfLayout@Element@DirectUI@@QEAA_NXZ" PURGE="0" COMMENT="" />
    <EXPORT ORDINAL="1978" NAME="?IsSubclassOf@ClassInfoBase@DirectUI@@UEBA_NPEAUIClassInfo@2@@Z" PURGE="0" COMMENT="" />
    <EXPORT ORDINAL="1979" NAME="?IsThemeClassName@DUIXmlParser@DirectUI@@KA_NPEBUExprNode@ParserTools@2@@Z" PURGE="0" COMMENT="" />
    <EXPORT ORDINAL="1980" NAME="?IsValidAccessor@Element@DirectUI@@QEAA_NPEBUPropertyInfo@2@H_N@Z" PURGE="0" COMMENT="" />
    <EXPORT ORDINAL="1981" NAME="?IsValidProperty@ClassInfoBase@DirectUI@@UEBA_NPEBUPropertyInfo@2@@Z" PURGE="0" COMMENT="" />
    <EXPORT ORDINAL="1982" NAME="?IsValidValue@Element@DirectUI@@SA_NPEBUPropertyInfo@2@PEAVValue@2@@Z" PURGE="0" COMMENT="" />
    <EXPORT ORDINAL="1983" NAME="?IsWordWrap@Element@DirectUI@@QEAA_NXZ" PURGE="0" COMMENT="" />
    <EXPORT ORDINAL="1984" NAME="?ItemContainerPattern@Schema@DirectUI@@2HA" PURGE="-1" COMMENT="" />
    <EXPORT ORDINAL="1985" NAME="?ItemStatusProperty@Schema@DirectUI@@2HA" PURGE="-1" COMMENT="" />
    <EXPORT ORDINAL="1986" NAME="?ItemTypeProperty@Schema@DirectUI@@2HA" PURGE="-1" COMMENT="" />
    <EXPORT ORDINAL="1987" NAME="?KeyFocusedProp@Element@DirectUI@@SAPEBUPropertyInfo@2@XZ" PURGE="0" COMMENT="" />
    <EXPORT ORDINAL="1988" NAME="?KeyWithinProp@Element@DirectUI@@SAPEBUPropertyInfo@2@XZ" PURGE="0" COMMENT="" />
    <EXPORT ORDINAL="1989" NAME="?KeyboardNavigate@Element@DirectUI@@SA?AVUID@@XZ" PURGE="0" COMMENT="" />
    <EXPORT ORDINAL="1990" NAME="?LabeledByProperty@Schema@DirectUI@@2HA" PURGE="-1" COMMENT="" />
    <EXPORT ORDINAL="1991" NAME="?LastDSConstProp@Element@DirectUI@@SAPEBUPropertyInfo@2@XZ" PURGE="0" COMMENT="" />
    <EXPORT ORDINAL="1992" NAME="?LayoutInvalidatedEvent@Schema@DirectUI@@2HA" PURGE="-1" COMMENT="" />
    <EXPORT ORDINAL="1993" NAME="?LayoutPosProp@Element@DirectUI@@SAPEBUPropertyInfo@2@XZ" PURGE="0" COMMENT="" />
    <EXPORT ORDINAL="1994" NAME="?LayoutProp@Element@DirectUI@@SAPEBUPropertyInfo@2@XZ" PURGE="0" COMMENT="" />
    <EXPORT ORDINAL="1995" NAME="?Leaving@Browser@DirectUI@@SA?AVUID@@XZ" PURGE="0" COMMENT="" />
    <EXPORT ORDINAL="1996" NAME="?LineDown@BaseScrollBar@DirectUI@@UEAAXI@Z" PURGE="-1" COMMENT="" />
    <EXPORT ORDINAL="1997" NAME="?LineProp@CCBaseScrollBar@DirectUI@@SAPEBUPropertyInfo@2@XZ" PURGE="0" COMMENT="" />
    <EXPORT ORDINAL="1998" NAME="?LineProp@ScrollBar@DirectUI@@SAPEBUPropertyInfo@2@XZ" PURGE="0" COMMENT="" />
    <EXPORT ORDINAL="1999" NAME="?LineSizeProp@CCTrackBar@DirectUI@@SAPEBUPropertyInfo@2@XZ" PURGE="0" COMMENT="" />
    <EXPORT ORDINAL="2000" NAME="?LineUp@BaseScrollBar@DirectUI@@UEAAXI@Z" PURGE="-1" COMMENT="" />
    <EXPORT ORDINAL="2001" NAME="?ListControlType@Schema@DirectUI@@2HA" PURGE="-1" COMMENT="" />
    <EXPORT ORDINAL="2002" NAME="?ListItemControlType@Schema@DirectUI@@2HA" PURGE="-1" COMMENT="" />
    <EXPORT ORDINAL="2003" NAME="?LoadComCtl32@TaskPage@DirectUI@@AEAAJXZ" PURGE="0" COMMENT="" />
    <EXPORT ORDINAL="2004" NAME="?LoadCommonControlExports@AnimationStrip@DirectUI@@AEAAJXZ" PURGE="0" COMMENT="" />
    <EXPORT ORDINAL="2005" NAME="?LoadFromBuffer@DUIFactory@DirectUI@@QEAAJPEBG_K0PEAVElement@2@PEAKPEAPEAV32@@Z" PURGE="0" COMMENT="" />
    <EXPORT ORDINAL="2006" NAME="?LoadFromFile@DUIFactory@DirectUI@@QEAAJPEBG0PEAVElement@2@PEAKPEAPEAV32@@Z" PURGE="0" COMMENT="" />
    <EXPORT ORDINAL="2007" NAME="?LoadFromPath@Movie@DirectUI@@QEAAJPEBG@Z" PURGE="0" COMMENT="" />
    <EXPORT ORDINAL="2008" NAME="?LoadFromResource@DUIFactory@DirectUI@@QEAAJPEAUHINSTANCE__@@PEBG1PEAVElement@2@PEAKPEAPEAV42@1@Z" PURGE="0" COMMENT="" />
    <EXPORT ORDINAL="2009" NAME="?LoadFromResource@Movie@DirectUI@@QEAAJPEAUHINSTANCE__@@H@Z" PURGE="0" COMMENT="" />
    <EXPORT ORDINAL="2010" NAME="?LoadImagesIntoAnimationStrip@AnimationStrip@DirectUI@@IEAAJXZ" PURGE="0" COMMENT="" />
    <EXPORT ORDINAL="2011" NAME="?LoadPage@TaskPage@DirectUI@@AEAAJPEAPEAVElement@2@PEAV32@PEAPEAVDUIXmlParser@2@@Z" PURGE="0" COMMENT="" />
    <EXPORT ORDINAL="2012" NAME="?Next@DuiAccessible@DirectUI@@UEAAJKPEAUtagVARIANT@@PEAK@Z" PURGE="0" COMMENT="" />
    <EXPORT ORDINAL="2013" NAME="?LoadParser@TaskPage@DirectUI@@MEAAJPEAPEAVDUIXmlParser@2@@Z" PURGE="0" COMMENT="" />
    <EXPORT ORDINAL="2014" NAME="?LocalizedControlTypeProperty@Schema@DirectUI@@2HA" PURGE="-1" COMMENT="" />
    <EXPORT ORDINAL="2015" NAME="?Locate@RefPointElement@DirectUI@@SAPEAV12@PEAVElement@2@@Z" PURGE="0" COMMENT="" />
    <EXPORT ORDINAL="2016" NAME="?LocationProp@Element@DirectUI@@SAPEBUPropertyInfo@2@XZ" PURGE="0" COMMENT="" />
    <EXPORT ORDINAL="2017" NAME="?LookupAccessibleRole@Schema@DirectUI@@SAHHPEA_N@Z" PURGE="0" COMMENT="" />
    <EXPORT ORDINAL="2018" NAME="?LookupControlInfos@Schema@DirectUI@@CAJXZ" PURGE="0" COMMENT="" />
    <EXPORT ORDINAL="2019" NAME="?LookupElement@DUIXmlParser@DirectUI@@QEAAJPEAUIXmlReader@@PEBGPEAUHINSTANCE__@@PEAPEAUIClassInfo@2@@Z" PURGE="0" COMMENT="" />
    <EXPORT ORDINAL="2020" NAME="?LookupElement@DUIXmlParser@DirectUI@@QEAAJULINEINFO@2@PEBGPEAUHINSTANCE__@@PEAPEAUIClassInfo@2@@Z" PURGE="0" COMMENT="" />
    <EXPORT ORDINAL="2021" NAME="?LookupEventInfos@Schema@DirectUI@@CAJXZ" PURGE="0" COMMENT="" />
    <EXPORT ORDINAL="2022" NAME="?LookupPatternInfos@Schema@DirectUI@@CAJXZ" PURGE="0" COMMENT="" />
    <EXPORT ORDINAL="2023" NAME="?LookupPropertyInfos@Schema@DirectUI@@CAJXZ" PURGE="0" COMMENT="" />
    <EXPORT ORDINAL="2024" NAME="?MapElementPoint@Element@DirectUI@@QEAAXPEAV12@PEBUtagPOINT@@PEAU3@@Z" PURGE="0" COMMENT="" />
    <EXPORT ORDINAL="2025" NAME="?MapPropertyEnumValue@DUIXmlParser@DirectUI@@IEAAJPEBUEnumMap@2@PEBGPEAH@Z" PURGE="0" COMMENT="" />
    <EXPORT ORDINAL="2026" NAME="?MapPropertyNameToPropertyInfo@DUIXmlParser@DirectUI@@IEAAJULINEINFO@2@PEAUIClassInfo@2@PEBGPEAPEBUPropertyInfo@2@@Z" PURGE="0" COMMENT="" />
    <EXPORT ORDINAL="2027" NAME="?MarginProp@Element@DirectUI@@SAPEBUPropertyInfo@2@XZ" PURGE="0" COMMENT="" />
    <EXPORT ORDINAL="2028" NAME="?MarkHosted@Element@DirectUI@@IEAAXXZ" PURGE="0" COMMENT="" />
    <EXPORT ORDINAL="2029" NAME="?MarkNeedsDSUpdate@Element@DirectUI@@QEAAXXZ" PURGE="0" COMMENT="" />
    <EXPORT ORDINAL="2030" NAME="?MarkSelfLayout@Element@DirectUI@@IEAAXXZ" PURGE="0" COMMENT="" />
    <EXPORT ORDINAL="2031" NAME="?MaxLengthProp@Edit@DirectUI@@SAPEBUPropertyInfo@2@XZ" PURGE="0" COMMENT="" />
    <EXPORT ORDINAL="2032" NAME="?MaximumProp@CCBaseScrollBar@DirectUI@@SAPEBUPropertyInfo@2@XZ" PURGE="0" COMMENT="" />
    <EXPORT ORDINAL="2033" NAME="?MaximumProp@Progress@DirectUI@@SAPEBUPropertyInfo@2@XZ" PURGE="0" COMMENT="" />
    <EXPORT ORDINAL="2034" NAME="?MaximumProp@ScrollBar@DirectUI@@SAPEBUPropertyInfo@2@XZ" PURGE="0" COMMENT="" />
    <EXPORT ORDINAL="2035" NAME="?MenuBarControlType@Schema@DirectUI@@2HA" PURGE="-1" COMMENT="" />
    <EXPORT ORDINAL="2036" NAME="?MenuClosedEvent@Schema@DirectUI@@2HA" PURGE="-1" COMMENT="" />
    <EXPORT ORDINAL="2037" NAME="?MenuControlType@Schema@DirectUI@@2HA" PURGE="-1" COMMENT="" />
    <EXPORT ORDINAL="2038" NAME="?MenuItemControlType@Schema@DirectUI@@2HA" PURGE="-1" COMMENT="" />
    <EXPORT ORDINAL="2039" NAME="?MenuOpenedEvent@Schema@DirectUI@@2HA" PURGE="-1" COMMENT="" />
    <EXPORT ORDINAL="2040" NAME="?MessageCallback@Edit@DirectUI@@UEAAIPEAUtagGMSG@@@Z" PURGE="0" COMMENT="" />
    <EXPORT ORDINAL="2041" NAME="?MessageCallback@Element@DirectUI@@UEAAIPEAUtagGMSG@@@Z" PURGE="0" COMMENT="" />
    <EXPORT ORDINAL="2042" NAME="?MessageCallback@HWNDHost@DirectUI@@UEAAIPEAUtagGMSG@@@Z" PURGE="0" COMMENT="" />
    <EXPORT ORDINAL="2043" NAME="?MinSizeProp@Element@DirectUI@@SAPEBUPropertyInfo@2@XZ" PURGE="0" COMMENT="" />
    <EXPORT ORDINAL="2044" NAME="?MinimumProp@CCBaseScrollBar@DirectUI@@SAPEBUPropertyInfo@2@XZ" PURGE="0" COMMENT="" />
    <EXPORT ORDINAL="2045" NAME="?MinimumProp@Progress@DirectUI@@SAPEBUPropertyInfo@2@XZ" PURGE="0" COMMENT="" />
    <EXPORT ORDINAL="2046" NAME="?MinimumProp@ScrollBar@DirectUI@@SAPEBUPropertyInfo@2@XZ" PURGE="0" COMMENT="" />
    <EXPORT ORDINAL="2047" NAME="?MouseFocusedProp@Element@DirectUI@@SAPEBUPropertyInfo@2@XZ" PURGE="0" COMMENT="" />
    <EXPORT ORDINAL="2048" NAME="?MouseWithinProp@Element@DirectUI@@SAPEBUPropertyInfo@2@XZ" PURGE="0" COMMENT="" />
    <EXPORT ORDINAL="2049" NAME="?MultilineProp@Edit@DirectUI@@SAPEBUPropertyInfo@2@XZ" PURGE="0" COMMENT="" />
    <EXPORT ORDINAL="2050" NAME="?MultipleViewPattern@Schema@DirectUI@@2HA" PURGE="-1" COMMENT="" />
    <EXPORT ORDINAL="2051" NAME="?NameProperty@Schema@DirectUI@@2HA" PURGE="-1" COMMENT="" />
    <EXPORT ORDINAL="2052" NAME="?Navigate@DuiNavigate@DirectUI@@SAPEAVElement@2@PEAV32@PEAV?$DynamicArray@PEAVElement@DirectUI@@$0A@@2@H@Z" PURGE="0" COMMENT="" />
    <EXPORT ORDINAL="2053" NAME="?Navigate@ElementProvider@DirectUI@@UEAAJW4NavigateDirection@@PEAPEAUIRawElementProviderFragment@@@Z" PURGE="0" COMMENT="" />
    <EXPORT ORDINAL="2054" NAME="?Navigate@ElementProxy@DirectUI@@IEAAJW4NavigateDirection@@PEAPEAUIRawElementProviderFragment@@@Z" PURGE="0" COMMENT="" />
    <EXPORT ORDINAL="2055" NAME="?Navigate@XProvider@DirectUI@@UEAAJHPEA_N@Z" PURGE="0" COMMENT="" />
    <EXPORT ORDINAL="2056" NAME="?NeedsDSUpdate@Element@DirectUI@@QEAA_NXZ" PURGE="0" COMMENT="" />
    <EXPORT ORDINAL="2057" NAME="?NewNativeWindowHandleProperty@Schema@DirectUI@@2HA" PURGE="-1" COMMENT="" />
    <EXPORT ORDINAL="2058" NAME="?QueryInterface@Element@DirectUI@@UEAAJAEBU_GUID@@PEAPEAX@Z" PURGE="0" COMMENT="" />
    <EXPORT ORDINAL="2059" NAME="?Next@HWNDHostAccessible@DirectUI@@UEAAJKPEAUtagVARIANT@@PEAK@Z" PURGE="0" COMMENT="" />
    <EXPORT ORDINAL="2060" NAME="?NoteProp@CCCommandLink@DirectUI@@SAPEBUPropertyInfo@2@XZ" PURGE="0" COMMENT="" />
    <EXPORT ORDINAL="2061" NAME="?NullControlType@Schema@DirectUI@@2HA" PURGE="-1" COMMENT="" />
    <EXPORT ORDINAL="2062" NAME="?OnAction@AnimationStrip@DirectUI@@IEAAXPEAUGMA_ACTIONINFO@@@Z" PURGE="0" COMMENT="" />
    <EXPORT ORDINAL="2063" NAME="?OnAdd@BorderLayout@DirectUI@@UEAAXPEAVElement@2@PEAPEAV32@I@Z" PURGE="0" COMMENT="" />
    <EXPORT ORDINAL="2064" NAME="?OnAdd@Layout@DirectUI@@UEAAXPEAVElement@2@PEAPEAV32@I@Z" PURGE="0" COMMENT="" />
    <EXPORT ORDINAL="2065" NAME="?OnAdd@NineGridLayout@DirectUI@@UEAAXPEAVElement@2@PEAPEAV32@I@Z" PURGE="0" COMMENT="" />
    <EXPORT ORDINAL="2066" NAME="?OnAdd@ShellBorderLayout@DirectUI@@UEAAXPEAVElement@2@PEAPEAV32@I@Z" PURGE="0" COMMENT="" />
    <EXPORT ORDINAL="2067" NAME="?OnAdjustWindowSize@Combobox@DirectUI@@UEAAHHHI@Z" PURGE="0" COMMENT="" />
    <EXPORT ORDINAL="2068" NAME="?OnAdjustWindowSize@HWNDHost@DirectUI@@UEAAHHHI@Z" PURGE="0" COMMENT="" />
    <EXPORT ORDINAL="2069" NAME="?OnChildLostFocus@DialogElement@DirectUI@@UEAA_NPEAVElement@2@@Z" PURGE="0" COMMENT="" />
    <EXPORT ORDINAL="2070" NAME="?OnChildLostFocus@XBaby@DirectUI@@UEAA_NPEAVElement@2@@Z" PURGE="0" COMMENT="" />
    <EXPORT ORDINAL="2071" NAME="?OnChildReceivedFocus@DialogElement@DirectUI@@UEAA_NPEAVElement@2@@Z" PURGE="0" COMMENT="" />
    <EXPORT ORDINAL="2072" NAME="?OnChildReceivedFocus@XBaby@DirectUI@@UEAA_NPEAVElement@2@@Z" PURGE="0" COMMENT="" />
    <EXPORT ORDINAL="2073" NAME="?OnCompositionChanged@HWNDElement@DirectUI@@UEAAXXZ" PURGE="0" COMMENT="" />
    <EXPORT ORDINAL="2074" NAME="?OnCtrlThemeChanged@HWNDHost@DirectUI@@UEAA_NI_K_JPEA_J@Z" PURGE="0" COMMENT="" />
    <EXPORT ORDINAL="2075" NAME="?OnLostDialogFocus@CCBase@DirectUI@@UEAA_NPEAVDialogElement@2@@Z" PURGE="0" COMMENT="" />
    <EXPORT ORDINAL="2076" NAME="?OnDestroy@AnimationStrip@DirectUI@@MEAAXXZ" PURGE="0" COMMENT="" />
    <EXPORT ORDINAL="2077" NAME="?OnDestroy@DialogElement@DirectUI@@UEAAXXZ" PURGE="-1" COMMENT="" />
    <EXPORT ORDINAL="2078" NAME="?OnDestroy@Element@DirectUI@@UEAAXXZ" PURGE="0" COMMENT="" />
    <EXPORT ORDINAL="2079" NAME="?OnDestroy@HWNDElement@DirectUI@@UEAAXXZ" PURGE="-1" COMMENT="" />
    <EXPORT ORDINAL="2080" NAME="?OnDestroy@HWNDHost@DirectUI@@UEAAXXZ" PURGE="0" COMMENT="" />
    <EXPORT ORDINAL="2081" NAME="?OnDestroy@Movie@DirectUI@@UEAAXXZ" PURGE="0" COMMENT="" />
    <EXPORT ORDINAL="2082" NAME="?OnEvent@AutoButton@DirectUI@@UEAAXPEAUEvent@2@@Z" PURGE="0" COMMENT="" />
    <EXPORT ORDINAL="2083" NAME="?OnEvent@BaseScrollViewer@DirectUI@@UEAAXPEAUEvent@2@@Z" PURGE="0" COMMENT="" />
    <EXPORT ORDINAL="2084" NAME="?OnEvent@Browser@DirectUI@@UEAAXPEAUEvent@2@@Z" PURGE="0" COMMENT="" />
    <EXPORT ORDINAL="2085" NAME="?OnEvent@Element@DirectUI@@UEAAXPEAUEvent@2@@Z" PURGE="0" COMMENT="" />
    <EXPORT ORDINAL="2086" NAME="?OnEvent@Expando@DirectUI@@UEAAXPEAUEvent@2@@Z" PURGE="0" COMMENT="" />
    <EXPORT ORDINAL="2087" NAME="?OnEvent@HWNDElement@DirectUI@@UEAAXPEAUEvent@2@@Z" PURGE="0" COMMENT="" />
    <EXPORT ORDINAL="2088" NAME="?OnEvent@HWNDHost@DirectUI@@UEAAXPEAUEvent@2@@Z" PURGE="0" COMMENT="" />
    <EXPORT ORDINAL="2089" NAME="?OnEvent@Movie@DirectUI@@UEAAXPEAUEvent@2@@Z" PURGE="0" COMMENT="" />
    <EXPORT ORDINAL="2090" NAME="?OnEvent@Navigator@DirectUI@@UEAAXPEAUEvent@2@@Z" PURGE="0" COMMENT="" />
    <EXPORT ORDINAL="2091" NAME="?OnEvent@ScrollBar@DirectUI@@UEAAXPEAUEvent@2@@Z" PURGE="0" COMMENT="" />
    <EXPORT ORDINAL="2092" NAME="?OnEvent@Viewer@DirectUI@@UEAAXPEAUEvent@2@@Z" PURGE="0" COMMENT="" />
    <EXPORT ORDINAL="2093" NAME="?OnEvent@SelectorNoDefault@DirectUI@@UEAAXPEAUEvent@2@@Z" PURGE="0" COMMENT="" />
    <EXPORT ORDINAL="2094" NAME="?OnEvent@Selector@DirectUI@@UEAAXPEAUEvent@2@@Z" PURGE="0" COMMENT="" />
    <EXPORT ORDINAL="2095" NAME="?OnEvent@XBaby@DirectUI@@UEAAXPEAUEvent@2@@Z" PURGE="0" COMMENT="" />
    <EXPORT ORDINAL="2096" NAME="?OnEvent@XElement@DirectUI@@UEAAXPEAUEvent@2@@Z" PURGE="0" COMMENT="" />
    <EXPORT ORDINAL="2097" NAME="?OnGetDlgCode@DialogElement@DirectUI@@UEAAXPEAUtagMSG@@PEA_J@Z" PURGE="0" COMMENT="" />
    <EXPORT ORDINAL="2098" NAME="?OnGetDlgCode@HWNDElement@DirectUI@@UEAAXPEAUtagMSG@@PEA_J@Z" PURGE="0" COMMENT="" />
    <EXPORT ORDINAL="2099" NAME="?OnGroupChanged@Element@DirectUI@@UEAAXH_N@Z" PURGE="0" COMMENT="" />
    <EXPORT ORDINAL="2100" NAME="?OnGroupChanged@HWNDElement@DirectUI@@UEAAXH_N@Z" PURGE="0" COMMENT="" />
    <EXPORT ORDINAL="2101" NAME="?OnHosted@Combobox@DirectUI@@UEAAXPEAVElement@2@@Z" PURGE="0" COMMENT="" />
    <EXPORT ORDINAL="2102" NAME="?OnHosted@Element@DirectUI@@MEAAXPEAV12@@Z" PURGE="0" COMMENT="" />
    <EXPORT ORDINAL="2103" NAME="?OnHosted@HWNDHost@DirectUI@@MEAAXPEAVElement@2@@Z" PURGE="0" COMMENT="" />
    <EXPORT ORDINAL="2104" NAME="?OnHosted@Movie@DirectUI@@UEAAXPEAVElement@2@@Z" PURGE="0" COMMENT="" />
    <EXPORT ORDINAL="2105" NAME="?OnHosted@PushButton@DirectUI@@UEAAXPEAVElement@2@@Z" PURGE="0" COMMENT="" />
    <EXPORT ORDINAL="2106" NAME="?OnInput@BaseScrollViewer@DirectUI@@UEAAXPEAUInputEvent@2@@Z" PURGE="0" COMMENT="" />
    <EXPORT ORDINAL="2107" NAME="?OnInput@Button@DirectUI@@UEAAXPEAUInputEvent@2@@Z" PURGE="0" COMMENT="" />
    <EXPORT ORDINAL="2108" NAME="?OnInput@Combobox@DirectUI@@UEAAXPEAUInputEvent@2@@Z" PURGE="0" COMMENT="" />
    <EXPORT ORDINAL="2109" NAME="?OnInput@CCRadioButton@DirectUI@@UEAAXPEAUInputEvent@2@@Z" PURGE="0" COMMENT="" />
    <EXPORT ORDINAL="2110" NAME="?OnInput@CCProgressBar@DirectUI@@UEAAXPEAUInputEvent@2@@Z" PURGE="0" COMMENT="" />
    <EXPORT ORDINAL="2111" NAME="?OnInput@CCPushButton@DirectUI@@UEAAXPEAUInputEvent@2@@Z" PURGE="0" COMMENT="" />
    <EXPORT ORDINAL="2112" NAME="?OnInput@CCCheckBox@DirectUI@@UEAAXPEAUInputEvent@2@@Z" PURGE="0" COMMENT="" />
    <EXPORT ORDINAL="2113" NAME="?OnInput@CCSysLink@DirectUI@@UEAAXPEAUInputEvent@2@@Z" PURGE="0" COMMENT="" />
    <EXPORT ORDINAL="2114" NAME="?OnInput@XElement@DirectUI@@UEAAXPEAUInputEvent@2@@Z" PURGE="0" COMMENT="" />
    <EXPORT ORDINAL="2115" NAME="?OnInput@DialogElement@DirectUI@@UEAAXPEAUInputEvent@2@@Z" PURGE="0" COMMENT="" />
    <EXPORT ORDINAL="2116" NAME="?OnInput@Edit@DirectUI@@UEAAXPEAUInputEvent@2@@Z" PURGE="0" COMMENT="" />
    <EXPORT ORDINAL="2117" NAME="?OnInput@Element@DirectUI@@UEAAXPEAUInputEvent@2@@Z" PURGE="0" COMMENT="" />
    <EXPORT ORDINAL="2118" NAME="?OnInput@HWNDElement@DirectUI@@UEAAXPEAUInputEvent@2@@Z" PURGE="0" COMMENT="" />
    <EXPORT ORDINAL="2119" NAME="?OnInput@HWNDHost@DirectUI@@UEAAXPEAUInputEvent@2@@Z" PURGE="0" COMMENT="" />
    <EXPORT ORDINAL="2120" NAME="?OnInput@RepeatButton@DirectUI@@UEAAXPEAUInputEvent@2@@Z" PURGE="0" COMMENT="" />
    <EXPORT ORDINAL="2121" NAME="?OnInput@Selector@DirectUI@@UEAAXPEAUInputEvent@2@@Z" PURGE="0" COMMENT="" />
    <EXPORT ORDINAL="2122" NAME="?OnInput@Thumb@DirectUI@@UEAAXPEAUInputEvent@2@@Z" PURGE="0" COMMENT="" />
    <EXPORT ORDINAL="2123" NAME="?OnInput@Viewer@DirectUI@@UEAAXPEAUInputEvent@2@@Z" PURGE="0" COMMENT="" />
    <EXPORT ORDINAL="2124" NAME="?OnInput@CCBase@DirectUI@@UEAAXPEAUInputEvent@2@@Z" PURGE="0" COMMENT="" />
    <EXPORT ORDINAL="2125" NAME="?OnInvoke@InvokeHelper@DirectUI@@AEAAXPEAUInvokeArgs@12@@Z" PURGE="0" COMMENT="" />
    <EXPORT ORDINAL="2126" NAME="?OnListenedEvent@BaseScrollViewer@DirectUI@@UEAAXPEAVElement@2@PEAUEvent@2@@Z" PURGE="0" COMMENT="" />
    <EXPORT ORDINAL="2127" NAME="?OnKeyFocusMoved@DialogElement@DirectUI@@UEAAXPEAVElement@2@0@Z" PURGE="0" COMMENT="" />
    <EXPORT ORDINAL="2128" NAME="?OnKeyFocusMoved@Element@DirectUI@@UEAAXPEAV12@0@Z" PURGE="0" COMMENT="" />
    <EXPORT ORDINAL="2129" NAME="?OnKeyFocusMoved@Selector@DirectUI@@UEAAXPEAVElement@2@0@Z" PURGE="0" COMMENT="" />
    <EXPORT ORDINAL="2130" NAME="?OnKeyFocusMoved@SelectorNoDefault@DirectUI@@UEAAXPEAVElement@2@0@Z" PURGE="0" COMMENT="" />
    <EXPORT ORDINAL="2131" NAME="?OnQueryCancel@TaskPage@DirectUI@@MEAA_JXZ" PURGE="0" COMMENT="" />
    <EXPORT ORDINAL="2132" NAME="?OnLayoutPosChanged@BorderLayout@DirectUI@@UEAAXPEAVElement@2@0HH@Z" PURGE="0" COMMENT="" />
    <EXPORT ORDINAL="2133" NAME="?OnLayoutPosChanged@Layout@DirectUI@@UEAAXPEAVElement@2@0HH@Z" PURGE="0" COMMENT="" />
    <EXPORT ORDINAL="2134" NAME="?OnLayoutPosChanged@NineGridLayout@DirectUI@@UEAAXPEAVElement@2@0HH@Z" PURGE="0" COMMENT="" />
    <EXPORT ORDINAL="2135" NAME="?OnLayoutPosChanged@ShellBorderLayout@DirectUI@@UEAAXPEAVElement@2@0HH@Z" PURGE="0" COMMENT="" />
    <EXPORT ORDINAL="2136" NAME="?OnListenedEvent@DialogElement@DirectUI@@UEAAXPEAVElement@2@PEAUEvent@2@@Z" PURGE="0" COMMENT="" />
    <EXPORT ORDINAL="2137" NAME="?OnListenedEvent@TaskPage@DirectUI@@MEAAXPEAVElement@2@PEAUEvent@2@@Z" PURGE="0" COMMENT="" />
    <EXPORT ORDINAL="2138" NAME="?OnListenedInput@BaseScrollViewer@DirectUI@@UEAAXPEAVElement@2@PEAUInputEvent@2@@Z" PURGE="0" COMMENT="" />
    <EXPORT ORDINAL="2139" NAME="?OnListenedInput@DialogElement@DirectUI@@UEAAXPEAVElement@2@PEAUInputEvent@2@@Z" PURGE="0" COMMENT="" />
    <EXPORT ORDINAL="2140" NAME="?OnListenedInput@TaskPage@DirectUI@@MEAAXPEAVElement@2@PEAUInputEvent@2@@Z" PURGE="0" COMMENT="" />
    <EXPORT ORDINAL="2141" NAME="?OnListenedPropertyChanged@DialogElement@DirectUI@@UEAAXPEAVElement@2@PEBUPropertyInfo@2@HPEAVValue@2@2@Z" PURGE="0" COMMENT="" />
    <EXPORT ORDINAL="2142" NAME="?OnListenedPropertyChanged@BaseScrollViewer@DirectUI@@UEAAXPEAVElement@2@PEBUPropertyInfo@2@HPEAVValue@2@2@Z" PURGE="0" COMMENT="" />
    <EXPORT ORDINAL="2143" NAME="?OnListenedPropertyChanged@TaskPage@DirectUI@@MEAAXPEAVElement@2@PEBUPropertyInfo@2@HPEAVValue@2@2@Z" PURGE="0" COMMENT="" />
    <EXPORT ORDINAL="2144" NAME="?OnListenedPropertyChanged@ScrollViewer@DirectUI@@UEAAXPEAVElement@2@PEBUPropertyInfo@2@HPEAVValue@2@2@Z" PURGE="0" COMMENT="" />
    <EXPORT ORDINAL="2145" NAME="?OnListenedPropertyChanged@StyledScrollViewer@DirectUI@@UEAAXPEAVElement@2@PEBUPropertyInfo@2@HPEAVValue@2@2@Z" PURGE="0" COMMENT="" />
    <EXPORT ORDINAL="2146" NAME="?OnListenerAttach@BaseScrollViewer@DirectUI@@UEAAXPEAVElement@2@@Z" PURGE="0" COMMENT="" />
    <EXPORT ORDINAL="2147" NAME="?OnListenedPropertyChanging@DialogElement@DirectUI@@UEAA_NPEAVElement@2@PEBUPropertyInfo@2@HPEAVValue@2@2@Z" PURGE="0" COMMENT="" />
    <EXPORT ORDINAL="2148" NAME="?OnListenedPropertyChanging@TaskPage@DirectUI@@MEAA_NPEAVElement@2@PEBUPropertyInfo@2@HPEAVValue@2@2@Z" PURGE="0" COMMENT="" />
    <EXPORT ORDINAL="2149" NAME="?OnLostDialogFocus@ExpandoButtonGlyph@DirectUI@@UEAA_NPEAVDialogElement@2@@Z" PURGE="0" COMMENT="" />
    <EXPORT ORDINAL="2150" NAME="?OnListenerAttach@DialogElement@DirectUI@@UEAAXPEAVElement@2@@Z" PURGE="0" COMMENT="" />
    <EXPORT ORDINAL="2151" NAME="?OnListenerAttach@TaskPage@DirectUI@@MEAAXPEAVElement@2@@Z" PURGE="0" COMMENT="" />
    <EXPORT ORDINAL="2152" NAME="?OnListenerDetach@BaseScrollViewer@DirectUI@@UEAAXPEAVElement@2@@Z" PURGE="0" COMMENT="" />
    <EXPORT ORDINAL="2153" NAME="?OnListenerDetach@TaskPage@DirectUI@@MEAAXPEAVElement@2@@Z" PURGE="0" COMMENT="" />
    <EXPORT ORDINAL="2154" NAME="?OnListenerDetach@DialogElement@DirectUI@@UEAAXPEAVElement@2@@Z" PURGE="0" COMMENT="" />
    <EXPORT ORDINAL="2155" NAME="?OnPropertyChanged@Element@DirectUI@@UEAAXPEAUPropertyInfo@2@HPEAVValue@2@1@Z" PURGE="0" COMMENT="" />
    <EXPORT ORDINAL="2156" NAME="?OnLostDialogFocus@Button@DirectUI@@UEAA_NPEAVDialogElement@2@@Z" PURGE="0" COMMENT="" />
    <EXPORT ORDINAL="2157" NAME="?OnLostDialogFocus@CCBaseCheckRadioButton@DirectUI@@UEAA_NPEAVDialogElement@2@@Z" PURGE="0" COMMENT="" />
    <EXPORT ORDINAL="2158" NAME="?OnLostDialogFocus@CheckBoxGlyph@DirectUI@@UEAA_NPEAVDialogElement@2@@Z" PURGE="0" COMMENT="" />
    <EXPORT ORDINAL="2159" NAME="?OnLostDialogFocus@CCSysLink@DirectUI@@UEAA_NPEAVDialogElement@2@@Z" PURGE="0" COMMENT="" />
    <EXPORT ORDINAL="2160" NAME="?OnLostDialogFocus@CCPushButton@DirectUI@@UEAA_NPEAVDialogElement@2@@Z" PURGE="0" COMMENT="" />
    <EXPORT ORDINAL="2161" NAME="?OnLostDialogFocus@RadioButtonGlyph@DirectUI@@UEAA_NPEAVDialogElement@2@@Z" PURGE="0" COMMENT="" />
    <EXPORT ORDINAL="2162" NAME="?OnPropertyChanging@Element@DirectUI@@UEAA_NPEAUPropertyInfo@2@HPEAVValue@2@1@Z" PURGE="0" COMMENT="" />
    <EXPORT ORDINAL="2163" NAME="?OnMessage@HWNDHost@DirectUI@@UEAA_NI_K_JPEA_J@Z" PURGE="0" COMMENT="" />
    <EXPORT ORDINAL="2164" NAME="?OnMaximumChanged@BaseScrollBar@DirectUI@@QEAAXPEAVValue@2@@Z" PURGE="0" COMMENT="" />
    <EXPORT ORDINAL="2165" NAME="?OnMessage@CCBaseScrollBar@DirectUI@@UEAA_NI_K_JPEA_J@Z" PURGE="0" COMMENT="" />
    <EXPORT ORDINAL="2166" NAME="?OnMessage@CCPushButton@DirectUI@@UEAA_NI_K_JPEA_J@Z" PURGE="0" COMMENT="" />
    <EXPORT ORDINAL="2167" NAME="?OnMessage@CCTrackBar@DirectUI@@UEAA_NI_K_JPEA_J@Z" PURGE="0" COMMENT="" />
    <EXPORT ORDINAL="2168" NAME="?OnMessage@TaskPage@DirectUI@@MEAA_NI_K_JPEA_J@Z" PURGE="0" COMMENT="" />
    <EXPORT ORDINAL="2169" NAME="?Release@Element@DirectUI@@QEAAKXZ" PURGE="0" COMMENT="" />
    <EXPORT ORDINAL="2170" NAME="?OnNotify@HWNDHost@DirectUI@@UEAA_NI_K_JPEA_J@Z" PURGE="0" COMMENT="" />
    <EXPORT ORDINAL="2171" NAME="?OnMessage@XElement@DirectUI@@UEAA_NI_K_JPEA_J@Z" PURGE="0" COMMENT="" />
    <EXPORT ORDINAL="2172" NAME="?OnMinimumChanged@BaseScrollBar@DirectUI@@QEAAXPEAVValue@2@@Z" PURGE="0" COMMENT="" />
    <EXPORT ORDINAL="2173" NAME="?OnMouseFocusMoved@Element@DirectUI@@UEAAXPEAV12@0@Z" PURGE="0" COMMENT="" />
    <EXPORT ORDINAL="2174" NAME="?OnNoChildWithShortcutFound@HWNDElement@DirectUI@@UEAAXPEAUKeyboardEvent@2@@Z" PURGE="0" COMMENT="" />
    <EXPORT ORDINAL="2175" NAME="?OnNoChildWithShortcutFound@XBaby@DirectUI@@UEAAXPEAUKeyboardEvent@2@@Z" PURGE="-1" COMMENT="" />
    <EXPORT ORDINAL="2176" NAME="?OnNotify@CCBase@DirectUI@@UEAA_NI_K_JPEA_J@Z" PURGE="0" COMMENT="" />
    <EXPORT ORDINAL="2177" NAME="?OnNotify@CCCheckBox@DirectUI@@UEAA_NI_K_JPEA_J@Z" PURGE="0" COMMENT="" />
    <EXPORT ORDINAL="2178" NAME="?OnNotify@CCPushButton@DirectUI@@UEAA_NI_K_JPEA_J@Z" PURGE="0" COMMENT="" />
    <EXPORT ORDINAL="2179" NAME="?OnNotify@CCRadioButton@DirectUI@@UEAA_NI_K_JPEA_J@Z" PURGE="0" COMMENT="" />
    <EXPORT ORDINAL="2180" NAME="?OnNotify@CCTreeView@DirectUI@@UEAA_NI_K_JPEA_J@Z" PURGE="0" COMMENT="" />
    <EXPORT ORDINAL="2181" NAME="?OnNotify@Combobox@DirectUI@@UEAA_NI_K_JPEA_J@Z" PURGE="0" COMMENT="" />
    <EXPORT ORDINAL="2182" NAME="?OnNotify@Edit@DirectUI@@UEAA_NI_K_JPEA_J@Z" PURGE="0" COMMENT="" />
    <EXPORT ORDINAL="2183" NAME="?OnReceivedDialogFocus@CCBase@DirectUI@@UEAA_NPEAVDialogElement@2@@Z" PURGE="0" COMMENT="" />
    <EXPORT ORDINAL="2184" NAME="?OnPageChanged@BaseScrollBar@DirectUI@@QEAAXPEAVValue@2@@Z" PURGE="0" COMMENT="" />
    <EXPORT ORDINAL="2185" NAME="?OnPageChanging@BaseScrollBar@DirectUI@@QEAA_NPEAVValue@2@@Z" PURGE="0" COMMENT="" />
    <EXPORT ORDINAL="2186" NAME="?OnPositionChanged@BaseScrollBar@DirectUI@@QEAAXPEAVValue@2@@Z" PURGE="0" COMMENT="" />
    <EXPORT ORDINAL="2187" NAME="?OnPositionChanging@BaseScrollBar@DirectUI@@QEAA_NPEAVValue@2@@Z" PURGE="0" COMMENT="" />
    <EXPORT ORDINAL="2188" NAME="?OnPropertyChanged@AccessibleButton@DirectUI@@UEAAXPEBUPropertyInfo@2@HPEAVValue@2@1@Z" PURGE="0" COMMENT="" />
    <EXPORT ORDINAL="2189" NAME="?OnPropertyChanged@AnimationStrip@DirectUI@@MEAAXPEBUPropertyInfo@2@HPEAVValue@2@1@Z" PURGE="0" COMMENT="" />
    <EXPORT ORDINAL="2190" NAME="?OnPropertyChanged@BaseScrollViewer@DirectUI@@UEAAXPEBUPropertyInfo@2@HPEAVValue@2@1@Z" PURGE="0" COMMENT="" />
    <EXPORT ORDINAL="2191" NAME="?OnPropertyChanged@Browser@DirectUI@@UEAAXPEBUPropertyInfo@2@HPEAVValue@2@1@Z" PURGE="0" COMMENT="" />
    <EXPORT ORDINAL="2192" NAME="?OnPropertyChanged@Button@DirectUI@@UEAAXPEBUPropertyInfo@2@HPEAVValue@2@1@Z" PURGE="0" COMMENT="" />
    <EXPORT ORDINAL="2193" NAME="?OnPropertyChanged@CCBase@DirectUI@@UEAAXPEBUPropertyInfo@2@HPEAVValue@2@1@Z" PURGE="0" COMMENT="" />
    <EXPORT ORDINAL="2194" NAME="?OnPropertyChanged@CCBaseCheckRadioButton@DirectUI@@UEAAXPEBUPropertyInfo@2@HPEAVValue@2@1@Z" PURGE="0" COMMENT="" />
    <EXPORT ORDINAL="2195" NAME="?OnPropertyChanged@CCBaseScrollBar@DirectUI@@UEAAXPEBUPropertyInfo@2@HPEAVValue@2@1@Z" PURGE="0" COMMENT="" />
    <EXPORT ORDINAL="2196" NAME="?OnPropertyChanged@CCCommandLink@DirectUI@@UEAAXPEBUPropertyInfo@2@HPEAVValue@2@1@Z" PURGE="0" COMMENT="" />
    <EXPORT ORDINAL="2197" NAME="?OnPropertyChanged@CCPushButton@DirectUI@@UEAAXPEBUPropertyInfo@2@HPEAVValue@2@1@Z" PURGE="0" COMMENT="" />
    <EXPORT ORDINAL="2198" NAME="?OnPropertyChanged@CCTrackBar@DirectUI@@UEAAXPEBUPropertyInfo@2@HPEAVValue@2@1@Z" PURGE="0" COMMENT="" />
    <EXPORT ORDINAL="2199" NAME="?OnPropertyChanged@Combobox@DirectUI@@UEAAXPEBUPropertyInfo@2@HPEAVValue@2@1@Z" PURGE="0" COMMENT="" />
    <EXPORT ORDINAL="2200" NAME="?OnPropertyChanged@DialogElement@DirectUI@@UEAAXPEBUPropertyInfo@2@HPEAVValue@2@1@Z" PURGE="0" COMMENT="" />
    <EXPORT ORDINAL="2201" NAME="?OnPropertyChanged@Edit@DirectUI@@UEAAXPEBUPropertyInfo@2@HPEAVValue@2@1@Z" PURGE="0" COMMENT="" />
    <EXPORT ORDINAL="2202" NAME="?OnWmThemeChanged@XBaby@DirectUI@@UEAAX_K_J@Z" PURGE="0" COMMENT="" />
    <EXPORT ORDINAL="2203" NAME="?OnPropertyChanged@Element@DirectUI@@UEAAXPEBUPropertyInfo@2@HPEAVValue@2@1@Z" PURGE="0" COMMENT="" />
    <EXPORT ORDINAL="2204" NAME="?OnPropertyChanged@Expando@DirectUI@@UEAAXPEBUPropertyInfo@2@HPEAVValue@2@1@Z" PURGE="0" COMMENT="" />
    <EXPORT ORDINAL="2205" NAME="?OnPropertyChanged@HWNDElement@DirectUI@@UEAAXPEBUPropertyInfo@2@HPEAVValue@2@1@Z" PURGE="0" COMMENT="" />
    <EXPORT ORDINAL="2206" NAME="?OnPropertyChanged@HWNDHost@DirectUI@@UEAAXPEBUPropertyInfo@2@HPEAVValue@2@1@Z" PURGE="0" COMMENT="" />
    <EXPORT ORDINAL="2207" NAME="?OnPropertyChanged@Macro@DirectUI@@UEAAXPEBUPropertyInfo@2@HPEAVValue@2@1@Z" PURGE="0" COMMENT="" />
    <EXPORT ORDINAL="2208" NAME="?OnPropertyChanged@RefPointElement@DirectUI@@UEAAXPEBUPropertyInfo@2@HPEAVValue@2@1@Z" PURGE="0" COMMENT="" />
    <EXPORT ORDINAL="2209" NAME="?OnPropertyChanged@ScrollBar@DirectUI@@UEAAXPEBUPropertyInfo@2@HPEAVValue@2@1@Z" PURGE="0" COMMENT="" />
    <EXPORT ORDINAL="2210" NAME="?OnPropertyChanged@ScrollViewer@DirectUI@@UEAAXPEBUPropertyInfo@2@HPEAVValue@2@1@Z" PURGE="0" COMMENT="" />
    <EXPORT ORDINAL="2211" NAME="?OnPropertyChanged@Selector@DirectUI@@UEAAXPEBUPropertyInfo@2@HPEAVValue@2@1@Z" PURGE="0" COMMENT="" />
    <EXPORT ORDINAL="2212" NAME="?OnPropertyChanged@TextGraphic@DirectUI@@UEAAXPEBUPropertyInfo@2@HPEAVValue@2@1@Z" PURGE="0" COMMENT="" />
    <EXPORT ORDINAL="2213" NAME="?OnPropertyChanged@Viewer@DirectUI@@UEAAXPEBUPropertyInfo@2@HPEAVValue@2@1@Z" PURGE="0" COMMENT="" />
    <EXPORT ORDINAL="2214" NAME="?OnPropertyChanging@BaseScrollViewer@DirectUI@@UEAA_NPEBUPropertyInfo@2@HPEAVValue@2@1@Z" PURGE="0" COMMENT="" />
    <EXPORT ORDINAL="2215" NAME="?OnPropertyChanging@CCBaseScrollBar@DirectUI@@UEAA_NPEBUPropertyInfo@2@HPEAVValue@2@1@Z" PURGE="0" COMMENT="" />
    <EXPORT ORDINAL="2216" NAME="?OnPropertyChanging@CCTrackBar@DirectUI@@UEAA_NPEBUPropertyInfo@2@HPEAVValue@2@1@Z" PURGE="0" COMMENT="" />
    <EXPORT ORDINAL="2217" NAME="?OnPropertyChanging@Viewer@DirectUI@@UEAA_NPEBUPropertyInfo@2@HPEAVValue@2@1@Z" PURGE="0" COMMENT="" />
    <EXPORT ORDINAL="2218" NAME="?OnPropertyChanging@Element@DirectUI@@UEAA_NPEBUPropertyInfo@2@HPEAVValue@2@1@Z" PURGE="0" COMMENT="" />
    <EXPORT ORDINAL="2219" NAME="?OnPropertyChanging@PText@DirectUI@@UEAA_NPEBUPropertyInfo@2@HPEAVValue@2@1@Z" PURGE="0" COMMENT="" />
    <EXPORT ORDINAL="2220" NAME="?OnPropertyChanging@ScrollBar@DirectUI@@UEAA_NPEBUPropertyInfo@2@HPEAVValue@2@1@Z" PURGE="0" COMMENT="" />
    <EXPORT ORDINAL="2221" NAME="?OnPropertyChanging@TextGraphic@DirectUI@@UEAA_NPEBUPropertyInfo@2@HPEAVValue@2@1@Z" PURGE="0" COMMENT="" />
    <EXPORT ORDINAL="2222" NAME="?OnReceivedDialogFocus@ExpandoButtonGlyph@DirectUI@@UEAA_NPEAVDialogElement@2@@Z" PURGE="0" COMMENT="" />
    <EXPORT ORDINAL="2223" NAME="?OnQueryInitialFocus@TaskPage@DirectUI@@MEAAPEAVElement@2@XZ" PURGE="0" COMMENT="" />
    <EXPORT ORDINAL="2224" NAME="?OnReset@TaskPage@DirectUI@@MEAA_JXZ" PURGE="0" COMMENT="" />
    <EXPORT ORDINAL="2225" NAME="?OnReceivedDialogFocus@Button@DirectUI@@UEAA_NPEAVDialogElement@2@@Z" PURGE="0" COMMENT="" />
    <EXPORT ORDINAL="2226" NAME="?OnReceivedDialogFocus@CCBaseCheckRadioButton@DirectUI@@UEAA_NPEAVDialogElement@2@@Z" PURGE="0" COMMENT="" />
    <EXPORT ORDINAL="2227" NAME="?OnReceivedDialogFocus@CheckBoxGlyph@DirectUI@@UEAA_NPEAVDialogElement@2@@Z" PURGE="0" COMMENT="" />
    <EXPORT ORDINAL="2228" NAME="?OnReceivedDialogFocus@CCSysLink@DirectUI@@UEAA_NPEAVDialogElement@2@@Z" PURGE="0" COMMENT="" />
    <EXPORT ORDINAL="2229" NAME="?OnReceivedDialogFocus@CCPushButton@DirectUI@@UEAA_NPEAVDialogElement@2@@Z" PURGE="0" COMMENT="" />
    <EXPORT ORDINAL="2230" NAME="?OnReceivedDialogFocus@RadioButtonGlyph@DirectUI@@UEAA_NPEAVDialogElement@2@@Z" PURGE="0" COMMENT="" />
    <EXPORT ORDINAL="2231" NAME="?CanSetFocus@HWNDElement@DirectUI@@UEAA_NXZ" PURGE="0" COMMENT="" />
    <EXPORT ORDINAL="2232" NAME="?OnSysChar@HWNDHost@DirectUI@@UEAA_NG@Z" PURGE="0" COMMENT="" />
    <EXPORT ORDINAL="2233" NAME="?OnRemove@BorderLayout@DirectUI@@UEAAXPEAVElement@2@PEAPEAV32@I@Z" PURGE="0" COMMENT="" />
    <EXPORT ORDINAL="2234" NAME="?OnRemove@Layout@DirectUI@@UEAAXPEAVElement@2@PEAPEAV32@I@Z" PURGE="0" COMMENT="" />
    <EXPORT ORDINAL="2235" NAME="?OnRemove@NineGridLayout@DirectUI@@UEAAXPEAVElement@2@PEAPEAV32@I@Z" PURGE="0" COMMENT="" />
    <EXPORT ORDINAL="2236" NAME="?OnRemove@ShellBorderLayout@DirectUI@@UEAAXPEAVElement@2@PEAPEAV32@I@Z" PURGE="0" COMMENT="" />
    <EXPORT ORDINAL="2237" NAME="?OnSetActive@TaskPage@DirectUI@@MEAA_JXZ" PURGE="0" COMMENT="" />
    <EXPORT ORDINAL="2238" NAME="?OnSelectedPropertyChanged@CCCommandLink@DirectUI@@UEAAXXZ" PURGE="0" COMMENT="" />
    <EXPORT ORDINAL="2239" NAME="?OnSelectedPropertyChanged@CCPushButton@DirectUI@@UEAAXXZ" PURGE="0" COMMENT="" />
    <EXPORT ORDINAL="2240" NAME="?OnWizBack@TaskPage@DirectUI@@MEAA_JXZ" PURGE="0" COMMENT="" />
    <EXPORT ORDINAL="2241" NAME="?OnSinkThemeChanged@HWNDHost@DirectUI@@UEAA_NI_K_JPEA_J@Z" PURGE="0" COMMENT="" />
    <EXPORT ORDINAL="2242" NAME="?OnSinkThemeChanged@XElement@DirectUI@@UEAA_NI_K_JPEA_J@Z" PURGE="0" COMMENT="" />
    <EXPORT ORDINAL="2243" NAME="?IsContentProtected@Element@DirectUI@@UEAA_NXZ" PURGE="0" COMMENT="" />
    <EXPORT ORDINAL="2244" NAME="?OnSysChar@XElement@DirectUI@@UEAA_NG@Z" PURGE="0" COMMENT="" />
    <EXPORT ORDINAL="2245" NAME="?OnThemeChanged@HWNDElement@DirectUI@@UEAAXPEAUThemeChangedEvent@2@@Z" PURGE="0" COMMENT="" />
    <EXPORT ORDINAL="2246" NAME="?OnThemeChanged@XBaby@DirectUI@@UEAAXPEAUThemeChangedEvent@2@@Z" PURGE="0" COMMENT="" />
    <EXPORT ORDINAL="2247" NAME="?OnToolTip@EventManager@DirectUI@@SAJPEAVElement@2@K@Z" PURGE="0" COMMENT="" />
    <EXPORT ORDINAL="2248" NAME="?OnUnHosted@Element@DirectUI@@MEAAXPEAV12@@Z" PURGE="0" COMMENT="" />
    <EXPORT ORDINAL="2249" NAME="?OnUnHosted@HWNDHost@DirectUI@@MEAAXPEAVElement@2@@Z" PURGE="0" COMMENT="" />
    <EXPORT ORDINAL="2250" NAME="?OnUnHosted@PushButton@DirectUI@@UEAAXPEAVElement@2@@Z" PURGE="0" COMMENT="" />
    <EXPORT ORDINAL="2251" NAME="?OnWindowStyleChanged@HWNDHost@DirectUI@@UEAAX_KPEBUtagSTYLESTRUCT@@@Z" PURGE="0" COMMENT="" />
    <EXPORT ORDINAL="2252" NAME="?OnWizFinish@TaskPage@DirectUI@@MEAA_JXZ" PURGE="0" COMMENT="" />
    <EXPORT ORDINAL="2253" NAME="?OnWizNext@TaskPage@DirectUI@@MEAA_JXZ" PURGE="0" COMMENT="" />
    <EXPORT ORDINAL="2254" NAME="?CreateHWND@HWNDHost@DirectUI@@MEAAPEAUHWND__@@PEAU3@@Z" PURGE="0" COMMENT="" />
    <EXPORT ORDINAL="2255" NAME="?OnWmThemeChanged@HWNDElement@DirectUI@@UEAAX_K_J@Z" PURGE="0" COMMENT="" />
    <EXPORT ORDINAL="2256" NAME="?PostCreate@CCBase@DirectUI@@MEAAXPEAUHWND__@@@Z" PURGE="0" COMMENT="" />
    <EXPORT ORDINAL="2257" NAME="?OnWndMsg@TaskPage@DirectUI@@AEAAHI_K_JPEA_J@Z" PURGE="0" COMMENT="" />
    <EXPORT ORDINAL="2258" NAME="?OpenAnimation@CCAVI@DirectUI@@AEAAXPEAUHWND__@@@Z" PURGE="0" COMMENT="" />
    <EXPORT ORDINAL="2259" NAME="?OptimizeMoveProp@HWNDHost@DirectUI@@SAPEBUPropertyInfo@2@XZ" PURGE="0" COMMENT="" />
    <EXPORT ORDINAL="2260" NAME="?OrderProp@ScrollBar@DirectUI@@SAPEBUPropertyInfo@2@XZ" PURGE="0" COMMENT="" />
    <EXPORT ORDINAL="2261" NAME="?Orientation@Schema@DirectUI@@2HA" PURGE="-1" COMMENT="" />
    <EXPORT ORDINAL="2262" NAME="?OverhangProp@Element@DirectUI@@SAPEBUPropertyInfo@2@XZ" PURGE="0" COMMENT="" />
    <EXPORT ORDINAL="2263" NAME="?OverrideButtonBackgroundProp@CCPushButton@DirectUI@@SAPEBUPropertyInfo@2@XZ" PURGE="0" COMMENT="" />
    <EXPORT ORDINAL="2264" NAME="?PaddingProp@Element@DirectUI@@SAPEBUPropertyInfo@2@XZ" PURGE="0" COMMENT="" />
    <EXPORT ORDINAL="2265" NAME="?PageDown@BaseScrollBar@DirectUI@@UEAAXI@Z" PURGE="-1" COMMENT="" />
    <EXPORT ORDINAL="2266" NAME="?PageProp@CCBaseScrollBar@DirectUI@@SAPEBUPropertyInfo@2@XZ" PURGE="0" COMMENT="" />
    <EXPORT ORDINAL="2267" NAME="?PageProp@ScrollBar@DirectUI@@SAPEBUPropertyInfo@2@XZ" PURGE="0" COMMENT="" />
    <EXPORT ORDINAL="2268" NAME="?PageUp@BaseScrollBar@DirectUI@@UEAAXI@Z" PURGE="-1" COMMENT="" />
    <EXPORT ORDINAL="2269" NAME="?Paint@AnimationStrip@DirectUI@@MEAAXPEAUHDC__@@PEBUtagRECT@@1PEAU4@2@Z" PURGE="0" COMMENT="" />
    <EXPORT ORDINAL="2270" NAME="?Paint@Element@DirectUI@@UEAAXPEAUHDC__@@PEBUtagRECT@@1PEAU4@2@Z" PURGE="0" COMMENT="" />
    <EXPORT ORDINAL="2271" NAME="?Paint@HWNDHost@DirectUI@@UEAAXPEAUHDC__@@PEBUtagRECT@@1PEAU4@2@Z" PURGE="0" COMMENT="" />
    <EXPORT ORDINAL="2272" NAME="?Paint@Movie@DirectUI@@UEAAXPEAUHDC__@@PEBUtagRECT@@1PEAU4@2@Z" PURGE="0" COMMENT="" />
    <EXPORT ORDINAL="2273" NAME="?Paint@Progress@DirectUI@@UEAAXPEAUHDC__@@PEBUtagRECT@@1PEAU4@2@Z" PURGE="0" COMMENT="" />
    <EXPORT ORDINAL="2274" NAME="?PaintBackground@Element@DirectUI@@QEAAXPEAUHDC__@@PEAVValue@2@AEBUtagRECT@@222@Z" PURGE="0" COMMENT="" />
    <EXPORT ORDINAL="2275" NAME="?PaintBorder@Element@DirectUI@@QEAAXPEAUHDC__@@PEAVValue@2@PEAUtagRECT@@AEBU5@@Z" PURGE="0" COMMENT="" />
    <EXPORT ORDINAL="2276" NAME="?PaintContent@Element@DirectUI@@QEAAXPEAUHDC__@@PEBUtagRECT@@@Z" PURGE="0" COMMENT="" />
    <EXPORT ORDINAL="2277" NAME="?PaintFocusRect@Element@DirectUI@@QEAAXPEAUHDC__@@PEBUtagRECT@@1@Z" PURGE="0" COMMENT="" />
    <EXPORT ORDINAL="2278" NAME="?PaintStringContent@Element@DirectUI@@QEAAXPEAUHDC__@@PEBUtagRECT@@PEAVValue@2@H@Z" PURGE="0" COMMENT="" />
    <EXPORT ORDINAL="2279" NAME="?PaneControlType@Schema@DirectUI@@2HA" PURGE="-1" COMMENT="" />
    <EXPORT ORDINAL="2280" NAME="?ParentProp@Element@DirectUI@@SAPEBUPropertyInfo@2@XZ" PURGE="0" COMMENT="" />
    <EXPORT ORDINAL="2281" NAME="?ParseARGBColor@DUIXmlParser@DirectUI@@IEAAJPEBUExprNode@ParserTools@2@PEAK@Z" PURGE="0" COMMENT="" />
    <EXPORT ORDINAL="2282" NAME="?ParseArgs@DUIXmlParser@DirectUI@@IEAAJPEBUExprNode@ParserTools@2@PEATParsedArg@12@IPEBD@Z" PURGE="0" COMMENT="" />
    <EXPORT ORDINAL="2283" NAME="?ParseAtomValue@DUIXmlParser@DirectUI@@IEAAJPEBUExprNode@ParserTools@2@PEAPEAVValue@2@@Z" PURGE="0" COMMENT="" />
    <EXPORT ORDINAL="2284" NAME="?ParseBoolValue@DUIXmlParser@DirectUI@@IEAAJPEBUExprNode@ParserTools@2@PEAPEAVValue@2@@Z" PURGE="0" COMMENT="" />
    <EXPORT ORDINAL="2285" NAME="?ParseColor@DUIXmlParser@DirectUI@@IEAAJPEBUExprNode@ParserTools@2@PEAK@Z" PURGE="0" COMMENT="" />
    <EXPORT ORDINAL="2286" NAME="?ParseDFCFill@DUIXmlParser@DirectUI@@IEAAJPEBUExprNode@ParserTools@2@PEAPEAVValue@2@@Z" PURGE="0" COMMENT="" />
    <EXPORT ORDINAL="2287" NAME="?ParseDTBFill@DUIXmlParser@DirectUI@@IEAAJPEBUExprNode@ParserTools@2@PEAPEAVValue@2@@Z" PURGE="0" COMMENT="" />
    <EXPORT ORDINAL="2288" NAME="?ParseFillValue@DUIXmlParser@DirectUI@@IEAAJPEBUExprNode@ParserTools@2@PEAPEAVValue@2@@Z" PURGE="0" COMMENT="" />
    <EXPORT ORDINAL="2289" NAME="?ParseFunction@DUIXmlParser@DirectUI@@IEAAJPEBGPEBUExprNode@ParserTools@2@PEATParsedArg@12@IPEBD@Z" PURGE="0" COMMENT="" />
    <EXPORT ORDINAL="2290" NAME="?ParseGTCColor@DUIXmlParser@DirectUI@@IEAAJPEBUExprNode@ParserTools@2@PEAK@Z" PURGE="0" COMMENT="" />
    <EXPORT ORDINAL="2291" NAME="?ParseGTFStr@DUIXmlParser@DirectUI@@IEAAJPEBUExprNode@ParserTools@2@PEAPEAVValue@2@@Z" PURGE="0" COMMENT="" />
    <EXPORT ORDINAL="2292" NAME="?ParseGTMarRect@DUIXmlParser@DirectUI@@IEAAJPEBUExprNode@ParserTools@2@PEAUtagRECT@@@Z" PURGE="0" COMMENT="" />
    <EXPORT ORDINAL="2293" NAME="?ParseGTMetInt@DUIXmlParser@DirectUI@@IEAAJPEBUExprNode@ParserTools@2@PEAH@Z" PURGE="0" COMMENT="" />
    <EXPORT ORDINAL="2294" NAME="?ParseGradientFill@DUIXmlParser@DirectUI@@IEAAJPEBUExprNode@ParserTools@2@PEAPEAVValue@2@@Z" PURGE="0" COMMENT="" />
    <EXPORT ORDINAL="2295" NAME="?ParseGraphicGraphic@DUIXmlParser@DirectUI@@IEAAJPEBUExprNode@ParserTools@2@PEAPEAVValue@2@@Z" PURGE="0" COMMENT="" />
    <EXPORT ORDINAL="2296" NAME="?ParseGraphicHelper@DUIXmlParser@DirectUI@@IEAAJ_NPEBUExprNode@ParserTools@2@PEAPEAVValue@2@@Z" PURGE="0" COMMENT="" />
    <EXPORT ORDINAL="2297" NAME="?ParseGraphicValue@DUIXmlParser@DirectUI@@IEAAJPEBUExprNode@ParserTools@2@PEAPEAVValue@2@@Z" PURGE="0" COMMENT="" />
    <EXPORT ORDINAL="2298" NAME="?ParseIconGraphic@DUIXmlParser@DirectUI@@IEAAJPEBUExprNode@ParserTools@2@PEAPEAVValue@2@@Z" PURGE="0" COMMENT="" />
    <EXPORT ORDINAL="2299" NAME="?ParseImageGraphic@DUIXmlParser@DirectUI@@IEAAJPEBUExprNode@ParserTools@2@PEAPEAVValue@2@@Z" PURGE="0" COMMENT="" />
    <EXPORT ORDINAL="2300" NAME="?ParseIntValue@DUIXmlParser@DirectUI@@IEAAJPEBUExprNode@ParserTools@2@PEAPEAVValue@2@@Z" PURGE="0" COMMENT="" />
    <EXPORT ORDINAL="2301" NAME="?ParseLayoutValue@DUIXmlParser@DirectUI@@IEAAJPEBUExprNode@ParserTools@2@@Z" PURGE="0" COMMENT="" />
    <EXPORT ORDINAL="2302" NAME="?ParseLibrary@DUIXmlParser@DirectUI@@IEAAJPEBUExprNode@ParserTools@2@PEAPEAUHINSTANCE__@@@Z" PURGE="0" COMMENT="" />
    <EXPORT ORDINAL="2303" NAME="?ParseLiteral@DUIXmlParser@DirectUI@@IEAAJPEBUExprNode@ParserTools@2@PEAPEBG@Z" PURGE="0" COMMENT="" />
    <EXPORT ORDINAL="2304" NAME="?ParseLiteralColor@DUIXmlParser@DirectUI@@IEAAJPEBGPEAK@Z" PURGE="0" COMMENT="" />
    <EXPORT ORDINAL="2305" NAME="?ParseLiteralColorInt@DUIXmlParser@DirectUI@@IEAAJPEBGPEAH@Z" PURGE="0" COMMENT="" />
    <EXPORT ORDINAL="2306" NAME="?ParseLiteralNumber@DUIXmlParser@DirectUI@@IEAAJPEBGPEAH@Z" PURGE="0" COMMENT="" />
    <EXPORT ORDINAL="2307" NAME="?ParseMagnitude@DUIXmlParser@DirectUI@@IEAAJPEBGPEAH@Z" PURGE="0" COMMENT="" />
    <EXPORT ORDINAL="2308" NAME="?ParseNumber@DUIXmlParser@DirectUI@@IEAAJPEBUExprNode@ParserTools@2@PEAH@Z" PURGE="0" COMMENT="" />
    <EXPORT ORDINAL="2309" NAME="?ParsePointValue@DUIXmlParser@DirectUI@@IEAAJPEBUExprNode@ParserTools@2@PEAPEAVValue@2@@Z" PURGE="0" COMMENT="" />
    <EXPORT ORDINAL="2310" NAME="?ParseQuotedString@DUIXmlParser@DirectUI@@IEAAJPEBUExprNode@ParserTools@2@PEAPEBG@Z" PURGE="0" COMMENT="" />
    <EXPORT ORDINAL="2311" NAME="?ParseRGBColor@DUIXmlParser@DirectUI@@IEAAJPEBUExprNode@ParserTools@2@PEAK@Z" PURGE="0" COMMENT="" />
    <EXPORT ORDINAL="2312" NAME="?ParseRect@DUIXmlParser@DirectUI@@IEAAJPEBUExprNode@ParserTools@2@PEAUtagRECT@@@Z" PURGE="0" COMMENT="" />
    <EXPORT ORDINAL="2313" NAME="?ParseRectRect@DUIXmlParser@DirectUI@@IEAAJPEBUExprNode@ParserTools@2@PEAUtagRECT@@@Z" PURGE="0" COMMENT="" />
    <EXPORT ORDINAL="2314" NAME="?ParseRectValue@DUIXmlParser@DirectUI@@IEAAJPEBUExprNode@ParserTools@2@PEAPEAVValue@2@@Z" PURGE="0" COMMENT="" />
    <EXPORT ORDINAL="2315" NAME="?ParseResStr@DUIXmlParser@DirectUI@@IEAAJPEBUExprNode@ParserTools@2@PEAPEAVValue@2@@Z" PURGE="0" COMMENT="" />
    <EXPORT ORDINAL="2316" NAME="?ParseResid@DUIXmlParser@DirectUI@@IEAAJPEBUExprNode@ParserTools@2@PEAPEBG@Z" PURGE="0" COMMENT="" />
    <EXPORT ORDINAL="2317" NAME="?ParseSGraphicGraphic@DUIXmlParser@DirectUI@@IEAAJPEBUExprNode@ParserTools@2@PEAPEAVValue@2@@Z" PURGE="0" COMMENT="" />
    <EXPORT ORDINAL="2318" NAME="?ParseSGraphicHelper@DUIXmlParser@DirectUI@@IEAAJ_NPEBUExprNode@ParserTools@2@PEAPEAVValue@2@@Z" PURGE="0" COMMENT="" />
    <EXPORT ORDINAL="2319" NAME="?ParseSizeValue@DUIXmlParser@DirectUI@@IEAAJPEBUExprNode@ParserTools@2@PEAPEAVValue@2@@Z" PURGE="0" COMMENT="" />
    <EXPORT ORDINAL="2320" NAME="?ParseStringValue@DUIXmlParser@DirectUI@@IEAAJPEBUExprNode@ParserTools@2@PEAPEAVValue@2@@Z" PURGE="0" COMMENT="" />
    <EXPORT ORDINAL="2321" NAME="?ParseStyleSheets@DUIXmlParser@DirectUI@@IEAAJPEAUIXmlReader@@@Z" PURGE="0" COMMENT="" />
    <EXPORT ORDINAL="2322" NAME="?ParseSysMetricInt@DUIXmlParser@DirectUI@@IEAAJPEBUExprNode@ParserTools@2@PEAH@Z" PURGE="0" COMMENT="" />
    <EXPORT ORDINAL="2323" NAME="?ParseSysMetricStr@DUIXmlParser@DirectUI@@IEAAJPEBUExprNode@ParserTools@2@PEAPEAVValue@2@@Z" PURGE="0" COMMENT="" />
    <EXPORT ORDINAL="2324" NAME="?ParseTheme@DUIXmlParser@DirectUI@@IEAAJPEBUExprNode@ParserTools@2@PEAPEAX@Z" PURGE="0" COMMENT="" />
    <EXPORT ORDINAL="2325" NAME="?PasswordCharacterProp@Edit@DirectUI@@SAPEBUPropertyInfo@2@XZ" PURGE="0" COMMENT="" />
    <EXPORT ORDINAL="2326" NAME="?PathProp@Movie@DirectUI@@SAPEBUPropertyInfo@2@XZ" PURGE="0" COMMENT="" />
    <EXPORT ORDINAL="2327" NAME="?PatternFromPatternId@Schema@DirectUI@@SA?AW4Pattern@12@H@Z" PURGE="0" COMMENT="" />
    <EXPORT ORDINAL="2328" NAME="?Pause@Movie@DirectUI@@QEAAXXZ" PURGE="0" COMMENT="" />
    <EXPORT ORDINAL="2329" NAME="?PfnIsSupportedFromPattern@Schema@DirectUI@@SAP6A_NPEAVElement@2@@ZW4Pattern@12@@Z" PURGE="0" COMMENT="" />
    <EXPORT ORDINAL="2330" NAME="?PinningProp@BaseScrollViewer@DirectUI@@SAPEBUPropertyInfo@2@XZ" PURGE="0" COMMENT="" />
    <EXPORT ORDINAL="2331" NAME="?PixelOffsetModeProp@Movie@DirectUI@@SAPEBUPropertyInfo@2@XZ" PURGE="0" COMMENT="" />
    <EXPORT ORDINAL="2332" NAME="?Play@CCAVI@DirectUI@@QEAAXPEAUHWND__@@@Z" PURGE="-1" COMMENT="" />
    <EXPORT ORDINAL="2333" NAME="?Play@Movie@DirectUI@@QEAAXXZ" PURGE="0" COMMENT="" />
    <EXPORT ORDINAL="2334" NAME="?PlayAllFramesModeProp@Movie@DirectUI@@SAPEBUPropertyInfo@2@XZ" PURGE="0" COMMENT="" />
    <EXPORT ORDINAL="2335" NAME="?PlayProp@AnimationStrip@DirectUI@@SAPEBUPropertyInfo@2@XZ" PURGE="0" COMMENT="" />
    <EXPORT ORDINAL="2336" NAME="?PosInLayoutProp@Element@DirectUI@@SAPEBUPropertyInfo@2@XZ" PURGE="0" COMMENT="" />
    <EXPORT ORDINAL="2337" NAME="?PositionProp@CCBaseScrollBar@DirectUI@@SAPEBUPropertyInfo@2@XZ" PURGE="0" COMMENT="" />
    <EXPORT ORDINAL="2338" NAME="?PositionProp@Progress@DirectUI@@SAPEBUPropertyInfo@2@XZ" PURGE="0" COMMENT="" />
    <EXPORT ORDINAL="2339" NAME="?PositionProp@ScrollBar@DirectUI@@SAPEBUPropertyInfo@2@XZ" PURGE="0" COMMENT="" />
    <EXPORT ORDINAL="2340" NAME="?PostCreate@CCAVI@DirectUI@@MEAAXPEAUHWND__@@@Z" PURGE="-1" COMMENT="" />
    <EXPORT ORDINAL="2341" NAME="?StaticXmlParserError@TaskPage@DirectUI@@CAXPEBG0HPEAX@Z" PURGE="0" COMMENT="" />
    <EXPORT ORDINAL="2342" NAME="?PostCreate@CCBaseCheckRadioButton@DirectUI@@MEAAXPEAUHWND__@@@Z" PURGE="-1" COMMENT="" />
    <EXPORT ORDINAL="2343" NAME="?PostCreate@CCCommandLink@DirectUI@@MEAAXPEAUHWND__@@@Z" PURGE="0" COMMENT="" />
    <EXPORT ORDINAL="2344" NAME="?PostCreate@CCTrackBar@DirectUI@@MEAAXPEAUHWND__@@@Z" PURGE="-1" COMMENT="" />
    <EXPORT ORDINAL="2345" NAME="?PostEvent@Element@DirectUI@@QEAAXPEAUEvent@2@@Z" PURGE="0" COMMENT="" />
    <EXPORT ORDINAL="2346" NAME="?PressedProp@Button@DirectUI@@SAPEBUPropertyInfo@2@XZ" PURGE="0" COMMENT="" />
    <EXPORT ORDINAL="2347" NAME="?PrintRTLControl@HWNDHost@DirectUI@@IEAAXPEAUHDC__@@0AEBUtagRECT@@@Z" PURGE="0" COMMENT="" />
    <EXPORT ORDINAL="2348" NAME="?ProcessIdProperty@Schema@DirectUI@@2HA" PURGE="-1" COMMENT="" />
    <EXPORT ORDINAL="2349" NAME="?ProgressBarControlType@Schema@DirectUI@@2HA" PURGE="-1" COMMENT="" />
    <EXPORT ORDINAL="2350" NAME="?PropSheet_SendMessage@TaskPage@DirectUI@@IEAA_JI_K_J@Z" PURGE="0" COMMENT="" />
    <EXPORT ORDINAL="2351" NAME="?PropertyChangedCore@Edit@DirectUI@@AEAAXPEBUPropertyInfo@2@HPEAVValue@2@PEAUHWND__@@@Z" PURGE="0" COMMENT="" />
    <EXPORT ORDINAL="2352" NAME="?PropertyChangingListener@EventManager@DirectUI@@SAJPEAVElement@2@PEBUPropertyInfo@2@PEA_N@Z" PURGE="0" COMMENT="" />
    <EXPORT ORDINAL="2353" NAME="?PropertyListener@EventManager@DirectUI@@SAJPEAVElement@2@PEBUPropertyInfo@2@HPEAVValue@2@2@Z" PURGE="0" COMMENT="" />
    <EXPORT ORDINAL="2354" NAME="?PropertyProp@Bind@DirectUI@@SAPEBUPropertyInfo@2@XZ" PURGE="0" COMMENT="" />
    <EXPORT ORDINAL="2355" NAME="?ProportionalProp@ScrollBar@DirectUI@@SAPEBUPropertyInfo@2@XZ" PURGE="0" COMMENT="" />
    <EXPORT ORDINAL="2356" NAME="?QueryInterface@DuiAccessible@DirectUI@@UEAAJAEBU_GUID@@PEAPEAX@Z" PURGE="0" COMMENT="" />
    <EXPORT ORDINAL="2357" NAME="?Reset@DuiAccessible@DirectUI@@UEAAJXZ" PURGE="0" COMMENT="" />
    <EXPORT ORDINAL="2358" NAME="?QueryInterface@ElementProvider@DirectUI@@UEAAJAEBU_GUID@@PEAPEAX@Z" PURGE="0" COMMENT="" />
    <EXPORT ORDINAL="2359" NAME="?QueryInterface@ExpandCollapseProvider@DirectUI@@UEAAJAEBU_GUID@@PEAPEAX@Z" PURGE="0" COMMENT="" />
    <EXPORT ORDINAL="2360" NAME="?QueryInterface@GridItemProvider@DirectUI@@UEAAJAEBU_GUID@@PEAPEAX@Z" PURGE="0" COMMENT="" />
    <EXPORT ORDINAL="2361" NAME="?QueryInterface@GridProvider@DirectUI@@UEAAJAEBU_GUID@@PEAPEAX@Z" PURGE="0" COMMENT="" />
    <EXPORT ORDINAL="2362" NAME="?QueryInterface@HWNDElementProvider@DirectUI@@UEAAJAEBU_GUID@@PEAPEAX@Z" PURGE="0" COMMENT="" />
    <EXPORT ORDINAL="2363" NAME="?QueryInterface@HWNDHostAccessible@DirectUI@@UEAAJAEBU_GUID@@PEAPEAX@Z" PURGE="0" COMMENT="" />
    <EXPORT ORDINAL="2364" NAME="?QueryInterface@InvokeProvider@DirectUI@@UEAAJAEBU_GUID@@PEAPEAX@Z" PURGE="0" COMMENT="" />
    <EXPORT ORDINAL="2365" NAME="?QueryInterface@RangeValueProvider@DirectUI@@UEAAJAEBU_GUID@@PEAPEAX@Z" PURGE="0" COMMENT="" />
    <EXPORT ORDINAL="2366" NAME="?QueryInterface@ScrollItemProvider@DirectUI@@UEAAJAEBU_GUID@@PEAPEAX@Z" PURGE="0" COMMENT="" />
    <EXPORT ORDINAL="2367" NAME="?QueryInterface@ScrollProvider@DirectUI@@UEAAJAEBU_GUID@@PEAPEAX@Z" PURGE="0" COMMENT="" />
    <EXPORT ORDINAL="2368" NAME="?QueryInterface@SelectionItemProvider@DirectUI@@UEAAJAEBU_GUID@@PEAPEAX@Z" PURGE="0" COMMENT="" />
    <EXPORT ORDINAL="2369" NAME="?QueryInterface@SelectionProvider@DirectUI@@UEAAJAEBU_GUID@@PEAPEAX@Z" PURGE="0" COMMENT="" />
    <EXPORT ORDINAL="2370" NAME="?QueryInterface@TableItemProvider@DirectUI@@UEAAJAEBU_GUID@@PEAPEAX@Z" PURGE="0" COMMENT="" />
    <EXPORT ORDINAL="2371" NAME="?QueryInterface@TableProvider@DirectUI@@UEAAJAEBU_GUID@@PEAPEAX@Z" PURGE="0" COMMENT="" />
    <EXPORT ORDINAL="2372" NAME="?QueryInterface@ToggleProvider@DirectUI@@UEAAJAEBU_GUID@@PEAPEAX@Z" PURGE="0" COMMENT="" />
    <EXPORT ORDINAL="2373" NAME="?QueryInterface@ValueProvider@DirectUI@@UEAAJAEBU_GUID@@PEAPEAX@Z" PURGE="0" COMMENT="" />
    <EXPORT ORDINAL="2374" NAME="?QueryInterface@XProvider@DirectUI@@UEAAJAEBU_GUID@@PEAPEAX@Z" PURGE="0" COMMENT="" />
    <EXPORT ORDINAL="2375" NAME="?QueryService@DuiAccessible@DirectUI@@UEAAJAEBU_GUID@@0PEAPEAX@Z" PURGE="0" COMMENT="" />
    <EXPORT ORDINAL="2376" NAME="?QueryService@HWNDHostAccessible@DirectUI@@UEAAJAEBU_GUID@@0PEAPEAX@Z" PURGE="0" COMMENT="" />
    <EXPORT ORDINAL="2377" NAME="?QuerySysMetric@DUIXmlParser@DirectUI@@KAHH@Z" PURGE="0" COMMENT="" />
    <EXPORT ORDINAL="2378" NAME="?QuerySysMetricStr@DUIXmlParser@DirectUI@@KAPEBGHPEAGI@Z" PURGE="0" COMMENT="" />
    <EXPORT ORDINAL="2379" NAME="?QueueDefaultAction@Element@DirectUI@@QEAAJXZ" PURGE="0" COMMENT="" />
    <EXPORT ORDINAL="2380" NAME="?RadioButtonControlType@Schema@DirectUI@@2HA" PURGE="-1" COMMENT="" />
    <EXPORT ORDINAL="2381" NAME="?RaiseChildRemovedEvent@EventManager@DirectUI@@CAJAEBUElementRuntimeId@2@PEAVElement@2@@Z" PURGE="0" COMMENT="" />
    <EXPORT ORDINAL="2382" NAME="?RaiseGeometryEventWorker@EventManager@DirectUI@@CAJPEAURectangleChange@2@_N111@Z" PURGE="0" COMMENT="" />
    <EXPORT ORDINAL="2383" NAME="?RaiseGeometryEvents@EventManager@DirectUI@@CAJXZ" PURGE="0" COMMENT="" />
    <EXPORT ORDINAL="2384" NAME="?RaiseStructureChangedEvent@EventManager@DirectUI@@CAJPEAVElement@2@W4StructureChangeType@@@Z" PURGE="0" COMMENT="" />
    <EXPORT ORDINAL="2385" NAME="?RaiseStructureEvents@EventManager@DirectUI@@CAJXZ" PURGE="0" COMMENT="" />
    <EXPORT ORDINAL="2386" NAME="?RaiseVisibilityEvents@EventManager@DirectUI@@CAJXZ" PURGE="0" COMMENT="" />
    <EXPORT ORDINAL="2387" NAME="?RangeMaxProp@CCTrackBar@DirectUI@@SAPEBUPropertyInfo@2@XZ" PURGE="0" COMMENT="" />
    <EXPORT ORDINAL="2388" NAME="?RangeMinProp@CCTrackBar@DirectUI@@SAPEBUPropertyInfo@2@XZ" PURGE="0" COMMENT="" />
    <EXPORT ORDINAL="2389" NAME="?RangeValuePattern@Schema@DirectUI@@2HA" PURGE="-1" COMMENT="" />
    <EXPORT ORDINAL="2390" NAME="?RangeValue_IsReadOnly_Property@Schema@DirectUI@@2HA" PURGE="-1" COMMENT="" />
    <EXPORT ORDINAL="2391" NAME="?RangeValue_LargeChange_Property@Schema@DirectUI@@2HA" PURGE="-1" COMMENT="" />
    <EXPORT ORDINAL="2392" NAME="?RangeValue_Maximum_Property@Schema@DirectUI@@2HA" PURGE="-1" COMMENT="" />
    <EXPORT ORDINAL="2393" NAME="?RangeValue_Minimum_Property@Schema@DirectUI@@2HA" PURGE="-1" COMMENT="" />
    <EXPORT ORDINAL="2394" NAME="?RangeValue_SmallChange_Property@Schema@DirectUI@@2HA" PURGE="-1" COMMENT="" />
    <EXPORT ORDINAL="2395" NAME="?RangeValue_Value_Property@Schema@DirectUI@@2HA" PURGE="-1" COMMENT="" />
    <EXPORT ORDINAL="2396" NAME="?RawActionProc@AnimationStrip@DirectUI@@KAXPEAUGMA_ACTIONINFO@@@Z" PURGE="0" COMMENT="" />
    <EXPORT ORDINAL="2397" NAME="?RawActionProc@Movie@DirectUI@@SAXPEAUGMA_ACTIONINFO@@@Z" PURGE="0" COMMENT="" />
    <EXPORT ORDINAL="2398" NAME="?Recalc@AccessibleButton@DirectUI@@QEAAXXZ" PURGE="0" COMMENT="" />
    <EXPORT ORDINAL="2399" NAME="?ReferencePointProp@RefPointElement@DirectUI@@SAPEBUPropertyInfo@2@XZ" PURGE="0" COMMENT="" />
    <EXPORT ORDINAL="2400" NAME="?Register@AccessibleButton@DirectUI@@SAJXZ" PURGE="0" COMMENT="" />
    <EXPORT ORDINAL="2401" NAME="?Register@AnimationStrip@DirectUI@@SAJXZ" PURGE="0" COMMENT="" />
    <EXPORT ORDINAL="2402" NAME="?Register@AutoButton@DirectUI@@SAJXZ" PURGE="0" COMMENT="" />
    <EXPORT ORDINAL="2403" NAME="?Register@BaseScrollViewer@DirectUI@@SAJXZ" PURGE="0" COMMENT="" />
    <EXPORT ORDINAL="2404" NAME="?Register@Bind@DirectUI@@SAJXZ" PURGE="0" COMMENT="" />
    <EXPORT ORDINAL="2405" NAME="?Register@Browser@DirectUI@@SAJXZ" PURGE="0" COMMENT="" />
    <EXPORT ORDINAL="2406" NAME="?Register@Button@DirectUI@@SAJXZ" PURGE="0" COMMENT="" />
    <EXPORT ORDINAL="2407" NAME="?Register@CCAVI@DirectUI@@SAJXZ" PURGE="0" COMMENT="" />
    <EXPORT ORDINAL="2408" NAME="?Register@CCBase@DirectUI@@SAJXZ" PURGE="0" COMMENT="" />
    <EXPORT ORDINAL="2409" NAME="?Register@CCBaseCheckRadioButton@DirectUI@@SAJXZ" PURGE="0" COMMENT="" />
    <EXPORT ORDINAL="2410" NAME="?Register@CCBaseScrollBar@DirectUI@@SAJXZ" PURGE="0" COMMENT="" />
    <EXPORT ORDINAL="2411" NAME="?Register@CCCheckBox@DirectUI@@SAJXZ" PURGE="0" COMMENT="" />
    <EXPORT ORDINAL="2412" NAME="?Register@CCCommandLink@DirectUI@@SAJXZ" PURGE="0" COMMENT="" />
    <EXPORT ORDINAL="2413" NAME="?Register@CCHScrollBar@DirectUI@@SAJXZ" PURGE="0" COMMENT="" />
    <EXPORT ORDINAL="2414" NAME="?Register@CCListBox@DirectUI@@SAJXZ" PURGE="0" COMMENT="" />
    <EXPORT ORDINAL="2415" NAME="?Register@CCListView@DirectUI@@SAJXZ" PURGE="0" COMMENT="" />
    <EXPORT ORDINAL="2416" NAME="?Register@CCProgressBar@DirectUI@@SAJXZ" PURGE="0" COMMENT="" />
    <EXPORT ORDINAL="2417" NAME="?Register@CCPushButton@DirectUI@@SAJXZ" PURGE="0" COMMENT="" />
    <EXPORT ORDINAL="2418" NAME="?Register@CCRadioButton@DirectUI@@SAJXZ" PURGE="0" COMMENT="" />
    <EXPORT ORDINAL="2419" NAME="?Register@CCSysLink@DirectUI@@SAJXZ" PURGE="0" COMMENT="" />
    <EXPORT ORDINAL="2420" NAME="?Register@CCTrackBar@DirectUI@@SAJXZ" PURGE="0" COMMENT="" />
    <EXPORT ORDINAL="2421" NAME="?Register@CCTreeView@DirectUI@@SAJXZ" PURGE="0" COMMENT="" />
    <EXPORT ORDINAL="2422" NAME="?Register@CCVScrollBar@DirectUI@@SAJXZ" PURGE="0" COMMENT="" />
    <EXPORT ORDINAL="2423" NAME="?Register@CheckBoxGlyph@DirectUI@@SAJXZ" PURGE="0" COMMENT="" />
    <EXPORT ORDINAL="2424" NAME="?Register@ClassInfoBase@DirectUI@@QEAAJXZ" PURGE="0" COMMENT="" />
    <EXPORT ORDINAL="2425" NAME="?Register@Clipper@DirectUI@@SAJXZ" PURGE="0" COMMENT="" />
    <EXPORT ORDINAL="2426" NAME="?Register@Combobox@DirectUI@@SAJXZ" PURGE="0" COMMENT="" />
    <EXPORT ORDINAL="2427" NAME="?Register@DialogElement@DirectUI@@SAJXZ" PURGE="0" COMMENT="" />
    <EXPORT ORDINAL="2428" NAME="?Register@Edit@DirectUI@@SAJXZ" PURGE="0" COMMENT="" />
    <EXPORT ORDINAL="2429" NAME="?Register@Element@DirectUI@@SAJXZ" PURGE="0" COMMENT="" />
    <EXPORT ORDINAL="2430" NAME="?Register@ElementWithHWND@DirectUI@@SAJXZ" PURGE="0" COMMENT="" />
    <EXPORT ORDINAL="2431" NAME="?Register@Expandable@DirectUI@@SAJXZ" PURGE="0" COMMENT="" />
    <EXPORT ORDINAL="2432" NAME="?Register@Expando@DirectUI@@SAJXZ" PURGE="0" COMMENT="" />
    <EXPORT ORDINAL="2433" NAME="?Register@ExpandoButtonGlyph@DirectUI@@SAJXZ" PURGE="0" COMMENT="" />
    <EXPORT ORDINAL="2434" NAME="?Register@HWNDElement@DirectUI@@SAJXZ" PURGE="0" COMMENT="" />
    <EXPORT ORDINAL="2435" NAME="?Register@HWNDHost@DirectUI@@SAJXZ" PURGE="0" COMMENT="" />
    <EXPORT ORDINAL="2436" NAME="?Register@Macro@DirectUI@@SAJXZ" PURGE="0" COMMENT="" />
    <EXPORT ORDINAL="2437" NAME="?Register@Movie@DirectUI@@SAJXZ" PURGE="0" COMMENT="" />
    <EXPORT ORDINAL="2438" NAME="?Register@Navigator@DirectUI@@SAJXZ" PURGE="0" COMMENT="" />
    <EXPORT ORDINAL="2439" NAME="?Register@PText@DirectUI@@SAJXZ" PURGE="0" COMMENT="" />
    <EXPORT ORDINAL="2440" NAME="?Register@Page@DirectUI@@SAJXZ" PURGE="0" COMMENT="" />
    <EXPORT ORDINAL="2441" NAME="?Register@Pages@DirectUI@@SAJXZ" PURGE="0" COMMENT="" />
    <EXPORT ORDINAL="2442" NAME="?Register@Progress@DirectUI@@SAJXZ" PURGE="0" COMMENT="" />
    <EXPORT ORDINAL="2443" NAME="?Register@PushButton@DirectUI@@SAJXZ" PURGE="0" COMMENT="" />
    <EXPORT ORDINAL="2444" NAME="?Register@RadioButtonGlyph@DirectUI@@SAJXZ" PURGE="0" COMMENT="" />
    <EXPORT ORDINAL="2445" NAME="?Register@RefPointElement@DirectUI@@SAJXZ" PURGE="0" COMMENT="" />
    <EXPORT ORDINAL="2446" NAME="?Register@RepeatButton@DirectUI@@SAJXZ" PURGE="0" COMMENT="" />
    <EXPORT ORDINAL="2447" NAME="?Register@Repeater@DirectUI@@SAJXZ" PURGE="0" COMMENT="" />
    <EXPORT ORDINAL="2448" NAME="?Register@ScrollBar@DirectUI@@SAJXZ" PURGE="0" COMMENT="" />
    <EXPORT ORDINAL="2449" NAME="?Register@ScrollViewer@DirectUI@@SAJXZ" PURGE="0" COMMENT="" />
    <EXPORT ORDINAL="2450" NAME="?Register@Selector@DirectUI@@SAJXZ" PURGE="0" COMMENT="" />
    <EXPORT ORDINAL="2451" NAME="?Register@SelectorNoDefault@DirectUI@@SAJXZ" PURGE="0" COMMENT="" />
    <EXPORT ORDINAL="2452" NAME="?Register@StyledScrollViewer@DirectUI@@SAJXZ" PURGE="0" COMMENT="" />
    <EXPORT ORDINAL="2453" NAME="?Register@TextGraphic@DirectUI@@SAJXZ" PURGE="0" COMMENT="" />
    <EXPORT ORDINAL="2454" NAME="?Register@Thumb@DirectUI@@SAJXZ" PURGE="0" COMMENT="" />
    <EXPORT ORDINAL="2455" NAME="?Register@UnknownElement@DirectUI@@SAJXZ" PURGE="0" COMMENT="" />
    <EXPORT ORDINAL="2456" NAME="?Register@Viewer@DirectUI@@SAJXZ" PURGE="0" COMMENT="" />
    <EXPORT ORDINAL="2457" NAME="?Register@XBaby@DirectUI@@SAJXZ" PURGE="0" COMMENT="" />
    <EXPORT ORDINAL="2458" NAME="?Register@XElement@DirectUI@@SAJXZ" PURGE="0" COMMENT="" />
    <EXPORT ORDINAL="2459" NAME="?RegisteredDefaultButtonProp@DialogElement@DirectUI@@SAPEBUPropertyInfo@2@XZ" PURGE="0" COMMENT="" />
    <EXPORT ORDINAL="2460" NAME="?Release@ClassInfoBase@DirectUI@@UEAAHXZ" PURGE="0" COMMENT="" />
    <EXPORT ORDINAL="2461" NAME="?Release@DuiAccessible@DirectUI@@UEAAKXZ" PURGE="0" COMMENT="" />
    <EXPORT ORDINAL="2462" NAME="?get_accSelection@DuiAccessible@DirectUI@@UEAAJPEAUtagVARIANT@@@Z" PURGE="0" COMMENT="" />
    <EXPORT ORDINAL="2463" NAME="?Release@ElementProvider@DirectUI@@UEAAKXZ" PURGE="0" COMMENT="" />
    <EXPORT ORDINAL="2464" NAME="?Release@GridItemProvider@DirectUI@@UEAAKXZ" PURGE="0" COMMENT="" />
    <EXPORT ORDINAL="2465" NAME="?Release@GridProvider@DirectUI@@UEAAKXZ" PURGE="0" COMMENT="" />
    <EXPORT ORDINAL="2466" NAME="?Release@InvokeProvider@DirectUI@@UEAAKXZ" PURGE="0" COMMENT="" />
    <EXPORT ORDINAL="2467" NAME="?Release@HWNDElementProvider@DirectUI@@UEAAKXZ" PURGE="0" COMMENT="" />
    <EXPORT ORDINAL="2468" NAME="?Release@RangeValueProvider@DirectUI@@UEAAKXZ" PURGE="0" COMMENT="" />
    <EXPORT ORDINAL="2469" NAME="?Release@ScrollItemProvider@DirectUI@@UEAAKXZ" PURGE="0" COMMENT="" />
    <EXPORT ORDINAL="2470" NAME="?Release@RefcountBase@DirectUI@@QEAAJXZ" PURGE="0" COMMENT="" />
    <EXPORT ORDINAL="2471" NAME="?Release@ScrollProvider@DirectUI@@UEAAKXZ" PURGE="0" COMMENT="" />
    <EXPORT ORDINAL="2472" NAME="?Release@SelectionItemProvider@DirectUI@@UEAAKXZ" PURGE="0" COMMENT="" />
    <EXPORT ORDINAL="2473" NAME="?Release@SelectionProvider@DirectUI@@UEAAKXZ" PURGE="0" COMMENT="" />
    <EXPORT ORDINAL="2474" NAME="?Release@TableItemProvider@DirectUI@@UEAAKXZ" PURGE="0" COMMENT="" />
    <EXPORT ORDINAL="2475" NAME="?Release@TableProvider@DirectUI@@UEAAKXZ" PURGE="0" COMMENT="" />
    <EXPORT ORDINAL="2476" NAME="?Release@ToggleProvider@DirectUI@@UEAAKXZ" PURGE="0" COMMENT="" />
    <EXPORT ORDINAL="2477" NAME="?Release@ValueProvider@DirectUI@@UEAAKXZ" PURGE="0" COMMENT="" />
    <EXPORT ORDINAL="2478" NAME="?Release@Value@DirectUI@@QEAAXXZ" PURGE="0" COMMENT="" />
    <EXPORT ORDINAL="2479" NAME="?Release@ExpandCollapseProvider@DirectUI@@UEAAKXZ" PURGE="0" COMMENT="" />
    <EXPORT ORDINAL="2480" NAME="?Release@XProvider@DirectUI@@UEAAKXZ" PURGE="0" COMMENT="" />
    <EXPORT ORDINAL="2481" NAME="?Remove@Element@DirectUI@@QEAAJPEAV12@@Z" PURGE="0" COMMENT="" />
    <EXPORT ORDINAL="2482" NAME="?Remove@Element@DirectUI@@UEAAJPEAPEAV12@I@Z" PURGE="0" COMMENT="" />
    <EXPORT ORDINAL="2483" NAME="?Remove@ElementProviderManager@DirectUI@@SAXPEAVElementProvider@2@@Z" PURGE="-1" COMMENT="" />
    <EXPORT ORDINAL="2484" NAME="?Remove@LinkedList@DirectUI@@QEAAXPEAVLinkedListNode@2@@Z" PURGE="0" COMMENT="" />
    <EXPORT ORDINAL="2485" NAME="?RemoveAll@Element@DirectUI@@QEAAJXZ" PURGE="0" COMMENT="" />
    <EXPORT ORDINAL="2486" NAME="?RemoveChild@ClassInfoBase@DirectUI@@UEAAXXZ" PURGE="0" COMMENT="" />
    <EXPORT ORDINAL="2487" NAME="?RemoveFromSelection@SelectionItemProvider@DirectUI@@UEAAJXZ" PURGE="0" COMMENT="" />
    <EXPORT ORDINAL="2488" NAME="?RemoveListener@Element@DirectUI@@QEAAXPEAUIElementListener@2@@Z" PURGE="0" COMMENT="" />
    <EXPORT ORDINAL="2489" NAME="?RemoveLocalValue@Element@DirectUI@@QEAAJP6APEBUPropertyInfo@2@XZ@Z" PURGE="0" COMMENT="" />
    <EXPORT ORDINAL="2490" NAME="?RemoveLocalValue@Element@DirectUI@@QEAAJPEBUPropertyInfo@2@@Z" PURGE="0" COMMENT="" />
    <EXPORT ORDINAL="2491" NAME="?RemoveShortcutFromName@Element@DirectUI@@AEAAPEAGPEBG@Z" PURGE="0" COMMENT="" />
    <EXPORT ORDINAL="2492" NAME="?RemoveTail@LinkedList@DirectUI@@QEAAPEAVLinkedListNode@2@XZ" PURGE="0" COMMENT="" />
    <EXPORT ORDINAL="2493" NAME="?RemoveTooltip@Element@DirectUI@@MEAAXPEAV12@@Z" PURGE="0" COMMENT="" />
    <EXPORT ORDINAL="2494" NAME="?RemoveTooltip@HWNDElement@DirectUI@@UEAAXPEAVElement@2@@Z" PURGE="0" COMMENT="" />
    <EXPORT ORDINAL="2495" NAME="?RepeatProp@Movie@DirectUI@@SAPEBUPropertyInfo@2@XZ" PURGE="0" COMMENT="" />
    <EXPORT ORDINAL="2496" NAME="?SetParameter@XProvider@DirectUI@@UEAAJAEBU_GUID@@PEAX@Z" PURGE="0" COMMENT="" />
    <EXPORT ORDINAL="2497" NAME="?Reset@HWNDHostAccessible@DirectUI@@UEAAJXZ" PURGE="0" COMMENT="" />
    <EXPORT ORDINAL="2498" NAME="?ResolveBindings@Macro@DirectUI@@IEAAXXZ" PURGE="0" COMMENT="" />
    <EXPORT ORDINAL="2499" NAME="?RestoreFocus@NativeHWNDHost@DirectUI@@QEAAHXZ" PURGE="0" COMMENT="" />
    <EXPORT ORDINAL="2500" NAME="?Resume@Movie@DirectUI@@QEAAXXZ" PURGE="0" COMMENT="" />
    <EXPORT ORDINAL="2501" NAME="?ReturnValueParser@DUIXmlParser@DirectUI@@IEAAXPEAVValueParser@ParserTools@2@@Z" PURGE="0" COMMENT="" />
    <EXPORT ORDINAL="2502" NAME="?Rewind@Movie@DirectUI@@QEAAXXZ" PURGE="0" COMMENT="" />
    <EXPORT ORDINAL="2503" NAME="?RuntimeIdProperty@Schema@DirectUI@@2HA" PURGE="-1" COMMENT="" />
    <EXPORT ORDINAL="2504" NAME="?STACKDEPTH@CallstackTracker@DirectUI@@0HB" PURGE="-1" COMMENT="" />
    <EXPORT ORDINAL="2505" NAME="?SaveFocus@NativeHWNDHost@DirectUI@@QEAAXXZ" PURGE="0" COMMENT="" />
    <EXPORT ORDINAL="2506" NAME="?Scroll@BaseScrollBar@DirectUI@@SA?AVUID@@XZ" PURGE="0" COMMENT="" />
    <EXPORT ORDINAL="2507" NAME="?Scroll@ScrollProvider@DirectUI@@UEAAJW4ScrollAmount@@0@Z" PURGE="0" COMMENT="" />
    <EXPORT ORDINAL="2508" NAME="?Scroll@ScrollProxy@DirectUI@@AEAAJW4ScrollAmount@@0@Z" PURGE="0" COMMENT="" />
    <EXPORT ORDINAL="2509" NAME="?ScrollBarControlType@Schema@DirectUI@@2HA" PURGE="-1" COMMENT="" />
    <EXPORT ORDINAL="2510" NAME="?ScrollIntoView@ScrollItemProvider@DirectUI@@UEAAJXZ" PURGE="0" COMMENT="" />
    <EXPORT ORDINAL="2511" NAME="?ScrollItemPattern@Schema@DirectUI@@2HA" PURGE="-1" COMMENT="" />
    <EXPORT ORDINAL="2512" NAME="?ScrollLine@ScrollProxy@DirectUI@@AEAAJ_N0@Z" PURGE="0" COMMENT="" />
    <EXPORT ORDINAL="2513" NAME="?ScrollPage@ScrollProxy@DirectUI@@AEAAJ_N0@Z" PURGE="0" COMMENT="" />
    <EXPORT ORDINAL="2514" NAME="?ScrollPattern@Schema@DirectUI@@2HA" PURGE="-1" COMMENT="" />
    <EXPORT ORDINAL="2515" NAME="?ScrollToHorizontalPosition@ScrollProxy@DirectUI@@AEAAJH_N@Z" PURGE="0" COMMENT="" />
    <EXPORT ORDINAL="2516" NAME="?ScrollToVerticalPosition@ScrollProxy@DirectUI@@AEAAJH_N@Z" PURGE="0" COMMENT="" />
    <EXPORT ORDINAL="2517" NAME="?Scroll_HorizontalScrollPercent_Property@Schema@DirectUI@@2HA" PURGE="-1" COMMENT="" />
    <EXPORT ORDINAL="2518" NAME="?Scroll_HorizontalViewSize_Property@Schema@DirectUI@@2HA" PURGE="-1" COMMENT="" />
    <EXPORT ORDINAL="2519" NAME="?Scroll_HorizontallyScrollable_Property@Schema@DirectUI@@2HA" PURGE="-1" COMMENT="" />
    <EXPORT ORDINAL="2520" NAME="?Scroll_VerticalScrollPercent_Property@Schema@DirectUI@@2HA" PURGE="-1" COMMENT="" />
    <EXPORT ORDINAL="2521" NAME="?Scroll_VerticalViewSize_Property@Schema@DirectUI@@2HA" PURGE="-1" COMMENT="" />
    <EXPORT ORDINAL="2522" NAME="?Scroll_VerticallyScrollable_Property@Schema@DirectUI@@2HA" PURGE="-1" COMMENT="" />
    <EXPORT ORDINAL="2523" NAME="?Select@SelectionItemProvider@DirectUI@@UEAAJXZ" PURGE="0" COMMENT="" />
    <EXPORT ORDINAL="2524" NAME="?Select@SelectorSelectionItemProxy@DirectUI@@AEAAJXZ" PURGE="0" COMMENT="" />
    <EXPORT ORDINAL="2525" NAME="?SelectedProp@Element@DirectUI@@SAPEBUPropertyInfo@2@XZ" PURGE="0" COMMENT="" />
    <EXPORT ORDINAL="2526" NAME="?SelectionChange@Combobox@DirectUI@@SA?AVUID@@XZ" PURGE="0" COMMENT="" />
    <EXPORT ORDINAL="2527" NAME="?SelectionChange@Selector@DirectUI@@SA?AVUID@@XZ" PURGE="0" COMMENT="" />
    <EXPORT ORDINAL="2528" NAME="?SelectionInvalidatedEvent@Schema@DirectUI@@2HA" PURGE="-1" COMMENT="" />
    <EXPORT ORDINAL="2529" NAME="?SelectionItemElementAddedToSelectionEvent@Schema@DirectUI@@2HA" PURGE="-1" COMMENT="" />
    <EXPORT ORDINAL="2530" NAME="?SelectionItemElementRemovedFromSelectionEvent@Schema@DirectUI@@2HA" PURGE="-1" COMMENT="" />
    <EXPORT ORDINAL="2531" NAME="?SelectionItemElementSelectedEvent@Schema@DirectUI@@2HA" PURGE="-1" COMMENT="" />
    <EXPORT ORDINAL="2532" NAME="?SelectionItemPattern@Schema@DirectUI@@2HA" PURGE="-1" COMMENT="" />
    <EXPORT ORDINAL="2533" NAME="?SelectionItem_IsSelected_Property@Schema@DirectUI@@2HA" PURGE="-1" COMMENT="" />
    <EXPORT ORDINAL="2534" NAME="?SelectionItem_SelectionContainer_Property@Schema@DirectUI@@2HA" PURGE="-1" COMMENT="" />
    <EXPORT ORDINAL="2535" NAME="?SelectionPattern@Schema@DirectUI@@2HA" PURGE="-1" COMMENT="" />
    <EXPORT ORDINAL="2536" NAME="?SelectionProp@Combobox@DirectUI@@SAPEBUPropertyInfo@2@XZ" PURGE="0" COMMENT="" />
    <EXPORT ORDINAL="2537" NAME="?SelectionProp@Selector@DirectUI@@SAPEBUPropertyInfo@2@XZ" PURGE="0" COMMENT="" />
    <EXPORT ORDINAL="2538" NAME="?Selection_CanSelectMultiple_Property@Schema@DirectUI@@2HA" PURGE="-1" COMMENT="" />
    <EXPORT ORDINAL="2539" NAME="?Selection_IsSelectionRequired_Property@Schema@DirectUI@@2HA" PURGE="-1" COMMENT="" />
    <EXPORT ORDINAL="2540" NAME="?Selection_Selection_Property@Schema@DirectUI@@2HA" PURGE="-1" COMMENT="" />
    <EXPORT ORDINAL="2541" NAME="?SendParseError@DUIXmlParser@DirectUI@@IEAAXPEBG0HHJ@Z" PURGE="0" COMMENT="" />
    <EXPORT ORDINAL="2542" NAME="?SendParseError@DUIXmlParser@DirectUI@@IEAAXPEBG0PEAUIXmlReader@@J@Z" PURGE="0" COMMENT="" />
    <EXPORT ORDINAL="2543" NAME="?SeparatorControlType@Schema@DirectUI@@2HA" PURGE="-1" COMMENT="" />
    <EXPORT ORDINAL="2544" NAME="?SetAbsorbsShortcut@Element@DirectUI@@QEAAJ_N@Z" PURGE="0" COMMENT="" />
    <EXPORT ORDINAL="2545" NAME="?SetAccDefAction@Element@DirectUI@@QEAAJPEBG@Z" PURGE="0" COMMENT="" />
    <EXPORT ORDINAL="2546" NAME="?SetAccDesc@Element@DirectUI@@QEAAJPEBG@Z" PURGE="0" COMMENT="" />
    <EXPORT ORDINAL="2547" NAME="?SetAccHelp@Element@DirectUI@@QEAAJPEBG@Z" PURGE="0" COMMENT="" />
    <EXPORT ORDINAL="2548" NAME="?SetAccItemStatus@Element@DirectUI@@QEAAJPEBG@Z" PURGE="0" COMMENT="" />
    <EXPORT ORDINAL="2549" NAME="?SetAccItemType@Element@DirectUI@@QEAAJPEBG@Z" PURGE="0" COMMENT="" />
    <EXPORT ORDINAL="2550" NAME="?SetAccName@Element@DirectUI@@QEAAJPEBG@Z" PURGE="0" COMMENT="" />
    <EXPORT ORDINAL="2551" NAME="?SetAccRole@Element@DirectUI@@QEAAJH@Z" PURGE="0" COMMENT="" />
    <EXPORT ORDINAL="2552" NAME="?SetAccState@Element@DirectUI@@QEAAJH@Z" PURGE="0" COMMENT="" />
    <EXPORT ORDINAL="2553" NAME="?SetAccValue@Element@DirectUI@@QEAAJPEBG@Z" PURGE="0" COMMENT="" />
    <EXPORT ORDINAL="2554" NAME="?SetAccessible@Element@DirectUI@@QEAAJ_N@Z" PURGE="0" COMMENT="" />
    <EXPORT ORDINAL="2555" NAME="?SetActive@Element@DirectUI@@QEAAJH@Z" PURGE="0" COMMENT="" />
    <EXPORT ORDINAL="2556" NAME="?SetAlpha@Element@DirectUI@@QEAAJH@Z" PURGE="0" COMMENT="" />
    <EXPORT ORDINAL="2557" NAME="?SetAnimation@Element@DirectUI@@QEAAJH@Z" PURGE="0" COMMENT="" />
    <EXPORT ORDINAL="2558" NAME="?SetAutoGrouping@CCRadioButton@DirectUI@@QEAAJ_N@Z" PURGE="0" COMMENT="" />
    <EXPORT ORDINAL="2559" NAME="?SetAutoStart@Movie@DirectUI@@QEAAJ_N@Z" PURGE="0" COMMENT="" />
    <EXPORT ORDINAL="2560" NAME="?SetAutoStop@Movie@DirectUI@@QEAAJ_N@Z" PURGE="0" COMMENT="" />
    <EXPORT ORDINAL="2561" NAME="?SetBackgroundColor@Element@DirectUI@@QEAAJAEBUFill@2@@Z" PURGE="0" COMMENT="" />
    <EXPORT ORDINAL="2562" NAME="?SetBackgroundColor@Element@DirectUI@@QEAAJK@Z" PURGE="0" COMMENT="" />
    <EXPORT ORDINAL="2563" NAME="?SetBackgroundColor@Element@DirectUI@@QEAAJKKE@Z" PURGE="0" COMMENT="" />
    <EXPORT ORDINAL="2564" NAME="?SetBackgroundColor@Element@DirectUI@@QEAAJKKKE@Z" PURGE="0" COMMENT="" />
    <EXPORT ORDINAL="2565" NAME="?SetBackgroundColor@Element@DirectUI@@QEAAJPEBGHH@Z" PURGE="0" COMMENT="" />
    <EXPORT ORDINAL="2566" NAME="?SetBackgroundOwnerID@HWNDHost@DirectUI@@QEAAJPEBG@Z" PURGE="0" COMMENT="" />
    <EXPORT ORDINAL="2567" NAME="?SetBackgroundStdColor@Element@DirectUI@@QEAAJH@Z" PURGE="0" COMMENT="" />
    <EXPORT ORDINAL="2568" NAME="?SetBorderColor@Element@DirectUI@@QEAAJK@Z" PURGE="0" COMMENT="" />
    <EXPORT ORDINAL="2569" NAME="?SetBorderGradientColor@Element@DirectUI@@QEAAJKKE@Z" PURGE="0" COMMENT="" />
    <EXPORT ORDINAL="2570" NAME="?SetBorderStdColor@Element@DirectUI@@QEAAJH@Z" PURGE="0" COMMENT="" />
    <EXPORT ORDINAL="2571" NAME="?SetBorderStyle@Element@DirectUI@@QEAAJH@Z" PURGE="0" COMMENT="" />
    <EXPORT ORDINAL="2572" NAME="?SetBorderThickness@Element@DirectUI@@QEAAJHHHH@Z" PURGE="0" COMMENT="" />
    <EXPORT ORDINAL="2573" NAME="?SetButtonClassAcceptsEnterKey@DialogElement@DirectUI@@QEAAJ_N@Z" PURGE="0" COMMENT="" />
    <EXPORT ORDINAL="2574" NAME="?SetButtonClassAcceptsEnterKey@XProvider@DirectUI@@UEAAJ_N@Z" PURGE="0" COMMENT="" />
    <EXPORT ORDINAL="2575" NAME="?SetCacheDirty@Layout@DirectUI@@IEAAXXZ" PURGE="0" COMMENT="" />
    <EXPORT ORDINAL="2576" NAME="?SetCaptured@Button@DirectUI@@QEAAJ_N@Z" PURGE="0" COMMENT="" />
    <EXPORT ORDINAL="2577" NAME="?SetClass@Element@DirectUI@@QEAAJPEBG@Z" PURGE="0" COMMENT="" />
    <EXPORT ORDINAL="2578" NAME="?SetClassInfoPtr@AccessibleButton@DirectUI@@SAXPEAUIClassInfo@2@@Z" PURGE="0" COMMENT="" />
    <EXPORT ORDINAL="2579" NAME="?SetClassInfoPtr@AnimationStrip@DirectUI@@SAXPEAUIClassInfo@2@@Z" PURGE="0" COMMENT="" />
    <EXPORT ORDINAL="2580" NAME="?SetClassInfoPtr@AutoButton@DirectUI@@SAXPEAUIClassInfo@2@@Z" PURGE="0" COMMENT="" />
    <EXPORT ORDINAL="2581" NAME="?SetClassInfoPtr@BaseScrollViewer@DirectUI@@SAXPEAUIClassInfo@2@@Z" PURGE="0" COMMENT="" />
    <EXPORT ORDINAL="2582" NAME="?SetClassInfoPtr@Bind@DirectUI@@SAXPEAUIClassInfo@2@@Z" PURGE="0" COMMENT="" />
    <EXPORT ORDINAL="2583" NAME="?SetClassInfoPtr@Browser@DirectUI@@SAXPEAUIClassInfo@2@@Z" PURGE="0" COMMENT="" />
    <EXPORT ORDINAL="2584" NAME="?SetClassInfoPtr@Button@DirectUI@@SAXPEAUIClassInfo@2@@Z" PURGE="0" COMMENT="" />
    <EXPORT ORDINAL="2585" NAME="?SetClassInfoPtr@CCAVI@DirectUI@@SAXPEAUIClassInfo@2@@Z" PURGE="0" COMMENT="" />
    <EXPORT ORDINAL="2586" NAME="?SetClassInfoPtr@CCBase@DirectUI@@SAXPEAUIClassInfo@2@@Z" PURGE="0" COMMENT="" />
    <EXPORT ORDINAL="2587" NAME="?SetClassInfoPtr@CCBaseCheckRadioButton@DirectUI@@SAXPEAUIClassInfo@2@@Z" PURGE="0" COMMENT="" />
    <EXPORT ORDINAL="2588" NAME="?SetClassInfoPtr@CCBaseScrollBar@DirectUI@@SAXPEAUIClassInfo@2@@Z" PURGE="0" COMMENT="" />
    <EXPORT ORDINAL="2589" NAME="?SetClassInfoPtr@CCCheckBox@DirectUI@@SAXPEAUIClassInfo@2@@Z" PURGE="0" COMMENT="" />
    <EXPORT ORDINAL="2590" NAME="?SetClassInfoPtr@CCCommandLink@DirectUI@@SAXPEAUIClassInfo@2@@Z" PURGE="0" COMMENT="" />
    <EXPORT ORDINAL="2591" NAME="?SetClassInfoPtr@CCHScrollBar@DirectUI@@SAXPEAUIClassInfo@2@@Z" PURGE="0" COMMENT="" />
    <EXPORT ORDINAL="2592" NAME="?SetClassInfoPtr@CCListBox@DirectUI@@SAXPEAUIClassInfo@2@@Z" PURGE="0" COMMENT="" />
    <EXPORT ORDINAL="2593" NAME="?SetClassInfoPtr@CCListView@DirectUI@@SAXPEAUIClassInfo@2@@Z" PURGE="0" COMMENT="" />
    <EXPORT ORDINAL="2594" NAME="?SetClassInfoPtr@CCProgressBar@DirectUI@@SAXPEAUIClassInfo@2@@Z" PURGE="0" COMMENT="" />
    <EXPORT ORDINAL="2595" NAME="?SetClassInfoPtr@CCPushButton@DirectUI@@SAXPEAUIClassInfo@2@@Z" PURGE="0" COMMENT="" />
    <EXPORT ORDINAL="2596" NAME="?SetClassInfoPtr@CCRadioButton@DirectUI@@SAXPEAUIClassInfo@2@@Z" PURGE="0" COMMENT="" />
    <EXPORT ORDINAL="2597" NAME="?SetClassInfoPtr@CCSysLink@DirectUI@@SAXPEAUIClassInfo@2@@Z" PURGE="0" COMMENT="" />
    <EXPORT ORDINAL="2598" NAME="?SetClassInfoPtr@CCTrackBar@DirectUI@@SAXPEAUIClassInfo@2@@Z" PURGE="0" COMMENT="" />
    <EXPORT ORDINAL="2599" NAME="?SetClassInfoPtr@CCTreeView@DirectUI@@SAXPEAUIClassInfo@2@@Z" PURGE="0" COMMENT="" />
    <EXPORT ORDINAL="2600" NAME="?SetClassInfoPtr@CCVScrollBar@DirectUI@@SAXPEAUIClassInfo@2@@Z" PURGE="0" COMMENT="" />
    <EXPORT ORDINAL="2601" NAME="?SetClassInfoPtr@CheckBoxGlyph@DirectUI@@SAXPEAUIClassInfo@2@@Z" PURGE="0" COMMENT="" />
    <EXPORT ORDINAL="2602" NAME="?SetClassInfoPtr@Clipper@DirectUI@@SAXPEAUIClassInfo@2@@Z" PURGE="0" COMMENT="" />
    <EXPORT ORDINAL="2603" NAME="?SetClassInfoPtr@Combobox@DirectUI@@SAXPEAUIClassInfo@2@@Z" PURGE="0" COMMENT="" />
    <EXPORT ORDINAL="2604" NAME="?SetClassInfoPtr@DialogElement@DirectUI@@SAXPEAUIClassInfo@2@@Z" PURGE="0" COMMENT="" />
    <EXPORT ORDINAL="2605" NAME="?SetClassInfoPtr@Edit@DirectUI@@SAXPEAUIClassInfo@2@@Z" PURGE="0" COMMENT="" />
    <EXPORT ORDINAL="2606" NAME="?SetClassInfoPtr@Element@DirectUI@@SAXPEAUIClassInfo@2@@Z" PURGE="0" COMMENT="" />
    <EXPORT ORDINAL="2607" NAME="?SetClassInfoPtr@ElementWithHWND@DirectUI@@SAXPEAUIClassInfo@2@@Z" PURGE="0" COMMENT="" />
    <EXPORT ORDINAL="2608" NAME="?SetClassInfoPtr@Expandable@DirectUI@@SAXPEAUIClassInfo@2@@Z" PURGE="0" COMMENT="" />
    <EXPORT ORDINAL="2609" NAME="?SetClassInfoPtr@Expando@DirectUI@@SAXPEAUIClassInfo@2@@Z" PURGE="0" COMMENT="" />
    <EXPORT ORDINAL="2610" NAME="?SetClassInfoPtr@ExpandoButtonGlyph@DirectUI@@SAXPEAUIClassInfo@2@@Z" PURGE="0" COMMENT="" />
    <EXPORT ORDINAL="2611" NAME="?SetClassInfoPtr@HWNDElement@DirectUI@@SAXPEAUIClassInfo@2@@Z" PURGE="0" COMMENT="" />
    <EXPORT ORDINAL="2612" NAME="?SetClassInfoPtr@HWNDHost@DirectUI@@SAXPEAUIClassInfo@2@@Z" PURGE="0" COMMENT="" />
    <EXPORT ORDINAL="2613" NAME="?SetClassInfoPtr@Macro@DirectUI@@SAXPEAUIClassInfo@2@@Z" PURGE="0" COMMENT="" />
    <EXPORT ORDINAL="2614" NAME="?SetClassInfoPtr@Movie@DirectUI@@SAXPEAUIClassInfo@2@@Z" PURGE="0" COMMENT="" />
    <EXPORT ORDINAL="2615" NAME="?SetClassInfoPtr@Navigator@DirectUI@@SAXPEAUIClassInfo@2@@Z" PURGE="0" COMMENT="" />
    <EXPORT ORDINAL="2616" NAME="?SetClassInfoPtr@PText@DirectUI@@SAXPEAUIClassInfo@2@@Z" PURGE="0" COMMENT="" />
    <EXPORT ORDINAL="2617" NAME="?SetClassInfoPtr@Page@DirectUI@@SAXPEAUIClassInfo@2@@Z" PURGE="0" COMMENT="" />
    <EXPORT ORDINAL="2618" NAME="?SetClassInfoPtr@Pages@DirectUI@@SAXPEAUIClassInfo@2@@Z" PURGE="0" COMMENT="" />
    <EXPORT ORDINAL="2619" NAME="?SetClassInfoPtr@Progress@DirectUI@@SAXPEAUIClassInfo@2@@Z" PURGE="0" COMMENT="" />
    <EXPORT ORDINAL="2620" NAME="?SetClassInfoPtr@PushButton@DirectUI@@SAXPEAUIClassInfo@2@@Z" PURGE="0" COMMENT="" />
    <EXPORT ORDINAL="2621" NAME="?SetClassInfoPtr@RadioButtonGlyph@DirectUI@@SAXPEAUIClassInfo@2@@Z" PURGE="0" COMMENT="" />
    <EXPORT ORDINAL="2622" NAME="?SetClassInfoPtr@RefPointElement@DirectUI@@SAXPEAUIClassInfo@2@@Z" PURGE="0" COMMENT="" />
    <EXPORT ORDINAL="2623" NAME="?SetClassInfoPtr@RepeatButton@DirectUI@@SAXPEAUIClassInfo@2@@Z" PURGE="0" COMMENT="" />
    <EXPORT ORDINAL="2624" NAME="?SetClassInfoPtr@Repeater@DirectUI@@SAXPEAUIClassInfo@2@@Z" PURGE="0" COMMENT="" />
    <EXPORT ORDINAL="2625" NAME="?SetClassInfoPtr@ScrollBar@DirectUI@@SAXPEAUIClassInfo@2@@Z" PURGE="0" COMMENT="" />
    <EXPORT ORDINAL="2626" NAME="?SetClassInfoPtr@ScrollViewer@DirectUI@@SAXPEAUIClassInfo@2@@Z" PURGE="0" COMMENT="" />
    <EXPORT ORDINAL="2627" NAME="?SetClassInfoPtr@Selector@DirectUI@@SAXPEAUIClassInfo@2@@Z" PURGE="0" COMMENT="" />
    <EXPORT ORDINAL="2628" NAME="?SetClassInfoPtr@SelectorNoDefault@DirectUI@@SAXPEAUIClassInfo@2@@Z" PURGE="0" COMMENT="" />
    <EXPORT ORDINAL="2629" NAME="?SetClassInfoPtr@StyledScrollViewer@DirectUI@@SAXPEAUIClassInfo@2@@Z" PURGE="0" COMMENT="" />
    <EXPORT ORDINAL="2630" NAME="?SetClassInfoPtr@TextGraphic@DirectUI@@SAXPEAUIClassInfo@2@@Z" PURGE="0" COMMENT="" />
    <EXPORT ORDINAL="2631" NAME="?SetClassInfoPtr@Thumb@DirectUI@@SAXPEAUIClassInfo@2@@Z" PURGE="0" COMMENT="" />
    <EXPORT ORDINAL="2632" NAME="?SetClassInfoPtr@UnknownElement@DirectUI@@SAXPEAUIClassInfo@2@@Z" PURGE="0" COMMENT="" />
    <EXPORT ORDINAL="2633" NAME="?SetClassInfoPtr@Viewer@DirectUI@@SAXPEAUIClassInfo@2@@Z" PURGE="0" COMMENT="" />
    <EXPORT ORDINAL="2634" NAME="?SetClassInfoPtr@XBaby@DirectUI@@SAXPEAUIClassInfo@2@@Z" PURGE="0" COMMENT="" />
    <EXPORT ORDINAL="2635" NAME="?SetClassInfoPtr@XElement@DirectUI@@SAXPEAUIClassInfo@2@@Z" PURGE="0" COMMENT="" />
    <EXPORT ORDINAL="2636" NAME="?SetDefaultFocusID@NativeHWNDHost@DirectUI@@QEAAXPEBG@Z" PURGE="0" COMMENT="" />
    <EXPORT ORDINAL="2637" NAME="?SetCompositedText@Element@DirectUI@@QEAAJ_N@Z" PURGE="0" COMMENT="" />
    <EXPORT ORDINAL="2638" NAME="?SetCompositingQuality@Movie@DirectUI@@QEAAJH@Z" PURGE="0" COMMENT="" />
    <EXPORT ORDINAL="2639" NAME="?SetConnect@Bind@DirectUI@@QEAAJPEBG@Z" PURGE="0" COMMENT="" />
    <EXPORT ORDINAL="2640" NAME="?SetContentAlign@Element@DirectUI@@QEAAJH@Z" PURGE="0" COMMENT="" />
    <EXPORT ORDINAL="2641" NAME="?SetContentGraphic@Element@DirectUI@@QEAAJPEBGEI@Z" PURGE="0" COMMENT="" />
    <EXPORT ORDINAL="2642" NAME="?SetContentGraphic@Element@DirectUI@@QEAAJPEBGGG@Z" PURGE="0" COMMENT="" />
    <EXPORT ORDINAL="2643" NAME="?SetContentString@Element@DirectUI@@QEAAJPEBG@Z" PURGE="0" COMMENT="" />
    <EXPORT ORDINAL="2644" NAME="?SetCursor@Element@DirectUI@@QEAAJPEBG@Z" PURGE="0" COMMENT="" />
    <EXPORT ORDINAL="2645" NAME="?SetCursorHandle@Element@DirectUI@@QEAAJPEAUHICON__@@@Z" PURGE="0" COMMENT="" />
    <EXPORT ORDINAL="2646" NAME="?SetDataEngine@Repeater@DirectUI@@QEAAXPEAUIDataEngine@2@@Z" PURGE="-1" COMMENT="" />
    <EXPORT ORDINAL="2647" NAME="?SetDataEntry@Macro@DirectUI@@QEAAXPEAUIDataEntry@2@PEAVElement@2@@Z" PURGE="0" COMMENT="" />
    <EXPORT ORDINAL="2648" NAME="?SetDataEntry@PText@DirectUI@@QEAAXPEAUIDataEntry@2@@Z" PURGE="0" COMMENT="" />
    <EXPORT ORDINAL="2649" NAME="?SetDefaultButtonTracking@DialogElement@DirectUI@@QEAAJ_N@Z" PURGE="0" COMMENT="" />
    <EXPORT ORDINAL="2650" NAME="?SetDefaultButtonTracking@XProvider@DirectUI@@UEAAJ_N@Z" PURGE="0" COMMENT="" />
    <EXPORT ORDINAL="2651" NAME="?SetUnavailableIcon@DUIXmlParser@DirectUI@@QEAAXPEAUHICON__@@@Z" PURGE="0" COMMENT="" />
    <EXPORT ORDINAL="2652" NAME="?SetDefaultHInstance@DUIXmlParser@DirectUI@@QEAAXPEAUHINSTANCE__@@@Z" PURGE="0" COMMENT="" />
    <EXPORT ORDINAL="2653" NAME="?SetDefaultState@CCPushButton@DirectUI@@IEAAXKK@Z" PURGE="0" COMMENT="" />
    <EXPORT ORDINAL="2654" NAME="?SetDirection@Element@DirectUI@@QEAAJH@Z" PURGE="0" COMMENT="" />
    <EXPORT ORDINAL="2655" NAME="?SetDirty@Edit@DirectUI@@QEAAJ_N@Z" PURGE="0" COMMENT="" />
    <EXPORT ORDINAL="2656" NAME="?SetDrawOutlines@Movie@DirectUI@@QEAAJ_N@Z" PURGE="0" COMMENT="" />
    <EXPORT ORDINAL="2657" NAME="?SetEnabled@Element@DirectUI@@QEAAJ_N@Z" PURGE="0" COMMENT="" />
    <EXPORT ORDINAL="2658" NAME="?SetEncodedContentString@Element@DirectUI@@QEAAJPEBG@Z" PURGE="0" COMMENT="" />
    <EXPORT ORDINAL="2659" NAME="?SetEnforceSize@PushButton@DirectUI@@QEAAJ_N@Z" PURGE="0" COMMENT="" />
    <EXPORT ORDINAL="2660" NAME="?SetError@DUIFactory@DirectUI@@QEAAXPEBGZZ" PURGE="0" COMMENT="" />
    <EXPORT ORDINAL="2661" NAME="?SetExpand@Macro@DirectUI@@QEAAJPEBG@Z" PURGE="0" COMMENT="" />
    <EXPORT ORDINAL="2662" NAME="?SetExpanded@Expandable@DirectUI@@QEAAJ_N@Z" PURGE="0" COMMENT="" />
    <EXPORT ORDINAL="2663" NAME="?SetFocus@ElementProvider@DirectUI@@UEAAJXZ" PURGE="0" COMMENT="" />
    <EXPORT ORDINAL="2664" NAME="?SetFocus@HWNDElement@DirectUI@@QEAAX_N@Z" PURGE="0" COMMENT="" />
    <EXPORT ORDINAL="2665" NAME="?SetFocus@XProvider@DirectUI@@UEAAJPEAVElement@2@@Z" PURGE="0" COMMENT="" />
    <EXPORT ORDINAL="2666" NAME="?SetFont@Element@DirectUI@@QEAAJPEBG@Z" PURGE="0" COMMENT="" />
    <EXPORT ORDINAL="2667" NAME="?SetFontFace@Element@DirectUI@@QEAAJPEBG@Z" PURGE="0" COMMENT="" />
    <EXPORT ORDINAL="2668" NAME="?SetFontQuality@Element@DirectUI@@QEAAJH@Z" PURGE="0" COMMENT="" />
    <EXPORT ORDINAL="2669" NAME="?SetFontSize@Element@DirectUI@@QEAAJH@Z" PURGE="0" COMMENT="" />
    <EXPORT ORDINAL="2670" NAME="?SetFontStyle@Element@DirectUI@@QEAAJH@Z" PURGE="0" COMMENT="" />
    <EXPORT ORDINAL="2671" NAME="?SetFontWeight@Element@DirectUI@@QEAAJH@Z" PURGE="0" COMMENT="" />
    <EXPORT ORDINAL="2672" NAME="?SetForegroundColor@Element@DirectUI@@QEAAJK@Z" PURGE="0" COMMENT="" />
    <EXPORT ORDINAL="2673" NAME="?SetForegroundColor@Element@DirectUI@@QEAAJKKE@Z" PURGE="0" COMMENT="" />
    <EXPORT ORDINAL="2674" NAME="?SetForegroundColor@Element@DirectUI@@QEAAJKKKE@Z" PURGE="0" COMMENT="" />
    <EXPORT ORDINAL="2675" NAME="?SetForegroundStdColor@Element@DirectUI@@QEAAJH@Z" PURGE="0" COMMENT="" />
    <EXPORT ORDINAL="2676" NAME="?SetFrameDuration@AnimationStrip@DirectUI@@QEAAJH@Z" PURGE="0" COMMENT="" />
    <EXPORT ORDINAL="2677" NAME="?SetFrameIndex@AnimationStrip@DirectUI@@QEAAJH@Z" PURGE="0" COMMENT="" />
    <EXPORT ORDINAL="2678" NAME="?SetFrameWidth@AnimationStrip@DirectUI@@QEAAJH@Z" PURGE="0" COMMENT="" />
    <EXPORT ORDINAL="2679" NAME="?SetGetSheetCallback@DUIXmlParser@DirectUI@@QEAAXP6APEAVValue@2@PEBGPEAX@Z1@Z" PURGE="0" COMMENT="" />
    <EXPORT ORDINAL="2680" NAME="?SetHandleEnterKey@DialogElement@DirectUI@@QEAAJ_N@Z" PURGE="0" COMMENT="" />
    <EXPORT ORDINAL="2681" NAME="?SetHandleEnterKey@XProvider@DirectUI@@IEAAX_N@Z" PURGE="0" COMMENT="" />
    <EXPORT ORDINAL="2682" NAME="?SetHeight@Element@DirectUI@@QEAAJH@Z" PURGE="0" COMMENT="" />
    <EXPORT ORDINAL="2683" NAME="?SetID@Element@DirectUI@@QEAAJPEBG@Z" PURGE="0" COMMENT="" />
    <EXPORT ORDINAL="2684" NAME="?SetInterpolationMode@Movie@DirectUI@@QEAAJH@Z" PURGE="0" COMMENT="" />
    <EXPORT ORDINAL="2685" NAME="?SetItemState@CCTreeView@DirectUI@@QEAAXPEAU_TREEITEM@@I@Z" PURGE="0" COMMENT="" />
    <EXPORT ORDINAL="2686" NAME="?SetKeyFocus@Element@DirectUI@@UEAAXXZ" PURGE="0" COMMENT="" />
    <EXPORT ORDINAL="2687" NAME="?SetKeyFocus@HWNDHost@DirectUI@@UEAAXXZ" PURGE="0" COMMENT="" />
    <EXPORT ORDINAL="2688" NAME="?SetKeyFocus@XBaby@DirectUI@@UEAAXXZ" PURGE="0" COMMENT="" />
    <EXPORT ORDINAL="2689" NAME="?SetKeyFocus@XElement@DirectUI@@UEAAXXZ" PURGE="0" COMMENT="" />
    <EXPORT ORDINAL="2690" NAME="?SetLayout@Element@DirectUI@@QEAAJPEAVLayout@2@@Z" PURGE="0" COMMENT="" />
    <EXPORT ORDINAL="2691" NAME="?SetLayoutPos@Element@DirectUI@@QEAAJH@Z" PURGE="0" COMMENT="" />
    <EXPORT ORDINAL="2692" NAME="?SetLine@CCBaseScrollBar@DirectUI@@UEAAJH@Z" PURGE="0" COMMENT="" />
    <EXPORT ORDINAL="2693" NAME="?SetLine@ScrollBar@DirectUI@@UEAAJH@Z" PURGE="0" COMMENT="" />
    <EXPORT ORDINAL="2694" NAME="?SetLineSize@CCTrackBar@DirectUI@@QEAAJH@Z" PURGE="0" COMMENT="" />
    <EXPORT ORDINAL="2695" NAME="?SetMargin@Element@DirectUI@@QEAAJHHHH@Z" PURGE="0" COMMENT="" />
    <EXPORT ORDINAL="2696" NAME="?SetMaxLength@Edit@DirectUI@@QEAAJH@Z" PURGE="0" COMMENT="" />
    <EXPORT ORDINAL="2697" NAME="?SetMaximum@CCBaseScrollBar@DirectUI@@UEAAJH@Z" PURGE="0" COMMENT="" />
    <EXPORT ORDINAL="2698" NAME="?SetMaximum@Progress@DirectUI@@QEAAJH@Z" PURGE="0" COMMENT="" />
    <EXPORT ORDINAL="2699" NAME="?SetMaximum@ScrollBar@DirectUI@@UEAAJH@Z" PURGE="0" COMMENT="" />
    <EXPORT ORDINAL="2700" NAME="?SetMinSize@Element@DirectUI@@QEAAJHH@Z" PURGE="0" COMMENT="" />
    <EXPORT ORDINAL="2701" NAME="?SetMinimum@CCBaseScrollBar@DirectUI@@UEAAJH@Z" PURGE="0" COMMENT="" />
    <EXPORT ORDINAL="2702" NAME="?SetMinimum@Progress@DirectUI@@QEAAJH@Z" PURGE="0" COMMENT="" />
    <EXPORT ORDINAL="2703" NAME="?SetMinimum@ScrollBar@DirectUI@@UEAAJH@Z" PURGE="0" COMMENT="" />
    <EXPORT ORDINAL="2704" NAME="?SetMultiline@Edit@DirectUI@@QEAAJ_N@Z" PURGE="0" COMMENT="" />
    <EXPORT ORDINAL="2705" NAME="?SetNoBrowseOnFirstAdd@Pages@DirectUI@@QEAAXXZ" PURGE="0" COMMENT="" />
    <EXPORT ORDINAL="2706" NAME="?SetNote@CCCommandLink@DirectUI@@QEAAJPEBG@Z" PURGE="0" COMMENT="" />
    <EXPORT ORDINAL="2707" NAME="?SetNotifyHandler@CCBase@DirectUI@@QEAAXP6AHI_K_JPEA_JPEAX@Z3@Z" PURGE="0" COMMENT="" />
    <EXPORT ORDINAL="2708" NAME="?SetOptimizeMove@HWNDHost@DirectUI@@QEAAJ_N@Z" PURGE="0" COMMENT="" />
    <EXPORT ORDINAL="2709" NAME="?SetOrder@ScrollBar@DirectUI@@QEAAJH@Z" PURGE="0" COMMENT="" />
    <EXPORT ORDINAL="2710" NAME="?SetOverhang@Element@DirectUI@@QEAAJ_N@Z" PURGE="0" COMMENT="" />
    <EXPORT ORDINAL="2711" NAME="?SetOverrideButtonBackground@CCPushButton@DirectUI@@QEAAJ_N@Z" PURGE="0" COMMENT="" />
    <EXPORT ORDINAL="2712" NAME="?SetPadding@Element@DirectUI@@QEAAJHHHH@Z" PURGE="0" COMMENT="" />
    <EXPORT ORDINAL="2713" NAME="?SetPage@CCBaseScrollBar@DirectUI@@UEAAJH@Z" PURGE="0" COMMENT="" />
    <EXPORT ORDINAL="2714" NAME="?SetPage@ScrollBar@DirectUI@@UEAAJH@Z" PURGE="0" COMMENT="" />
    <EXPORT ORDINAL="2715" NAME="?Skip@DuiAccessible@DirectUI@@UEAAJK@Z" PURGE="0" COMMENT="" />
    <EXPORT ORDINAL="2716" NAME="?SetParentSizeControl@HWNDElement@DirectUI@@QEAAX_N@Z" PURGE="0" COMMENT="" />
    <EXPORT ORDINAL="2717" NAME="?SetParseErrorCallback@DUIXmlParser@DirectUI@@QEAAXP6AXPEBG0HPEAX@Z1@Z" PURGE="0" COMMENT="" />
    <EXPORT ORDINAL="2718" NAME="?SetParseState@DUIXmlParser@DirectUI@@AEAAXW4_DUI_PARSE_STATE@2@@Z" PURGE="0" COMMENT="" />
    <EXPORT ORDINAL="2719" NAME="?SetParser@Macro@DirectUI@@QEAAXPEAVDUIXmlParser@2@@Z" PURGE="0" COMMENT="" />
    <EXPORT ORDINAL="2720" NAME="?SetPasswordCharacter@Edit@DirectUI@@QEAAJH@Z" PURGE="0" COMMENT="" />
    <EXPORT ORDINAL="2721" NAME="?SetPath@Movie@DirectUI@@QEAAJPEBG@Z" PURGE="0" COMMENT="" />
    <EXPORT ORDINAL="2722" NAME="?SetPercent@ScrollProxy@DirectUI@@AEAAJPEAVBaseScrollBar@2@N@Z" PURGE="0" COMMENT="" />
    <EXPORT ORDINAL="2723" NAME="?SetPinned@BaseScrollBar@DirectUI@@QEAAX_N@Z" PURGE="0" COMMENT="" />
    <EXPORT ORDINAL="2724" NAME="?SetPinning@BaseScrollViewer@DirectUI@@QEAAJH@Z" PURGE="0" COMMENT="" />
    <EXPORT ORDINAL="2725" NAME="?SetPixelOffsetMode@Movie@DirectUI@@QEAAJH@Z" PURGE="0" COMMENT="" />
    <EXPORT ORDINAL="2726" NAME="?SetPlay@AnimationStrip@DirectUI@@QEAAJ_N@Z" PURGE="0" COMMENT="" />
    <EXPORT ORDINAL="2727" NAME="?SetPlayAllFramesMode@Movie@DirectUI@@QEAAJ_N@Z" PURGE="0" COMMENT="" />
    <EXPORT ORDINAL="2728" NAME="?SetPosition@CCBaseScrollBar@DirectUI@@UEAAJH@Z" PURGE="0" COMMENT="" />
    <EXPORT ORDINAL="2729" NAME="?SetPosition@Progress@DirectUI@@QEAAJH@Z" PURGE="0" COMMENT="" />
    <EXPORT ORDINAL="2730" NAME="?SetPosition@ScrollBar@DirectUI@@UEAAJH@Z" PURGE="0" COMMENT="" />
    <EXPORT ORDINAL="2731" NAME="?SetPreprocessedXML@DUIXmlParser@DirectUI@@QEAAJPEBGPEAUHINSTANCE__@@1@Z" PURGE="0" COMMENT="" />
    <EXPORT ORDINAL="2732" NAME="?SetPressed@Button@DirectUI@@QEAAJ_N@Z" PURGE="0" COMMENT="" />
    <EXPORT ORDINAL="2733" NAME="?SetProperty@Bind@DirectUI@@QEAAJPEBG@Z" PURGE="0" COMMENT="" />
    <EXPORT ORDINAL="2734" NAME="?SetProportional@ScrollBar@DirectUI@@QEAAJ_N@Z" PURGE="0" COMMENT="" />
    <EXPORT ORDINAL="2735" NAME="?SetProvider@XElement@DirectUI@@QEAAJPEAUIUnknown@@@Z" PURGE="0" COMMENT="" />
    <EXPORT ORDINAL="2736" NAME="?SetRangeMax@CCTrackBar@DirectUI@@QEAAJH@Z" PURGE="0" COMMENT="" />
    <EXPORT ORDINAL="2737" NAME="?SetRangeMin@CCTrackBar@DirectUI@@QEAAJH@Z" PURGE="0" COMMENT="" />
    <EXPORT ORDINAL="2738" NAME="?SetReferencePoint@RefPointElement@DirectUI@@QEAAJHH@Z" PURGE="0" COMMENT="" />
    <EXPORT ORDINAL="2739" NAME="?SetRegisteredDefaultButton@DialogElement@DirectUI@@QEAAJPEAVElement@2@@Z" PURGE="0" COMMENT="" />
    <EXPORT ORDINAL="2740" NAME="?SetRegisteredDefaultButton@XProvider@DirectUI@@UEAAJPEAVElement@2@@Z" PURGE="0" COMMENT="" />
    <EXPORT ORDINAL="2741" NAME="?SetRegisteredDefaultButtonSelectedState@DialogElement@DirectUI@@IEAAX_N@Z" PURGE="0" COMMENT="" />
    <EXPORT ORDINAL="2742" NAME="?SetRepeat@Movie@DirectUI@@QEAAJ_N@Z" PURGE="0" COMMENT="" />
    <EXPORT ORDINAL="2743" NAME="?SetScreenCenter@HWNDElement@DirectUI@@QEAAX_N@Z" PURGE="0" COMMENT="" />
    <EXPORT ORDINAL="2744" NAME="?SetScrollPercent@ScrollProvider@DirectUI@@UEAAJNN@Z" PURGE="0" COMMENT="" />
    <EXPORT ORDINAL="2745" NAME="?SetScrollPercent@ScrollProxy@DirectUI@@AEAAJNN@Z" PURGE="0" COMMENT="" />
    <EXPORT ORDINAL="2746" NAME="?SetSelected@Element@DirectUI@@QEAAJ_N@Z" PURGE="0" COMMENT="" />
    <EXPORT ORDINAL="2747" NAME="?SetSelection@Combobox@DirectUI@@QEAAJH@Z" PURGE="0" COMMENT="" />
    <EXPORT ORDINAL="2748" NAME="?SetSelection@Selector@DirectUI@@UEAAJPEAVElement@2@@Z" PURGE="0" COMMENT="" />
    <EXPORT ORDINAL="2749" NAME="?SetSelection@SelectorNoDefault@DirectUI@@UEAAJPEAVElement@2@@Z" PURGE="0" COMMENT="" />
    <EXPORT ORDINAL="2750" NAME="?SetShadowIntensity@Element@DirectUI@@QEAAJH@Z" PURGE="0" COMMENT="" />
    <EXPORT ORDINAL="2751" NAME="?SetSheet@Element@DirectUI@@QEAAJPEAVStyleSheet@2@@Z" PURGE="0" COMMENT="" />
    <EXPORT ORDINAL="2752" NAME="?SetShortcut@Element@DirectUI@@QEAAJH@Z" PURGE="0" COMMENT="" />
    <EXPORT ORDINAL="2753" NAME="?SetSmoothingMode@Movie@DirectUI@@QEAAJH@Z" PURGE="0" COMMENT="" />
    <EXPORT ORDINAL="2754" NAME="?SetStdCursor@Element@DirectUI@@QEAAJH@Z" PURGE="0" COMMENT="" />
    <EXPORT ORDINAL="2755" NAME="?SetString@ElementProxy@DirectUI@@IEAAJPEAUtagVARIANT@@P8Element@2@EAAPEBGPEAPEAVValue@2@@Z@Z" PURGE="0" COMMENT="" />
    <EXPORT ORDINAL="2756" NAME="?SetStyle@CCTreeView@DirectUI@@QEAAKK@Z" PURGE="0" COMMENT="" />
    <EXPORT ORDINAL="2757" NAME="?SetTargetPage@Navigator@DirectUI@@QEAAJPEBG@Z" PURGE="0" COMMENT="" />
    <EXPORT ORDINAL="2758" NAME="?SetTextGlowSize@Element@DirectUI@@QEAAJH@Z" PURGE="0" COMMENT="" />
    <EXPORT ORDINAL="2759" NAME="?SetThemeChanged@HWNDHost@DirectUI@@IEAAJH@Z" PURGE="0" COMMENT="" />
    <EXPORT ORDINAL="2760" NAME="?SetThemedBorder@Edit@DirectUI@@QEAAJ_N@Z" PURGE="0" COMMENT="" />
    <EXPORT ORDINAL="2761" NAME="?SetThumbPosition@CCTrackBar@DirectUI@@QEAAJH@Z" PURGE="0" COMMENT="" />
    <EXPORT ORDINAL="2762" NAME="?SetToHost@XBaby@DirectUI@@QEAAJPEAVElement@2@@Z" PURGE="0" COMMENT="" />
    <EXPORT ORDINAL="2763" NAME="?SetTooltip@Element@DirectUI@@QEAAJ_N@Z" PURGE="0" COMMENT="" />
    <EXPORT ORDINAL="2764" NAME="?SetTooltipMaxWidth@Element@DirectUI@@QEAAJH@Z" PURGE="0" COMMENT="" />
    <EXPORT ORDINAL="2765" NAME="?SetTracking@CCBaseScrollBar@DirectUI@@QEAAJ_N@Z" PURGE="0" COMMENT="" />
    <EXPORT ORDINAL="2766" NAME="?SetTransparent@HWNDHost@DirectUI@@QEAAJ_N@Z" PURGE="0" COMMENT="" />
    <EXPORT ORDINAL="2767" NAME="?SetClient@BorderLayout@DirectUI@@AEAAXPEAVElement@2@@Z" PURGE="0" COMMENT="" />
    <EXPORT ORDINAL="2768" NAME="?SetUnknownAttrCallback@DUIXmlParser@DirectUI@@QEAAXP6A_NPEBGPEAX@Z1@Z" PURGE="0" COMMENT="" />
    <EXPORT ORDINAL="2769" NAME="?SetValue@Element@DirectUI@@QEAAJP6APEBUPropertyInfo@2@XZHPEAVValue@2@@Z" PURGE="0" COMMENT="" />
    <EXPORT ORDINAL="2770" NAME="?SetValue@Element@DirectUI@@QEAAJPEBUPropertyInfo@2@HPEAVValue@2@@Z" PURGE="0" COMMENT="" />
    <EXPORT ORDINAL="2771" NAME="?SetValue@RangeValueProvider@DirectUI@@UEAAJN@Z" PURGE="0" COMMENT="" />
    <EXPORT ORDINAL="2772" NAME="?SetValue@ValueProvider@DirectUI@@UEAAJPEBG@Z" PURGE="0" COMMENT="" />
    <EXPORT ORDINAL="2773" NAME="?SetValue@ValueProxy@DirectUI@@AEAAJPEBG@Z" PURGE="0" COMMENT="" />
    <EXPORT ORDINAL="2774" NAME="?SetVertical@ScrollBar@DirectUI@@QEAAJ_N@Z" PURGE="0" COMMENT="" />
    <EXPORT ORDINAL="2775" NAME="?SetVisible@Element@DirectUI@@QEAAJ_N@Z" PURGE="0" COMMENT="" />
    <EXPORT ORDINAL="2776" NAME="?SetWantTabs@Edit@DirectUI@@QEAAJ_N@Z" PURGE="0" COMMENT="" />
    <EXPORT ORDINAL="2777" NAME="?SetWidth@Element@DirectUI@@QEAAJH@Z" PURGE="0" COMMENT="" />
    <EXPORT ORDINAL="2778" NAME="?SetWinStyle@CCBase@DirectUI@@QEAAJH@Z" PURGE="0" COMMENT="" />
    <EXPORT ORDINAL="2779" NAME="?SetWindowActive@Element@DirectUI@@QEAAJ_N@Z" PURGE="0" COMMENT="" />
    <EXPORT ORDINAL="2780" NAME="?SetWindowDirection@HWNDHost@DirectUI@@UEAAXPEAUHWND__@@@Z" PURGE="-1" COMMENT="" />
    <EXPORT ORDINAL="2781" NAME="?SetWrapKeyboardNavigate@HWNDElement@DirectUI@@QEAAJ_N@Z" PURGE="0" COMMENT="" />
    <EXPORT ORDINAL="2782" NAME="?SetX@Element@DirectUI@@QEAAJH@Z" PURGE="0" COMMENT="" />
    <EXPORT ORDINAL="2783" NAME="?SetXBarVisibility@BaseScrollViewer@DirectUI@@QEAAJH@Z" PURGE="0" COMMENT="" />
    <EXPORT ORDINAL="2784" NAME="?SetXML@DUIXmlParser@DirectUI@@QEAAJPEBGPEAUHINSTANCE__@@1@Z" PURGE="0" COMMENT="" />
    <EXPORT ORDINAL="2785" NAME="?SetXMLFromResource@DUIXmlParser@DirectUI@@QEAAJIPEAUHINSTANCE__@@0@Z" PURGE="0" COMMENT="" />
    <EXPORT ORDINAL="2786" NAME="?SetXMLFromResource@DUIXmlParser@DirectUI@@QEAAJPEBGPEAUHINSTANCE__@@1@Z" PURGE="0" COMMENT="" />
    <EXPORT ORDINAL="2787" NAME="?SetXOffset@BaseScrollViewer@DirectUI@@QEAAJH@Z" PURGE="0" COMMENT="" />
    <EXPORT ORDINAL="2788" NAME="?SetXOffset@Viewer@DirectUI@@QEAAJH@Z" PURGE="0" COMMENT="" />
    <EXPORT ORDINAL="2789" NAME="?SetXScrollable@BaseScrollViewer@DirectUI@@QEAAJ_N@Z" PURGE="0" COMMENT="" />
    <EXPORT ORDINAL="2790" NAME="?SetXScrollable@Viewer@DirectUI@@QEAAJ_N@Z" PURGE="0" COMMENT="" />
    <EXPORT ORDINAL="2791" NAME="?SetY@Element@DirectUI@@QEAAJH@Z" PURGE="0" COMMENT="" />
    <EXPORT ORDINAL="2792" NAME="?SetYBarVisibility@BaseScrollViewer@DirectUI@@QEAAJH@Z" PURGE="0" COMMENT="" />
    <EXPORT ORDINAL="2793" NAME="?SetYOffset@BaseScrollViewer@DirectUI@@QEAAJH@Z" PURGE="0" COMMENT="" />
    <EXPORT ORDINAL="2794" NAME="?SetYOffset@Viewer@DirectUI@@QEAAJH@Z" PURGE="0" COMMENT="" />
    <EXPORT ORDINAL="2795" NAME="?SetYScrollable@BaseScrollViewer@DirectUI@@QEAAJ_N@Z" PURGE="0" COMMENT="" />
    <EXPORT ORDINAL="2796" NAME="?SetYScrollable@Viewer@DirectUI@@QEAAJ_N@Z" PURGE="0" COMMENT="" />
    <EXPORT ORDINAL="2797" NAME="?ShadowIntensityProp@Element@DirectUI@@SAPEBUPropertyInfo@2@XZ" PURGE="0" COMMENT="" />
    <EXPORT ORDINAL="2798" NAME="?SheetProp@Element@DirectUI@@SAPEBUPropertyInfo@2@XZ" PURGE="0" COMMENT="" />
    <EXPORT ORDINAL="2799" NAME="?ShortcutProp@Element@DirectUI@@SAPEBUPropertyInfo@2@XZ" PURGE="0" COMMENT="" />
    <EXPORT ORDINAL="2800" NAME="?ShowAccel@HWNDElement@DirectUI@@QEAA_NXZ" PURGE="0" COMMENT="" />
    <EXPORT ORDINAL="2801" NAME="?ShowFocus@HWNDElement@DirectUI@@QEAA_NXZ" PURGE="0" COMMENT="" />
    <EXPORT ORDINAL="2802" NAME="?ShowUIState@HWNDElement@DirectUI@@QEAAX_N0@Z" PURGE="0" COMMENT="" />
    <EXPORT ORDINAL="2803" NAME="?ShowWindow@NativeHWNDHost@DirectUI@@QEAAXH@Z" PURGE="0" COMMENT="" />
    <EXPORT ORDINAL="2804" NAME="?ShowWindow@XHost@DirectUI@@QEAAXH@Z" PURGE="-1" COMMENT="" />
    <EXPORT ORDINAL="2805" NAME="?SideGraphicProp@TextGraphic@DirectUI@@SAPEBUPropertyInfo@2@XZ" PURGE="0" COMMENT="" />
    <EXPORT ORDINAL="2806" NAME="?SizeInLayoutProp@Element@DirectUI@@SAPEBUPropertyInfo@2@XZ" PURGE="0" COMMENT="" />
    <EXPORT ORDINAL="2807" NAME="?SizeZero@VerticalFlowLayout@DirectUI@@KA?AUtagSIZE@@XZ" PURGE="0" COMMENT="" />
    <EXPORT ORDINAL="2808" NAME="?SizeZero@FlowLayout@DirectUI@@KA?AUtagSIZE@@XZ" PURGE="0" COMMENT="" />
    <EXPORT ORDINAL="2809" NAME="?_OnGetInfoTip@CCTreeView@DirectUI@@MEAAJPEBUtagNMTVGETINFOTIPW@@@Z" PURGE="0" COMMENT="" />
    <EXPORT ORDINAL="2810" NAME="?Skip@HWNDHostAccessible@DirectUI@@UEAAJK@Z" PURGE="0" COMMENT="" />
    <EXPORT ORDINAL="2811" NAME="?SliderControlType@Schema@DirectUI@@2HA" PURGE="-1" COMMENT="" />
    <EXPORT ORDINAL="2812" NAME="?SmoothingModeProp@Movie@DirectUI@@SAPEBUPropertyInfo@2@XZ" PURGE="0" COMMENT="" />
    <EXPORT ORDINAL="2813" NAME="?SortChildren@Element@DirectUI@@QEAAJP6AHPEBX0@Z@Z" PURGE="0" COMMENT="" />
    <EXPORT ORDINAL="2814" NAME="?SpinnerControlType@Schema@DirectUI@@2HA" PURGE="-1" COMMENT="" />
    <EXPORT ORDINAL="2815" NAME="?SplitButtonControlType@Schema@DirectUI@@2HA" PURGE="-1" COMMENT="" />
    <EXPORT ORDINAL="2816" NAME="?Start@AnimationStrip@DirectUI@@AEAAJXZ" PURGE="0" COMMENT="" />
    <EXPORT ORDINAL="2817" NAME="?StartDefer@Element@DirectUI@@QEAAXPEAK@Z" PURGE="0" COMMENT="" />
    <EXPORT ORDINAL="2818" NAME="?StartNavigate@Browser@DirectUI@@SA?AVUID@@XZ" PURGE="0" COMMENT="" />
    <EXPORT ORDINAL="2819" NAME="?StaticWndProc@HWNDElement@DirectUI@@SA_JPEAUHWND__@@I_K_J@Z" PURGE="0" COMMENT="" />
    <EXPORT ORDINAL="2820" NAME="?StaticXHostSubclassProc@TaskPage@DirectUI@@CA_JPEAUHWND__@@I_K_J@Z" PURGE="0" COMMENT="" />
    <EXPORT ORDINAL="2821" NAME="?_SelfLayoutDoLayout@Element@DirectUI@@MEAAXHH@Z" PURGE="0" COMMENT="" />
    <EXPORT ORDINAL="2822" NAME="?StatusBarControlType@Schema@DirectUI@@2HA" PURGE="-1" COMMENT="" />
    <EXPORT ORDINAL="2823" NAME="?Stop@AnimationStrip@DirectUI@@AEAAXXZ" PURGE="0" COMMENT="" />
    <EXPORT ORDINAL="2824" NAME="?Stop@CCAVI@DirectUI@@QEAAXXZ" PURGE="-1" COMMENT="" />
    <EXPORT ORDINAL="2825" NAME="?StopAnimation@Element@DirectUI@@QEAAXI@Z" PURGE="0" COMMENT="" />
    <EXPORT ORDINAL="2826" NAME="?StrDupW@Value@DirectUI@@CAJPEBGPEAPEAG@Z" PURGE="0" COMMENT="" />
    <EXPORT ORDINAL="2827" NAME="?StructureChangedEvent@Schema@DirectUI@@2HA" PURGE="-1" COMMENT="" />
    <EXPORT ORDINAL="2828" NAME="?SyncBackground@HWNDHost@DirectUI@@IEAAXXZ" PURGE="0" COMMENT="" />
    <EXPORT ORDINAL="2829" NAME="?SyncCallback@Proxy@DirectUI@@SAJPEAUHGADGET__@@PEAXPEAUEventMsg@@@Z" PURGE="0" COMMENT="" />
    <EXPORT ORDINAL="2830" NAME="?SyncColorsAndFonts@HWNDHost@DirectUI@@AEAAXXZ" PURGE="0" COMMENT="" />
    <EXPORT ORDINAL="2831" NAME="?SyncDirection@HWNDHost@DirectUI@@IEAAXXZ" PURGE="0" COMMENT="" />
    <EXPORT ORDINAL="2832" NAME="?SyncFont@HWNDHost@DirectUI@@IEAAXXZ" PURGE="0" COMMENT="" />
    <EXPORT ORDINAL="2833" NAME="?SyncForeground@HWNDHost@DirectUI@@IEAAXXZ" PURGE="0" COMMENT="" />
    <EXPORT ORDINAL="2834" NAME="?SyncNoteAndGlyph@CCCommandLink@DirectUI@@IEAAXPEAUHWND__@@@Z" PURGE="0" COMMENT="" />
    <EXPORT ORDINAL="2835" NAME="?SyncStyle@HWNDHost@DirectUI@@IEAAXXZ" PURGE="0" COMMENT="" />
    <EXPORT ORDINAL="2836" NAME="?SyncRect@HWNDHost@DirectUI@@IEAAXI_N@Z" PURGE="0" COMMENT="" />
    <EXPORT ORDINAL="2837" NAME="?SyncScrollBar@CCBaseScrollBar@DirectUI@@QEAAXXZ" PURGE="0" COMMENT="" />
    <EXPORT ORDINAL="2838" NAME="?SyncParent@HWNDHost@DirectUI@@IEAAXXZ" PURGE="0" COMMENT="" />
    <EXPORT ORDINAL="2839" NAME="?SyncText@HWNDHost@DirectUI@@IEAAXXZ" PURGE="0" COMMENT="" />
    <EXPORT ORDINAL="2840" NAME="?SyncVisible@HWNDHost@DirectUI@@IEAAXXZ" PURGE="0" COMMENT="" />
    <EXPORT ORDINAL="2841" NAME="?TabControlType@Schema@DirectUI@@2HA" PURGE="-1" COMMENT="" />
    <EXPORT ORDINAL="2842" NAME="?TabItemControlType@Schema@DirectUI@@2HA" PURGE="-1" COMMENT="" />
    <EXPORT ORDINAL="2843" NAME="?TableControlType@Schema@DirectUI@@2HA" PURGE="-1" COMMENT="" />
    <EXPORT ORDINAL="2844" NAME="?TableItemPattern@Schema@DirectUI@@2HA" PURGE="-1" COMMENT="" />
    <EXPORT ORDINAL="2845" NAME="?TableItem_ColumnHeaderItems_Property@Schema@DirectUI@@2HA" PURGE="-1" COMMENT="" />
    <EXPORT ORDINAL="2846" NAME="?TableItem_RowHeaderItems_Property@Schema@DirectUI@@2HA" PURGE="-1" COMMENT="" />
    <EXPORT ORDINAL="2847" NAME="?TablePattern@Schema@DirectUI@@2HA" PURGE="-1" COMMENT="" />
    <EXPORT ORDINAL="2848" NAME="?Table_ColumnHeaders_Property@Schema@DirectUI@@2HA" PURGE="-1" COMMENT="" />
    <EXPORT ORDINAL="2849" NAME="?Table_RowHeaders_Property@Schema@DirectUI@@2HA" PURGE="-1" COMMENT="" />
    <EXPORT ORDINAL="2850" NAME="?Table_RowOrColumnMajor_Property@Schema@DirectUI@@2HA" PURGE="-1" COMMENT="" />
    <EXPORT ORDINAL="2851" NAME="?TargetPageProp@Navigator@DirectUI@@SAPEBUPropertyInfo@2@XZ" PURGE="0" COMMENT="" />
    <EXPORT ORDINAL="2852" NAME="?TestDeferObject@Element@DirectUI@@QEAAPEAVDeferCycle@2@XZ" PURGE="0" COMMENT="" />
    <EXPORT ORDINAL="2853" NAME="?TextControlType@Schema@DirectUI@@2HA" PURGE="-1" COMMENT="" />
    <EXPORT ORDINAL="2854" NAME="?TextGlowSizeProp@Element@DirectUI@@SAPEBUPropertyInfo@2@XZ" PURGE="0" COMMENT="" />
    <EXPORT ORDINAL="2855" NAME="?TextPattern@Schema@DirectUI@@2HA" PURGE="-1" COMMENT="" />
    <EXPORT ORDINAL="2856" NAME="?TextTextSelectionChangedEvent@Schema@DirectUI@@2HA" PURGE="-1" COMMENT="" />
    <EXPORT ORDINAL="2857" NAME="?ThemeChange@HWNDElement@DirectUI@@SA?AVUID@@XZ" PURGE="0" COMMENT="" />
    <EXPORT ORDINAL="2858" NAME="?ThemeChangedProp@HWNDHost@DirectUI@@SAPEBUPropertyInfo@2@XZ" PURGE="0" COMMENT="" />
    <EXPORT ORDINAL="2859" NAME="?ThemedBorderProp@Edit@DirectUI@@SAPEBUPropertyInfo@2@XZ" PURGE="0" COMMENT="" />
    <EXPORT ORDINAL="2860" NAME="?ThumbControlType@Schema@DirectUI@@2HA" PURGE="-1" COMMENT="" />
    <EXPORT ORDINAL="2861" NAME="?ThumbPositionProp@CCTrackBar@DirectUI@@SAPEBUPropertyInfo@2@XZ" PURGE="0" COMMENT="" />
    <EXPORT ORDINAL="2862" NAME="?TitleBarControlType@Schema@DirectUI@@2HA" PURGE="-1" COMMENT="" />
    <EXPORT ORDINAL="2863" NAME="?ToString@Value@DirectUI@@QEBAPEAGPEAGI@Z" PURGE="0" COMMENT="" />
    <EXPORT ORDINAL="2864" NAME="?Toggle@AutoButton@DirectUI@@SA?AVUID@@XZ" PURGE="0" COMMENT="" />
    <EXPORT ORDINAL="2865" NAME="?Toggle@ToggleProvider@DirectUI@@UEAAJXZ" PURGE="0" COMMENT="" />
    <EXPORT ORDINAL="2866" NAME="?TogglePattern@Schema@DirectUI@@2HA" PURGE="-1" COMMENT="" />
    <EXPORT ORDINAL="2867" NAME="?ToggleUIState@HWNDElement@DirectUI@@QEAAX_N0@Z" PURGE="0" COMMENT="" />
    <EXPORT ORDINAL="2868" NAME="?Toggle_ToggleState_Property@Schema@DirectUI@@2HA" PURGE="-1" COMMENT="" />
    <EXPORT ORDINAL="2869" NAME="?ToolBarControlType@Schema@DirectUI@@2HA" PURGE="-1" COMMENT="" />
    <EXPORT ORDINAL="2870" NAME="?ToolTipClosedEvent@Schema@DirectUI@@2HA" PURGE="-1" COMMENT="" />
    <EXPORT ORDINAL="2871" NAME="?ToolTipControlType@Schema@DirectUI@@2HA" PURGE="-1" COMMENT="" />
    <EXPORT ORDINAL="2872" NAME="?ToolTipOpenedEvent@Schema@DirectUI@@2HA" PURGE="-1" COMMENT="" />
    <EXPORT ORDINAL="2873" NAME="?TooltipMaxWidthProp@Element@DirectUI@@SAPEBUPropertyInfo@2@XZ" PURGE="0" COMMENT="" />
    <EXPORT ORDINAL="2874" NAME="?TooltipProp@Element@DirectUI@@SAPEBUPropertyInfo@2@XZ" PURGE="0" COMMENT="" />
    <EXPORT ORDINAL="2875" NAME="?TossElement@ElementProvider@DirectUI@@QEAAXXZ" PURGE="0" COMMENT="" />
    <EXPORT ORDINAL="2876" NAME="?TossPatternProvider@ElementProvider@DirectUI@@QEAAXW4Pattern@Schema@2@@Z" PURGE="-1" COMMENT="" />
    <EXPORT ORDINAL="2877" NAME="?TrackScore@NavScoring@DirectUI@@QEAAHPEAVElement@2@0@Z" PURGE="0" COMMENT="" />
    <EXPORT ORDINAL="2878" NAME="?TrackingProp@CCBaseScrollBar@DirectUI@@SAPEBUPropertyInfo@2@XZ" PURGE="0" COMMENT="" />
    <EXPORT ORDINAL="2879" NAME="?TransformPattern@Schema@DirectUI@@2HA" PURGE="-1" COMMENT="" />
    <EXPORT ORDINAL="2880" NAME="?TransparentProp@HWNDHost@DirectUI@@SAPEBUPropertyInfo@2@XZ" PURGE="0" COMMENT="" />
    <EXPORT ORDINAL="2881" NAME="?TreeControlType@Schema@DirectUI@@2HA" PURGE="-1" COMMENT="" />
    <EXPORT ORDINAL="2882" NAME="?TreeItemControlType@Schema@DirectUI@@2HA" PURGE="-1" COMMENT="" />
    <EXPORT ORDINAL="2883" NAME="?Try@NavScoring@DirectUI@@QEAAHPEAVElement@2@HPEBUNavReference@2@K@Z" PURGE="0" COMMENT="" />
    <EXPORT ORDINAL="2884" NAME="?TryLinePattern@Element@DirectUI@@AEAA_NPEAUtagPOINT@@AEBUtagRECT@@@Z" PURGE="0" COMMENT="" />
    <EXPORT ORDINAL="2885" NAME="?TryPattern@Element@DirectUI@@AEAA_NNNPEAUtagPOINT@@AEBUtagRECT@@@Z" PURGE="0" COMMENT="" />
    <EXPORT ORDINAL="2886" NAME="?TrySparsePattern@Element@DirectUI@@AEAA_NPEAUtagPOINT@@AEBUtagRECT@@@Z" PURGE="0" COMMENT="" />
    <EXPORT ORDINAL="2887" NAME="?UiaEvents@Element@DirectUI@@QEAA_NXZ" PURGE="0" COMMENT="" />
    <EXPORT ORDINAL="2888" NAME="?UiaHostProviderFromHwnd@Schema@DirectUI@@2P6AJPEAUHWND__@@PEAPEAUIRawElementProviderSimple@@@ZEA" PURGE="-1" COMMENT="" />
    <EXPORT ORDINAL="2889" NAME="?UiaLookupId@Schema@DirectUI@@2P6AHW4AutomationIdentifierType@@PEBU_GUID@@@ZEA" PURGE="-1" COMMENT="" />
    <EXPORT ORDINAL="2890" NAME="?UiaRaiseAutomationEvent@Schema@DirectUI@@2P6AJPEAUIRawElementProviderSimple@@H@ZEA" PURGE="-1" COMMENT="" />
    <EXPORT ORDINAL="2891" NAME="?UiaRaiseAutomationPropertyChangedEvent@Schema@DirectUI@@2P6AJPEAUIRawElementProviderSimple@@HUtagVARIANT@@1@ZEA" PURGE="-1" COMMENT="" />
    <EXPORT ORDINAL="2892" NAME="?UiaRaiseStructureChangedEvent@Schema@DirectUI@@2P6AJPEAUIRawElementProviderSimple@@W4StructureChangeType@@PEAHH@ZEA" PURGE="-1" COMMENT="" />
    <EXPORT ORDINAL="2893" NAME="?UiaReturnRawElementProvider@Schema@DirectUI@@2P6A_JPEAUHWND__@@_K_JPEAUIRawElementProviderSimple@@@ZEA" PURGE="-1" COMMENT="" />
    <EXPORT ORDINAL="2894" NAME="?UnRegister@Element@DirectUI@@SAJPEAPEAUIClassInfo@2@@Z" PURGE="0" COMMENT="" />
    <EXPORT ORDINAL="2895" NAME="?UnhandledSyschar@XElement@DirectUI@@SA?AVUID@@XZ" PURGE="0" COMMENT="" />
    <EXPORT ORDINAL="2896" NAME="?Uninit@CallstackTracker@DirectUI@@SAXXZ" PURGE="0" COMMENT="" />
    <EXPORT ORDINAL="2897" NAME="?Uninit@InvokeHelper@DirectUI@@QEAAXXZ" PURGE="0" COMMENT="" />
    <EXPORT ORDINAL="2898" NAME="?UninitProcess@FontCache@DirectUI@@SAXXZ" PURGE="0" COMMENT="" />
    <EXPORT ORDINAL="2899" NAME="?UninitThread@FontCache@DirectUI@@SAXXZ" PURGE="0" COMMENT="" />
    <EXPORT ORDINAL="2900" NAME="?UnloadCommonControlExports@AnimationStrip@DirectUI@@AEAAXXZ" PURGE="0" COMMENT="" />
    <EXPORT ORDINAL="2901" NAME="??1CritSecLock@DirectUI@@QEAA@XZ" PURGE="0" COMMENT="" />
    <EXPORT ORDINAL="2902" NAME="?UnvirtualizePosition@HWNDHost@DirectUI@@AEAAXXZ" PURGE="0" COMMENT="" />
    <EXPORT ORDINAL="2903" NAME="?UpdateChildFocus@DialogElement@DirectUI@@UEAAXPEAVElement@2@0@Z" PURGE="-1" COMMENT="" />
    <EXPORT ORDINAL="2904" NAME="?UpdateChildren@Expando@DirectUI@@IEAAXPEAVValue@2@@Z" PURGE="0" COMMENT="" />
    <EXPORT ORDINAL="2905" NAME="?UpdateDesiredSize@BorderLayout@DirectUI@@UEAA?AUtagSIZE@@PEAVElement@2@HHPEAVSurface@2@@Z" PURGE="0" COMMENT="" />
    <EXPORT ORDINAL="2906" NAME="?UpdateDesiredSize@FillLayout@DirectUI@@UEAA?AUtagSIZE@@PEAVElement@2@HHPEAVSurface@2@@Z" PURGE="0" COMMENT="" />
    <EXPORT ORDINAL="2907" NAME="?UpdateDesiredSize@FlowLayout@DirectUI@@UEAA?AUtagSIZE@@PEAVElement@2@HHPEAVSurface@2@@Z" PURGE="0" COMMENT="" />
    <EXPORT ORDINAL="2908" NAME="?UpdateDesiredSize@GridLayout@DirectUI@@UEAA?AUtagSIZE@@PEAVElement@2@HHPEAVSurface@2@@Z" PURGE="0" COMMENT="" />
    <EXPORT ORDINAL="2909" NAME="?UpdateDesiredSize@Layout@DirectUI@@UEAA?AUtagSIZE@@PEAVElement@2@HHPEAVSurface@2@@Z" PURGE="0" COMMENT="" />
    <EXPORT ORDINAL="2910" NAME="?UpdateDesiredSize@NineGridLayout@DirectUI@@UEAA?AUtagSIZE@@PEAVElement@2@HHPEAVSurface@2@@Z" PURGE="0" COMMENT="" />
    <EXPORT ORDINAL="2911" NAME="?UpdateDesiredSize@RowLayout@DirectUI@@UEAA?AUtagSIZE@@PEAVElement@2@HHPEAVSurface@2@@Z" PURGE="0" COMMENT="" />
    <EXPORT ORDINAL="2912" NAME="?UpdateDesiredSize@TableLayout@DirectUI@@UEAA?AUtagSIZE@@PEAVElement@2@HHPEAVSurface@2@@Z" PURGE="0" COMMENT="" />
    <EXPORT ORDINAL="2913" NAME="?UpdateDesiredSize@VerticalFlowLayout@DirectUI@@UEAA?AUtagSIZE@@PEAVElement@2@HHPEAVSurface@2@@Z" PURGE="0" COMMENT="" />
    <EXPORT ORDINAL="2914" NAME="?UpdateLayout@Element@DirectUI@@QEAAXXZ" PURGE="0" COMMENT="" />
    <EXPORT ORDINAL="2915" NAME="?UpdateLayoutRect@Layout@DirectUI@@SAXPEAVElement@2@HH0HHHH@Z" PURGE="0" COMMENT="" />
    <EXPORT ORDINAL="2916" NAME="?UpdateSheets@DUIXmlParser@DirectUI@@QEAAJPEAVElement@2@@Z" PURGE="0" COMMENT="" />
    <EXPORT ORDINAL="2917" NAME="?UpdateTooltip@Element@DirectUI@@MEAAXPEAV12@@Z" PURGE="0" COMMENT="" />
    <EXPORT ORDINAL="2918" NAME="?UpdateTooltip@HWNDElement@DirectUI@@UEAAXPEAVElement@2@@Z" PURGE="0" COMMENT="" />
    <EXPORT ORDINAL="2919" NAME="?ValuePattern@Schema@DirectUI@@2HA" PURGE="-1" COMMENT="" />
    <EXPORT ORDINAL="2920" NAME="?Value_IsReadOnly_Property@Schema@DirectUI@@2HA" PURGE="-1" COMMENT="" />
    <EXPORT ORDINAL="2921" NAME="?Value_Value_Property@Schema@DirectUI@@2HA" PURGE="-1" COMMENT="" />
    <EXPORT ORDINAL="2922" NAME="?VerifyParentage@HWNDHost@DirectUI@@IEAAHXZ" PURGE="0" COMMENT="" />
    <EXPORT ORDINAL="2923" NAME="?VerticalProp@ScrollBar@DirectUI@@SAPEBUPropertyInfo@2@XZ" PURGE="0" COMMENT="" />
    <EXPORT ORDINAL="2924" NAME="?VirtualizedItemPattern@Schema@DirectUI@@2HA" PURGE="-1" COMMENT="" />
    <EXPORT ORDINAL="2925" NAME="?VisibleProp@Element@DirectUI@@SAPEBUPropertyInfo@2@XZ" PURGE="0" COMMENT="" />
    <EXPORT ORDINAL="2926" NAME="?WantEvent@EventManager@DirectUI@@CA_NW4Event@Schema@2@H@Z" PURGE="0" COMMENT="" />
    <EXPORT ORDINAL="2927" NAME="?WantEvent@EventManager@DirectUI@@SA_NW4Event@Schema@2@@Z" PURGE="0" COMMENT="" />
    <EXPORT ORDINAL="2928" NAME="?WantPropertyEvent@EventManager@DirectUI@@SA_NH@Z" PURGE="0" COMMENT="" />
    <EXPORT ORDINAL="2929" NAME="?WantTabsProp@Edit@DirectUI@@SAPEBUPropertyInfo@2@XZ" PURGE="0" COMMENT="" />
    <EXPORT ORDINAL="2930" NAME="?WidthProp@Element@DirectUI@@SAPEBUPropertyInfo@2@XZ" PURGE="0" COMMENT="" />
    <EXPORT ORDINAL="2931" NAME="?WinStyleProp@CCBase@DirectUI@@SAPEBUPropertyInfo@2@XZ" PURGE="0" COMMENT="" />
    <EXPORT ORDINAL="2932" NAME="?WindowActiveProp@Element@DirectUI@@SAPEBUPropertyInfo@2@XZ" PURGE="0" COMMENT="" />
    <EXPORT ORDINAL="2933" NAME="?WindowControlType@Schema@DirectUI@@2HA" PURGE="-1" COMMENT="" />
    <EXPORT ORDINAL="2934" NAME="?WindowPattern@Schema@DirectUI@@2HA" PURGE="-1" COMMENT="" />
    <EXPORT ORDINAL="2935" NAME="?WindowWindowClosedEvent@Schema@DirectUI@@2HA" PURGE="-1" COMMENT="" />
    <EXPORT ORDINAL="2936" NAME="?WindowWindowOpenedEvent@Schema@DirectUI@@2HA" PURGE="-1" COMMENT="" />
    <EXPORT ORDINAL="2937" NAME="?WndProc@HWNDElement@DirectUI@@UEAA_JPEAUHWND__@@I_K_J@Z" PURGE="0" COMMENT="" />
    <EXPORT ORDINAL="2938" NAME="?WndProc@NativeHWNDHost@DirectUI@@SA_JPEAUHWND__@@I_K_J@Z" PURGE="0" COMMENT="" />
    <EXPORT ORDINAL="2939" NAME="?WndProc@XHost@DirectUI@@SA_JPEAUHWND__@@I_K_J@Z" PURGE="-1" COMMENT="" />
    <EXPORT ORDINAL="2940" NAME="?WrapKeyboardNavigateProp@HWNDElement@DirectUI@@SAPEBUPropertyInfo@2@XZ" PURGE="0" COMMENT="" />
    <EXPORT ORDINAL="2941" NAME="?XBarVisibilityProp@BaseScrollViewer@DirectUI@@SAPEBUPropertyInfo@2@XZ" PURGE="0" COMMENT="" />
    <EXPORT ORDINAL="2942" NAME="?XOffsetProp@BaseScrollViewer@DirectUI@@SAPEBUPropertyInfo@2@XZ" PURGE="0" COMMENT="" />
    <EXPORT ORDINAL="2943" NAME="?XOffsetProp@Viewer@DirectUI@@SAPEBUPropertyInfo@2@XZ" PURGE="0" COMMENT="" />
    <EXPORT ORDINAL="2944" NAME="?XProp@Element@DirectUI@@SAPEBUPropertyInfo@2@XZ" PURGE="0" COMMENT="" />
    <EXPORT ORDINAL="2945" NAME="?XScrollableProp@BaseScrollViewer@DirectUI@@SAPEBUPropertyInfo@2@XZ" PURGE="0" COMMENT="" />
    <EXPORT ORDINAL="2946" NAME="?XScrollableProp@Viewer@DirectUI@@SAPEBUPropertyInfo@2@XZ" PURGE="0" COMMENT="" />
    <EXPORT ORDINAL="2947" NAME="?YBarVisibilityProp@BaseScrollViewer@DirectUI@@SAPEBUPropertyInfo@2@XZ" PURGE="0" COMMENT="" />
    <EXPORT ORDINAL="2948" NAME="?YOffsetProp@BaseScrollViewer@DirectUI@@SAPEBUPropertyInfo@2@XZ" PURGE="0" COMMENT="" />
    <EXPORT ORDINAL="2949" NAME="?YOffsetProp@Viewer@DirectUI@@SAPEBUPropertyInfo@2@XZ" PURGE="0" COMMENT="" />
    <EXPORT ORDINAL="2950" NAME="?YProp@Element@DirectUI@@SAPEBUPropertyInfo@2@XZ" PURGE="0" COMMENT="" />
    <EXPORT ORDINAL="2951" NAME="?YScrollableProp@BaseScrollViewer@DirectUI@@SAPEBUPropertyInfo@2@XZ" PURGE="0" COMMENT="" />
    <EXPORT ORDINAL="2952" NAME="?YScrollableProp@Viewer@DirectUI@@SAPEBUPropertyInfo@2@XZ" PURGE="0" COMMENT="" />
    <EXPORT ORDINAL="2953" NAME="?_AddDependency@Element@DirectUI@@SAXPEAV12@PEBUPropertyInfo@2@HPEAUDepRecs@2@PEAVDeferCycle@2@PEAJ@Z" PURGE="0" COMMENT="" />
    <EXPORT ORDINAL="2954" NAME="?_BroadcastEventWorker@Element@DirectUI@@AEAAXPEAUEvent@2@@Z" PURGE="0" COMMENT="" />
    <EXPORT ORDINAL="2955" NAME="?_CachedValueIsEqual@Element@DirectUI@@AEAAHPEBUPropertyInfo@2@PEAV12@@Z" PURGE="0" COMMENT="" />
    <EXPORT ORDINAL="2956" NAME="?_CalcTabOrder@ShellBorderLayout@DirectUI@@AEAAJPEAVElement@2@@Z" PURGE="0" COMMENT="" />
    <EXPORT ORDINAL="2957" NAME="?_ClearNeedsLayout@Element@DirectUI@@QEAAXXZ" PURGE="0" COMMENT="" />
    <EXPORT ORDINAL="2958" NAME="?_CtrlWndProc@HWNDHost@DirectUI@@CAHPEAXPEAUHWND__@@I_K_JPEA_J@Z" PURGE="0" COMMENT="" />
    <EXPORT ORDINAL="2959" NAME="?_DeleteCtrlWnd@HWNDHost@DirectUI@@AEAAXXZ" PURGE="0" COMMENT="" />
    <EXPORT ORDINAL="2960" NAME="?_DestroyTables@DUIXmlParser@DirectUI@@QEAAXXZ" PURGE="0" COMMENT="" />
    <EXPORT ORDINAL="2961" NAME="?_DisplayNodeCallback@Element@DirectUI@@SAJPEAUHGADGET__@@PEAXPEAUEventMsg@@@Z" PURGE="0" COMMENT="" />
    <EXPORT ORDINAL="2962" NAME="?_EndOptimizedLayoutQ@Element@DirectUI@@QEAAXXZ" PURGE="0" COMMENT="" />
    <EXPORT ORDINAL="2963" NAME="?_EnterOnCurrentThread@DUIXmlParser@DirectUI@@IEAAJXZ" PURGE="0" COMMENT="" />
    <EXPORT ORDINAL="2964" NAME="?_FlushDS@Element@DirectUI@@AEAAXPEAVDeferCycle@2@@Z" PURGE="0" COMMENT="" />
    <EXPORT ORDINAL="2965" NAME="?_FlushLayout@Element@DirectUI@@KAXPEAV12@PEAVDeferCycle@2@@Z" PURGE="0" COMMENT="" />
    <EXPORT ORDINAL="2966" NAME="?_GetBuriedSheetDependencies@Element@DirectUI@@AEAAXPEBUPropertyInfo@2@PEAV12@PEAUDepRecs@2@PEAVDeferCycle@2@PEAJ@Z" PURGE="0" COMMENT="" />
    <EXPORT ORDINAL="2967" NAME="?_GetChangesUpdatePass@Element@DirectUI@@QEAAHXZ" PURGE="0" COMMENT="" />
    <EXPORT ORDINAL="2968" NAME="?_GetComputedValue@Element@DirectUI@@AEAAPEAVValue@2@PEBUPropertyInfo@2@PEAUUpdateCache@2@@Z" PURGE="0" COMMENT="" />
    <EXPORT ORDINAL="2969" NAME="?_GetDependencies@Element@DirectUI@@AEAAJPEBUPropertyInfo@2@HPEAUDepRecs@2@HPEAVValue@2@PEAVDeferCycle@2@@Z" PURGE="0" COMMENT="" />
    <EXPORT ORDINAL="2970" NAME="?_GetLineInfo@DUIXmlParser@DirectUI@@IEAA?AULINEINFO@2@PEAUIXmlReader@@@Z" PURGE="0" COMMENT="" />
    <EXPORT ORDINAL="2971" NAME="?_GetLocalValue@Element@DirectUI@@AEAAPEAVValue@2@PEBUPropertyInfo@2@@Z" PURGE="0" COMMENT="" />
    <EXPORT ORDINAL="2972" NAME="?_GetLocalValueFromVM@Element@DirectUI@@AEAAPEAVValue@2@PEBUPropertyInfo@2@@Z" PURGE="0" COMMENT="" />
    <EXPORT ORDINAL="2973" NAME="?_GetNeedsLayout@Element@DirectUI@@QEAAIXZ" PURGE="0" COMMENT="" />
    <EXPORT ORDINAL="2974" NAME="?_GetSpecifiedValue@Element@DirectUI@@AEAAPEAVValue@2@PEBUPropertyInfo@2@PEAUUpdateCache@2@@Z" PURGE="0" COMMENT="" />
    <EXPORT ORDINAL="2975" NAME="?_GetSpecifiedValueIgnoreCache@Element@DirectUI@@AEAAPEAVValue@2@PEBUPropertyInfo@2@@Z" PURGE="0" COMMENT="" />
    <EXPORT ORDINAL="2976" NAME="?_InheritProperties@Element@DirectUI@@AEAAXXZ" PURGE="0" COMMENT="" />
    <EXPORT ORDINAL="2977" NAME="?_InitializeTables@DUIXmlParser@DirectUI@@QEAAJXZ" PURGE="0" COMMENT="" />
    <EXPORT ORDINAL="2978" NAME="?_InvalidateCachedDSConstraints@Element@DirectUI@@KAXPEAV12@@Z" PURGE="0" COMMENT="" />
    <EXPORT ORDINAL="2979" NAME="?_LeaveOnCurrentThread@DUIXmlParser@DirectUI@@IEAAXXZ" PURGE="0" COMMENT="" />
    <EXPORT ORDINAL="2980" NAME="?_MarkElementForDS@Element@DirectUI@@SAHPEAV12@@Z" PURGE="0" COMMENT="" />
    <EXPORT ORDINAL="2981" NAME="?_MarkElementForLayout@Element@DirectUI@@SAHPEAV12@I@Z" PURGE="0" COMMENT="" />
    <EXPORT ORDINAL="2982" NAME="?_OnFontPropChanged@Element@DirectUI@@IEAAXPEAVValue@2@@Z" PURGE="0" COMMENT="" />
    <EXPORT ORDINAL="2983" NAME="?_OnItemChanged@CCTreeView@DirectUI@@MEAAJPEBUtagTVITEMCHANGE@@@Z" PURGE="0" COMMENT="" />
    <EXPORT ORDINAL="2984" NAME="?get_accHelpTopic@DuiAccessible@DirectUI@@UEAAJPEAPEAGUtagVARIANT@@PEAJ@Z" PURGE="0" COMMENT="" />
    <EXPORT ORDINAL="2985" NAME="?_PostSourceChange@Element@DirectUI@@AEAAJXZ" PURGE="0" COMMENT="" />
    <EXPORT ORDINAL="2986" NAME="?_PreSourceChange@Element@DirectUI@@AEAAJP6APEBUPropertyInfo@2@XZHPEAVValue@2@1@Z" PURGE="0" COMMENT="" />
    <EXPORT ORDINAL="2987" NAME="?_PreSourceChange@Element@DirectUI@@AEAAJPEBUPropertyInfo@2@HPEAVValue@2@1@Z" PURGE="0" COMMENT="" />
    <EXPORT ORDINAL="2988" NAME="?_RecordElementLayout@DUIXmlParser@DirectUI@@IEAAJPEAUIXmlReader@@PEBG@Z" PURGE="0" COMMENT="" />
    <EXPORT ORDINAL="2989" NAME="?_RecordElementStyleSheet@DUIXmlParser@DirectUI@@IEAAJPEBG_N@Z" PURGE="0" COMMENT="" />
    <EXPORT ORDINAL="2990" NAME="?_RecordElementTrees@DUIXmlParser@DirectUI@@IEAAJPEAUIXmlReader@@@Z" PURGE="0" COMMENT="" />
    <EXPORT ORDINAL="2991" NAME="?_RecordElementWithChildren@DUIXmlParser@DirectUI@@IEAAJPEAUIXmlReader@@_NPEAPEAG@Z" PURGE="0" COMMENT="" />
    <EXPORT ORDINAL="2992" NAME="?_RecordInstantiateElement@DUIXmlParser@DirectUI@@IEAAJPEAUIXmlReader@@PEAPEAG@Z" PURGE="0" COMMENT="" />
    <EXPORT ORDINAL="2993" NAME="?_RecordSetElementProperties@DUIXmlParser@DirectUI@@IEAAJPEAUIXmlReader@@@Z" PURGE="0" COMMENT="" />
    <EXPORT ORDINAL="2994" NAME="?_RecordSetValue@DUIXmlParser@DirectUI@@IEAAJPEAUIXmlReader@@PEBG1@Z" PURGE="0" COMMENT="" />
    <EXPORT ORDINAL="2995" NAME="?_RemoveLocalValue@Element@DirectUI@@IEAAJP6APEBUPropertyInfo@2@XZ_N@Z" PURGE="0" COMMENT="" />
    <EXPORT ORDINAL="2996" NAME="?_RemoveLocalValue@Element@DirectUI@@IEAAJPEBUPropertyInfo@2@_N@Z" PURGE="0" COMMENT="" />
    <EXPORT ORDINAL="2997" NAME="?_RepeatButtonActionCallback@RepeatButton@DirectUI@@CAXPEAUGMA_ACTIONINFO@@@Z" PURGE="0" COMMENT="" />
    <EXPORT ORDINAL="2998" NAME="?_Reset@ShellBorderLayout@DirectUI@@AEAAXXZ" PURGE="0" COMMENT="" />
    <EXPORT ORDINAL="2999" NAME="?_SelfLayoutDoLayout@Clipper@DirectUI@@UEAAXHH@Z" PURGE="0" COMMENT="" />
    <EXPORT ORDINAL="3000" NAME="InitPreprocessor" PURGE="0" COMMENT="" />
    <EXPORT ORDINAL="3001" NAME="?_SelfLayoutDoLayout@ScrollBar@DirectUI@@UEAAXHH@Z" PURGE="0" COMMENT="" />
    <EXPORT ORDINAL="3002" NAME="?_SelfLayoutDoLayout@Viewer@DirectUI@@UEAAXHH@Z" PURGE="0" COMMENT="" />
    <EXPORT ORDINAL="3003" NAME="?_SelfLayoutUpdateDesiredSize@Clipper@DirectUI@@UEAA?AUtagSIZE@@HHPEAVSurface@2@@Z" PURGE="0" COMMENT="" />
    <EXPORT ORDINAL="3004" NAME="?GetContentSize@Progress@DirectUI@@UEAA?AUtagSIZE@@HHPEAVSurface@2@@Z" PURGE="0" COMMENT="" />
    <EXPORT ORDINAL="3005" NAME="?_SelfLayoutUpdateDesiredSize@ScrollBar@DirectUI@@UEAA?AUtagSIZE@@HHPEAVSurface@2@@Z" PURGE="0" COMMENT="" />
    <EXPORT ORDINAL="3006" NAME="?_SelfLayoutUpdateDesiredSize@Viewer@DirectUI@@UEAA?AUtagSIZE@@HHPEAVSurface@2@@Z" PURGE="0" COMMENT="" />
    <EXPORT ORDINAL="3007" NAME="?_SetGroupChanges@Element@DirectUI@@SA_NPEAV12@HPEAVDeferCycle@2@@Z" PURGE="0" COMMENT="" />
    <EXPORT ORDINAL="3008" NAME="?_SetNeedsLayout@Element@DirectUI@@QEAAHI@Z" PURGE="0" COMMENT="" />
    <EXPORT ORDINAL="3009" NAME="?_SetValue@Element@DirectUI@@IEAAJP6APEBUPropertyInfo@2@XZHPEAVValue@2@_N@Z" PURGE="0" COMMENT="" />
    <EXPORT ORDINAL="3010" NAME="?_SetValue@Element@DirectUI@@IEAAJPEBUPropertyInfo@2@HPEAVValue@2@_N@Z" PURGE="0" COMMENT="" />
    <EXPORT ORDINAL="3011" NAME="?_SinkWndProc@HWNDHost@DirectUI@@CAHPEAXPEAUHWND__@@I_K_JPEA_J@Z" PURGE="0" COMMENT="" />
    <EXPORT ORDINAL="3012" NAME="?_StartOptimizedLayoutQ@Element@DirectUI@@QEAAXXZ" PURGE="0" COMMENT="" />
    <EXPORT ORDINAL="3013" NAME="?_SyncBackground@Element@DirectUI@@AEAAXXZ" PURGE="0" COMMENT="" />
    <EXPORT ORDINAL="3014" NAME="?_SyncRedrawStyle@Element@DirectUI@@AEAAXXZ" PURGE="0" COMMENT="" />
    <EXPORT ORDINAL="3015" NAME="?_SyncVisible@Element@DirectUI@@AEAAXXZ" PURGE="0" COMMENT="" />
    <EXPORT ORDINAL="3016" NAME="?_TransferGroupFlags@Element@DirectUI@@SAXPEAV12@H@Z" PURGE="0" COMMENT="" />
    <EXPORT ORDINAL="3017" NAME="?_UpdateDesiredSize@Element@DirectUI@@QEAA?AUtagSIZE@@HHPEAVSurface@2@@Z" PURGE="0" COMMENT="" />
    <EXPORT ORDINAL="3018" NAME="?_UpdateLayoutPosition@Element@DirectUI@@QEAAXHH@Z" PURGE="0" COMMENT="" />
    <EXPORT ORDINAL="3019" NAME="?_UpdateLayoutSize@Element@DirectUI@@QEAAXHH@Z" PURGE="0" COMMENT="" />
    <EXPORT ORDINAL="3020" NAME="?_UpdatePropertyInCache@Element@DirectUI@@AEAAXPEBUPropertyInfo@2@@Z" PURGE="0" COMMENT="" />
    <EXPORT ORDINAL="3021" NAME="?_UpdateTileList@NineGridLayout@DirectUI@@AEAAXHPEAVElement@2@@Z" PURGE="0" COMMENT="" />
    <EXPORT ORDINAL="3022" NAME="?_UsesUIAProxies@ElementProxy@DirectUI@@IEAAHXZ" PURGE="0" COMMENT="" />
    <EXPORT ORDINAL="3023" NAME="?_VoidPCNotifyTree@Element@DirectUI@@CAXHPEAVDeferCycle@2@@Z" PURGE="0" COMMENT="" />
    <EXPORT ORDINAL="3024" NAME="?_WndProc@InvokeHelper@DirectUI@@CAHPEAXPEAUHWND__@@I_K_JPEA_J@Z" PURGE="0" COMMENT="" />
    <EXPORT ORDINAL="3025" NAME="?_ZeroRelease@Value@DirectUI@@AEAAXXZ" PURGE="0" COMMENT="" />
    <EXPORT ORDINAL="3026" NAME="?_atmArrow@Expando@DirectUI@@0GA" PURGE="-1" COMMENT="" />
    <EXPORT ORDINAL="3027" NAME="?_atmClipper@Expando@DirectUI@@0GA" PURGE="-1" COMMENT="" />
    <EXPORT ORDINAL="3028" NAME="?_roleMapping@Schema@DirectUI@@0QBURoleMap@12@B" PURGE="-1" COMMENT="" />
    <EXPORT ORDINAL="3029" NAME="?accDoDefaultAction@DuiAccessible@DirectUI@@UEAAJUtagVARIANT@@@Z" PURGE="0" COMMENT="" />
    <EXPORT ORDINAL="3030" NAME="?accDoDefaultAction@HWNDHostAccessible@DirectUI@@UEAAJUtagVARIANT@@@Z" PURGE="0" COMMENT="" />
    <EXPORT ORDINAL="3031" NAME="?accHitTest@DuiAccessible@DirectUI@@UEAAJJJPEAUtagVARIANT@@@Z" PURGE="0" COMMENT="" />
    <EXPORT ORDINAL="3032" NAME="?accHitTest@HWNDHostAccessible@DirectUI@@UEAAJJJPEAUtagVARIANT@@@Z" PURGE="0" COMMENT="" />
    <EXPORT ORDINAL="3033" NAME="?accLocation@DuiAccessible@DirectUI@@UEAAJPEAJ000UtagVARIANT@@@Z" PURGE="0" COMMENT="" />
    <EXPORT ORDINAL="3034" NAME="?accLocation@HWNDHostAccessible@DirectUI@@UEAAJPEAJ000UtagVARIANT@@@Z" PURGE="0" COMMENT="" />
    <EXPORT ORDINAL="3035" NAME="?accNavigate@DuiAccessible@DirectUI@@UEAAJJUtagVARIANT@@PEAU3@@Z" PURGE="0" COMMENT="" />
    <EXPORT ORDINAL="3036" NAME="?accNavigate@HWNDHostAccessible@DirectUI@@UEAAJJUtagVARIANT@@PEAU3@@Z" PURGE="0" COMMENT="" />
    <EXPORT ORDINAL="3037" NAME="?accNavigate@HWNDHostClientAccessible@DirectUI@@UEAAJJUtagVARIANT@@PEAU3@@Z" PURGE="0" COMMENT="" />
    <EXPORT ORDINAL="3038" NAME="?accSelect@DuiAccessible@DirectUI@@UEAAJJUtagVARIANT@@@Z" PURGE="0" COMMENT="" />
    <EXPORT ORDINAL="3039" NAME="?accSelect@HWNDHostAccessible@DirectUI@@UEAAJJUtagVARIANT@@@Z" PURGE="0" COMMENT="" />
    <EXPORT ORDINAL="3040" NAME="?advanceFrameActionStart@Movie@DirectUI@@AEAAXXZ" PURGE="0" COMMENT="" />
    <EXPORT ORDINAL="3041" NAME="?advanceFrameActionStop@Movie@DirectUI@@AEAAXXZ" PURGE="0" COMMENT="" />
    <EXPORT ORDINAL="3042" NAME="?cChangeBulk@EventManager@DirectUI@@0HB" PURGE="-1" COMMENT="" />
    <EXPORT ORDINAL="3043" NAME="?c_rgar@AccessibleButton@DirectUI@@0QBUACCESSIBLEROLE@12@B" PURGE="-1" COMMENT="" />
    <EXPORT ORDINAL="3044" NAME="?doAction@Movie@DirectUI@@QEAAXPEAUGMA_ACTIONINFO@@@Z" PURGE="0" COMMENT="" />
    <EXPORT ORDINAL="3045" NAME="?g_cRefCount@ResourceModuleHandles@DirectUI@@0JC" PURGE="-1" COMMENT="" />
    <EXPORT ORDINAL="3046" NAME="?g_controlInfoTable@Schema@DirectUI@@0QBUControlInfo@12@B" PURGE="-1" COMMENT="" />
    <EXPORT ORDINAL="3047" NAME="?g_cs@ElementProviderManager@DirectUI@@2U_RTL_CRITICAL_SECTION@@A" PURGE="-1" COMMENT="" />
    <EXPORT ORDINAL="3048" NAME="?g_cs@EventManager@DirectUI@@0U_RTL_CRITICAL_SECTION@@A" PURGE="-1" COMMENT="" />
    <EXPORT ORDINAL="3049" NAME="?g_cs@InvokeManager@DirectUI@@0U_RTL_CRITICAL_SECTION@@A" PURGE="-1" COMMENT="" />
    <EXPORT ORDINAL="3050" NAME="?g_dwElSlot@DirectUI@@3KA" PURGE="-1" COMMENT="" />
    <EXPORT ORDINAL="3051" NAME="?g_eventInfoTable@Schema@DirectUI@@0QBUEventInfo@12@B" PURGE="-1" COMMENT="" />
    <EXPORT ORDINAL="3052" NAME="?g_eventMapping@Schema@DirectUI@@0QBUEventMap@12@B" PURGE="-1" COMMENT="" />
    <EXPORT ORDINAL="3053" NAME="?g_eventRegisteredMap@EventManager@DirectUI@@0PAIA" PURGE="-1" COMMENT="" />
    <EXPORT ORDINAL="3054" NAME="?g_fInited@Schema@DirectUI@@0_NA" PURGE="-1" COMMENT="" />
    <EXPORT ORDINAL="3055" NAME="?g_fWantAnyEvent@EventManager@DirectUI@@0_NA" PURGE="-1" COMMENT="" />
    <EXPORT ORDINAL="3056" NAME="?g_pArrayInvokeHelper@InvokeManager@DirectUI@@0PEAV?$UiaArray@PEAVInvokeHelper@DirectUI@@@2@EA" PURGE="-1" COMMENT="" />
    <EXPORT ORDINAL="3057" NAME="?g_pArrayPprv@ElementProviderManager@DirectUI@@0PEAV?$UiaArray@PEAVElementProvider@DirectUI@@@2@EA" PURGE="-1" COMMENT="" />
    <EXPORT ORDINAL="3058" NAME="?g_pArrayPropertyEvent@EventManager@DirectUI@@0PEAV?$UiaArray@H@2@EA" PURGE="-1" COMMENT="" />
    <EXPORT ORDINAL="3059" NAME="?g_patternInfoTable@Schema@DirectUI@@0QBUPatternInfo@12@B" PURGE="-1" COMMENT="" />
    <EXPORT ORDINAL="3060" NAME="?g_patternMapping@Schema@DirectUI@@0QBUPatternMap@12@B" PURGE="-1" COMMENT="" />
    <EXPORT ORDINAL="3061" NAME="?g_propertyInfoTable@Schema@DirectUI@@0QBUPropertyInfo@12@B" PURGE="-1" COMMENT="" />
    <EXPORT ORDINAL="3062" NAME="?g_rgMouseMap@HWNDHost@DirectUI@@0QAY02$$CBIA" PURGE="-1" COMMENT="" />
    <EXPORT ORDINAL="3063" NAME="?get_BoundingRectangle@ElementProvider@DirectUI@@UEAAJPEAUUiaRect@@@Z" PURGE="0" COMMENT="" />
    <EXPORT ORDINAL="3064" NAME="?get_RowOrColumnMajor@TableProvider@DirectUI@@UEAAJPEAW4RowOrColumnMajor@@@Z" PURGE="0" COMMENT="" />
    <EXPORT ORDINAL="3065" NAME="?get_Column@GridItemProvider@DirectUI@@UEAAJPEAH@Z" PURGE="0" COMMENT="" />
    <EXPORT ORDINAL="3066" NAME="?get_ColumnCount@GridProvider@DirectUI@@UEAAJPEAH@Z" PURGE="0" COMMENT="" />
    <EXPORT ORDINAL="3067" NAME="?get_RowSpan@GridItemProvider@DirectUI@@UEAAJPEAH@Z" PURGE="0" COMMENT="" />
    <EXPORT ORDINAL="3068" NAME="?get_ContainingGrid@GridItemProvider@DirectUI@@UEAAJPEAPEAUIRawElementProviderSimple@@@Z" PURGE="0" COMMENT="" />
    <EXPORT ORDINAL="3069" NAME="?get_ExpandCollapseState@ExpandCollapseProvider@DirectUI@@UEAAJPEAW4ExpandCollapseState@@@Z" PURGE="0" COMMENT="" />
    <EXPORT ORDINAL="3070" NAME="?get_FragmentRoot@ElementProvider@DirectUI@@UEAAJPEAPEAUIRawElementProviderFragmentRoot@@@Z" PURGE="0" COMMENT="" />
    <EXPORT ORDINAL="3071" NAME="?get_HorizontalScrollPercent@ScrollProvider@DirectUI@@UEAAJPEAN@Z" PURGE="0" COMMENT="" />
    <EXPORT ORDINAL="3072" NAME="?get_HorizontalViewSize@ScrollProvider@DirectUI@@UEAAJPEAN@Z" PURGE="0" COMMENT="" />
    <EXPORT ORDINAL="3073" NAME="?get_HorizontallyScrollable@ScrollProvider@DirectUI@@UEAAJPEAH@Z" PURGE="0" COMMENT="" />
    <EXPORT ORDINAL="3074" NAME="?get_HostRawElementProvider@ElementProvider@DirectUI@@UEAAJPEAPEAUIRawElementProviderSimple@@@Z" PURGE="0" COMMENT="" />
    <EXPORT ORDINAL="3075" NAME="?get_IsReadOnly@RangeValueProvider@DirectUI@@UEAAJPEAH@Z" PURGE="0" COMMENT="" />
    <EXPORT ORDINAL="3076" NAME="?get_IsReadOnly@ValueProvider@DirectUI@@UEAAJPEAH@Z" PURGE="0" COMMENT="" />
    <EXPORT ORDINAL="3077" NAME="?get_IsSelected@SelectionItemProvider@DirectUI@@UEAAJPEAH@Z" PURGE="0" COMMENT="" />
    <EXPORT ORDINAL="3078" NAME="?get_IsSelectionRequired@SelectionProvider@DirectUI@@UEAAJPEAH@Z" PURGE="0" COMMENT="" />
    <EXPORT ORDINAL="3079" NAME="?get_LargeChange@RangeValueProvider@DirectUI@@UEAAJPEAN@Z" PURGE="0" COMMENT="" />
    <EXPORT ORDINAL="3080" NAME="?get_Maximum@RangeValueProvider@DirectUI@@UEAAJPEAN@Z" PURGE="0" COMMENT="" />
    <EXPORT ORDINAL="3081" NAME="?get_Minimum@RangeValueProvider@DirectUI@@UEAAJPEAN@Z" PURGE="0" COMMENT="" />
    <EXPORT ORDINAL="3082" NAME="?get_ProviderOptions@ElementProvider@DirectUI@@UEAAJPEAW4ProviderOptions@@@Z" PURGE="0" COMMENT="" />
    <EXPORT ORDINAL="3083" NAME="?get_Row@GridItemProvider@DirectUI@@UEAAJPEAH@Z" PURGE="0" COMMENT="" />
    <EXPORT ORDINAL="3084" NAME="?get_RowCount@GridProvider@DirectUI@@UEAAJPEAH@Z" PURGE="0" COMMENT="" />
    <EXPORT ORDINAL="3085" NAME="?get_CanSelectMultiple@SelectionProvider@DirectUI@@UEAAJPEAH@Z" PURGE="0" COMMENT="" />
    <EXPORT ORDINAL="3086" NAME="?get_ColumnSpan@GridItemProvider@DirectUI@@UEAAJPEAH@Z" PURGE="0" COMMENT="" />
    <EXPORT ORDINAL="3087" NAME="?get_SelectionContainer@SelectionItemProvider@DirectUI@@UEAAJPEAPEAUIRawElementProviderSimple@@@Z" PURGE="0" COMMENT="" />
    <EXPORT ORDINAL="3088" NAME="?get_SmallChange@RangeValueProvider@DirectUI@@UEAAJPEAN@Z" PURGE="0" COMMENT="" />
    <EXPORT ORDINAL="3089" NAME="?get_ToggleState@ToggleProvider@DirectUI@@UEAAJPEAW4ToggleState@@@Z" PURGE="0" COMMENT="" />
    <EXPORT ORDINAL="3090" NAME="?get_Value@RangeValueProvider@DirectUI@@UEAAJPEAN@Z" PURGE="0" COMMENT="" />
    <EXPORT ORDINAL="3091" NAME="?get_Value@ValueProvider@DirectUI@@UEAAJPEAPEAG@Z" PURGE="0" COMMENT="" />
    <EXPORT ORDINAL="3092" NAME="?get_VerticalScrollPercent@ScrollProvider@DirectUI@@UEAAJPEAN@Z" PURGE="0" COMMENT="" />
    <EXPORT ORDINAL="3093" NAME="?get_VerticalViewSize@ScrollProvider@DirectUI@@UEAAJPEAN@Z" PURGE="0" COMMENT="" />
    <EXPORT ORDINAL="3094" NAME="?get_VerticallyScrollable@ScrollProvider@DirectUI@@UEAAJPEAH@Z" PURGE="0" COMMENT="" />
    <EXPORT ORDINAL="3095" NAME="?get_accChild@DuiAccessible@DirectUI@@UEAAJUtagVARIANT@@PEAPEAUIDispatch@@@Z" PURGE="0" COMMENT="" />
    <EXPORT ORDINAL="3096" NAME="?get_accChild@HWNDHostAccessible@DirectUI@@UEAAJUtagVARIANT@@PEAPEAUIDispatch@@@Z" PURGE="0" COMMENT="" />
    <EXPORT ORDINAL="3097" NAME="?get_accChildCount@DuiAccessible@DirectUI@@UEAAJPEAJ@Z" PURGE="0" COMMENT="" />
    <EXPORT ORDINAL="3098" NAME="?get_accChildCount@HWNDHostAccessible@DirectUI@@UEAAJPEAJ@Z" PURGE="0" COMMENT="" />
    <EXPORT ORDINAL="3099" NAME="?get_accDefaultAction@DuiAccessible@DirectUI@@UEAAJUtagVARIANT@@PEAPEAG@Z" PURGE="0" COMMENT="" />
    <EXPORT ORDINAL="3100" NAME="?get_accDefaultAction@HWNDHostAccessible@DirectUI@@UEAAJUtagVARIANT@@PEAPEAG@Z" PURGE="0" COMMENT="" />
    <EXPORT ORDINAL="3101" NAME="?get_accDescription@DuiAccessible@DirectUI@@UEAAJUtagVARIANT@@PEAPEAG@Z" PURGE="0" COMMENT="" />
    <EXPORT ORDINAL="3102" NAME="?get_accDescription@HWNDHostAccessible@DirectUI@@UEAAJUtagVARIANT@@PEAPEAG@Z" PURGE="0" COMMENT="" />
    <EXPORT ORDINAL="3103" NAME="?get_accFocus@DuiAccessible@DirectUI@@UEAAJPEAUtagVARIANT@@@Z" PURGE="0" COMMENT="" />
    <EXPORT ORDINAL="3104" NAME="?get_accFocus@HWNDHostAccessible@DirectUI@@UEAAJPEAUtagVARIANT@@@Z" PURGE="0" COMMENT="" />
    <EXPORT ORDINAL="3105" NAME="?get_accHelp@DuiAccessible@DirectUI@@UEAAJUtagVARIANT@@PEAPEAG@Z" PURGE="0" COMMENT="" />
    <EXPORT ORDINAL="3106" NAME="?get_accHelp@HWNDHostAccessible@DirectUI@@UEAAJUtagVARIANT@@PEAPEAG@Z" PURGE="0" COMMENT="" />
    <EXPORT ORDINAL="3107" NAME="?put_accName@DuiAccessible@DirectUI@@UEAAJUtagVARIANT@@PEAG@Z" PURGE="0" COMMENT="" />
    <EXPORT ORDINAL="3108" NAME="?get_accHelpTopic@HWNDHostAccessible@DirectUI@@UEAAJPEAPEAGUtagVARIANT@@PEAJ@Z" PURGE="0" COMMENT="" />
    <EXPORT ORDINAL="3109" NAME="?get_accKeyboardShortcut@DuiAccessible@DirectUI@@UEAAJUtagVARIANT@@PEAPEAG@Z" PURGE="0" COMMENT="" />
    <EXPORT ORDINAL="3110" NAME="?get_accKeyboardShortcut@HWNDHostAccessible@DirectUI@@UEAAJUtagVARIANT@@PEAPEAG@Z" PURGE="0" COMMENT="" />
    <EXPORT ORDINAL="3111" NAME="?get_accName@DuiAccessible@DirectUI@@UEAAJUtagVARIANT@@PEAPEAG@Z" PURGE="0" COMMENT="" />
    <EXPORT ORDINAL="3112" NAME="?get_accName@HWNDHostAccessible@DirectUI@@UEAAJUtagVARIANT@@PEAPEAG@Z" PURGE="0" COMMENT="" />
    <EXPORT ORDINAL="3113" NAME="?get_accParent@DuiAccessible@DirectUI@@UEAAJPEAPEAUIDispatch@@@Z" PURGE="0" COMMENT="" />
    <EXPORT ORDINAL="3114" NAME="?get_accParent@HWNDElementAccessible@DirectUI@@UEAAJPEAPEAUIDispatch@@@Z" PURGE="0" COMMENT="" />
    <EXPORT ORDINAL="3115" NAME="?get_accParent@HWNDHostAccessible@DirectUI@@UEAAJPEAPEAUIDispatch@@@Z" PURGE="0" COMMENT="" />
    <EXPORT ORDINAL="3116" NAME="?get_accParent@HWNDHostClientAccessible@DirectUI@@UEAAJPEAPEAUIDispatch@@@Z" PURGE="0" COMMENT="" />
    <EXPORT ORDINAL="3117" NAME="?get_accRole@DuiAccessible@DirectUI@@UEAAJUtagVARIANT@@PEAU3@@Z" PURGE="0" COMMENT="" />
    <EXPORT ORDINAL="3118" NAME="?get_accRole@HWNDHostAccessible@DirectUI@@UEAAJUtagVARIANT@@PEAU3@@Z" PURGE="0" COMMENT="" />
    <EXPORT ORDINAL="3119" NAME="?get_accRole@HWNDHostClientAccessible@DirectUI@@UEAAJUtagVARIANT@@PEAU3@@Z" PURGE="0" COMMENT="" />
    <EXPORT ORDINAL="3120" NAME="?AddRef@Element@DirectUI@@QEAAKXZ" PURGE="0" COMMENT="" />
    <EXPORT ORDINAL="3121" NAME="?get_accSelection@HWNDHostAccessible@DirectUI@@UEAAJPEAUtagVARIANT@@@Z" PURGE="0" COMMENT="" />
    <EXPORT ORDINAL="3122" NAME="?get_accState@DuiAccessible@DirectUI@@UEAAJUtagVARIANT@@PEAU3@@Z" PURGE="0" COMMENT="" />
    <EXPORT ORDINAL="3123" NAME="?get_accState@HWNDHostAccessible@DirectUI@@UEAAJUtagVARIANT@@PEAU3@@Z" PURGE="0" COMMENT="" />
    <EXPORT ORDINAL="3124" NAME="?get_accValue@DuiAccessible@DirectUI@@UEAAJUtagVARIANT@@PEAPEAG@Z" PURGE="0" COMMENT="" />
    <EXPORT ORDINAL="3125" NAME="?get_accValue@HWNDHostAccessible@DirectUI@@UEAAJUtagVARIANT@@PEAPEAG@Z" PURGE="0" COMMENT="" />
    <EXPORT ORDINAL="3126" NAME="?put_accValue@DuiAccessible@DirectUI@@UEAAJUtagVARIANT@@PEAG@Z" PURGE="0" COMMENT="" />
    <EXPORT ORDINAL="3127" NAME="?put_accName@HWNDHostAccessible@DirectUI@@UEAAJUtagVARIANT@@PEAG@Z" PURGE="0" COMMENT="" />
    <EXPORT ORDINAL="3128" NAME="?Clone@DuiAccessible@DirectUI@@UEAAJPEAPEAUIEnumVARIANT@@@Z" PURGE="0" COMMENT="" />
    <EXPORT ORDINAL="3129" NAME="?put_accValue@HWNDHostAccessible@DirectUI@@UEAAJUtagVARIANT@@PEAG@Z" PURGE="0" COMMENT="" />
    <EXPORT ORDINAL="3130" NAME="?s_ImageHlpFuncList@CallstackTracker@DirectUI@@0PAUIMGHLPFN_LOAD@12@A" PURGE="-1" COMMENT="" />
    <EXPORT ORDINAL="3131" NAME="?s_XMLParseError@DUIFactory@DirectUI@@CAXPEBG0HPEAX@Z" PURGE="0" COMMENT="" />
    <EXPORT ORDINAL="3132" NAME="?s_fInitFailed@CallstackTracker@DirectUI@@0HA" PURGE="-1" COMMENT="" />
    <EXPORT ORDINAL="3133" NAME="?s_fdClr@DUIXmlParser@DirectUI@@1QBU?$FunctionDefinition@K@12@B" PURGE="-1" COMMENT="" />
    <EXPORT ORDINAL="3134" NAME="?s_fdFill@DUIXmlParser@DirectUI@@1QBU?$FunctionDefinition@PEAVValue@DirectUI@@@12@B" PURGE="-1" COMMENT="" />
    <EXPORT ORDINAL="3135" NAME="?s_fdGraphic@DUIXmlParser@DirectUI@@1QBU?$FunctionDefinition@PEAVValue@DirectUI@@@12@B" PURGE="-1" COMMENT="" />
    <EXPORT ORDINAL="3136" NAME="?s_fdInt@DUIXmlParser@DirectUI@@1QBU?$FunctionDefinition@H@12@B" PURGE="-1" COMMENT="" />
    <EXPORT ORDINAL="3137" NAME="?s_fdRect@DUIXmlParser@DirectUI@@1QBU?$FunctionDefinition@UtagRECT@@@12@B" PURGE="-1" COMMENT="" />
    <EXPORT ORDINAL="3138" NAME="?s_fdString@DUIXmlParser@DirectUI@@1QBU?$FunctionDefinition@PEAVValue@DirectUI@@@12@B" PURGE="-1" COMMENT="" />
    <EXPORT ORDINAL="3139" NAME="?s_hProcess@CallstackTracker@DirectUI@@0PEAXEA" PURGE="-1" COMMENT="" />
    <EXPORT ORDINAL="3140" NAME="?s_hinstImageHlp@CallstackTracker@DirectUI@@0PEAUHINSTANCE__@@EA" PURGE="-1" COMMENT="" />
    <EXPORT ORDINAL="3141" NAME="?s_hinstNtDll@CallstackTracker@DirectUI@@0PEAUHINSTANCE__@@EA" PURGE="-1" COMMENT="" />
    <EXPORT ORDINAL="3142" NAME="?s_pClassInfo@AccessibleButton@DirectUI@@0PEAUIClassInfo@2@EA" PURGE="-1" COMMENT="" />
    <EXPORT ORDINAL="3143" NAME="?s_pClassInfo@AnimationStrip@DirectUI@@0PEAUIClassInfo@2@EA" PURGE="-1" COMMENT="" />
    <EXPORT ORDINAL="3144" NAME="?s_pClassInfo@AutoButton@DirectUI@@0PEAUIClassInfo@2@EA" PURGE="-1" COMMENT="" />
    <EXPORT ORDINAL="3145" NAME="?s_pClassInfo@BaseScrollViewer@DirectUI@@0PEAUIClassInfo@2@EA" PURGE="-1" COMMENT="" />
    <EXPORT ORDINAL="3146" NAME="?s_pClassInfo@Bind@DirectUI@@0PEAUIClassInfo@2@EA" PURGE="-1" COMMENT="" />
    <EXPORT ORDINAL="3147" NAME="?s_pClassInfo@Browser@DirectUI@@0PEAUIClassInfo@2@EA" PURGE="-1" COMMENT="" />
    <EXPORT ORDINAL="3148" NAME="?s_pClassInfo@Button@DirectUI@@0PEAUIClassInfo@2@EA" PURGE="-1" COMMENT="" />
    <EXPORT ORDINAL="3149" NAME="?s_pClassInfo@CCAVI@DirectUI@@0PEAUIClassInfo@2@EA" PURGE="-1" COMMENT="" />
    <EXPORT ORDINAL="3150" NAME="?s_pClassInfo@CCBase@DirectUI@@0PEAUIClassInfo@2@EA" PURGE="-1" COMMENT="" />
    <EXPORT ORDINAL="3151" NAME="?s_pClassInfo@CCBaseCheckRadioButton@DirectUI@@0PEAUIClassInfo@2@EA" PURGE="-1" COMMENT="" />
    <EXPORT ORDINAL="3152" NAME="?s_pClassInfo@CCBaseScrollBar@DirectUI@@0PEAUIClassInfo@2@EA" PURGE="-1" COMMENT="" />
    <EXPORT ORDINAL="3153" NAME="?s_pClassInfo@CCCheckBox@DirectUI@@0PEAUIClassInfo@2@EA" PURGE="-1" COMMENT="" />
    <EXPORT ORDINAL="3154" NAME="?s_pClassInfo@CCCommandLink@DirectUI@@0PEAUIClassInfo@2@EA" PURGE="-1" COMMENT="" />
    <EXPORT ORDINAL="3155" NAME="?s_pClassInfo@CCHScrollBar@DirectUI@@0PEAUIClassInfo@2@EA" PURGE="-1" COMMENT="" />
    <EXPORT ORDINAL="3156" NAME="?s_pClassInfo@CCListBox@DirectUI@@0PEAUIClassInfo@2@EA" PURGE="-1" COMMENT="" />
    <EXPORT ORDINAL="3157" NAME="?s_pClassInfo@CCListView@DirectUI@@0PEAUIClassInfo@2@EA" PURGE="-1" COMMENT="" />
    <EXPORT ORDINAL="3158" NAME="?s_pClassInfo@CCProgressBar@DirectUI@@0PEAUIClassInfo@2@EA" PURGE="-1" COMMENT="" />
    <EXPORT ORDINAL="3159" NAME="?s_pClassInfo@CCPushButton@DirectUI@@0PEAUIClassInfo@2@EA" PURGE="-1" COMMENT="" />
    <EXPORT ORDINAL="3160" NAME="?s_pClassInfo@CCRadioButton@DirectUI@@0PEAUIClassInfo@2@EA" PURGE="-1" COMMENT="" />
    <EXPORT ORDINAL="3161" NAME="?s_pClassInfo@CCSysLink@DirectUI@@0PEAUIClassInfo@2@EA" PURGE="-1" COMMENT="" />
    <EXPORT ORDINAL="3162" NAME="?s_pClassInfo@CCTrackBar@DirectUI@@0PEAUIClassInfo@2@EA" PURGE="-1" COMMENT="" />
    <EXPORT ORDINAL="3163" NAME="?s_pClassInfo@CCTreeView@DirectUI@@0PEAUIClassInfo@2@EA" PURGE="-1" COMMENT="" />
    <EXPORT ORDINAL="3164" NAME="?s_pClassInfo@CCVScrollBar@DirectUI@@0PEAUIClassInfo@2@EA" PURGE="-1" COMMENT="" />
    <EXPORT ORDINAL="3165" NAME="?s_pClassInfo@CheckBoxGlyph@DirectUI@@0PEAUIClassInfo@2@EA" PURGE="-1" COMMENT="" />
    <EXPORT ORDINAL="3166" NAME="?s_pClassInfo@Clipper@DirectUI@@0PEAUIClassInfo@2@EA" PURGE="-1" COMMENT="" />
    <EXPORT ORDINAL="3167" NAME="?s_pClassInfo@Combobox@DirectUI@@0PEAUIClassInfo@2@EA" PURGE="-1" COMMENT="" />
    <EXPORT ORDINAL="3168" NAME="?s_pClassInfo@DialogElement@DirectUI@@0PEAUIClassInfo@2@EA" PURGE="-1" COMMENT="" />
    <EXPORT ORDINAL="3169" NAME="?s_pClassInfo@Edit@DirectUI@@0PEAUIClassInfo@2@EA" PURGE="-1" COMMENT="" />
    <EXPORT ORDINAL="3170" NAME="?s_pClassInfo@Element@DirectUI@@0PEAUIClassInfo@2@EA" PURGE="-1" COMMENT="" />
    <EXPORT ORDINAL="3171" NAME="?s_pClassInfo@ElementWithHWND@DirectUI@@0PEAUIClassInfo@2@EA" PURGE="-1" COMMENT="" />
    <EXPORT ORDINAL="3172" NAME="?s_pClassInfo@Expandable@DirectUI@@0PEAUIClassInfo@2@EA" PURGE="-1" COMMENT="" />
    <EXPORT ORDINAL="3173" NAME="?s_pClassInfo@Expando@DirectUI@@0PEAUIClassInfo@2@EA" PURGE="-1" COMMENT="" />
    <EXPORT ORDINAL="3174" NAME="?s_pClassInfo@ExpandoButtonGlyph@DirectUI@@0PEAUIClassInfo@2@EA" PURGE="-1" COMMENT="" />
    <EXPORT ORDINAL="3175" NAME="?s_pClassInfo@HWNDElement@DirectUI@@0PEAUIClassInfo@2@EA" PURGE="-1" COMMENT="" />
    <EXPORT ORDINAL="3176" NAME="?s_pClassInfo@HWNDHost@DirectUI@@0PEAUIClassInfo@2@EA" PURGE="-1" COMMENT="" />
    <EXPORT ORDINAL="3177" NAME="?s_pClassInfo@Macro@DirectUI@@0PEAUIClassInfo@2@EA" PURGE="-1" COMMENT="" />
    <EXPORT ORDINAL="3178" NAME="?s_pClassInfo@Movie@DirectUI@@0PEAUIClassInfo@2@EA" PURGE="-1" COMMENT="" />
    <EXPORT ORDINAL="3179" NAME="?s_pClassInfo@Navigator@DirectUI@@0PEAUIClassInfo@2@EA" PURGE="-1" COMMENT="" />
    <EXPORT ORDINAL="3180" NAME="?s_pClassInfo@PText@DirectUI@@0PEAUIClassInfo@2@EA" PURGE="-1" COMMENT="" />
    <EXPORT ORDINAL="3181" NAME="?s_pClassInfo@Page@DirectUI@@0PEAUIClassInfo@2@EA" PURGE="-1" COMMENT="" />
    <EXPORT ORDINAL="3182" NAME="?s_pClassInfo@Pages@DirectUI@@0PEAUIClassInfo@2@EA" PURGE="-1" COMMENT="" />
    <EXPORT ORDINAL="3183" NAME="?s_pClassInfo@Progress@DirectUI@@0PEAUIClassInfo@2@EA" PURGE="-1" COMMENT="" />
    <EXPORT ORDINAL="3184" NAME="?s_pClassInfo@PushButton@DirectUI@@0PEAUIClassInfo@2@EA" PURGE="-1" COMMENT="" />
    <EXPORT ORDINAL="3185" NAME="?s_pClassInfo@RadioButtonGlyph@DirectUI@@0PEAUIClassInfo@2@EA" PURGE="-1" COMMENT="" />
    <EXPORT ORDINAL="3186" NAME="?s_pClassInfo@RefPointElement@DirectUI@@0PEAUIClassInfo@2@EA" PURGE="-1" COMMENT="" />
    <EXPORT ORDINAL="3187" NAME="?s_pClassInfo@RepeatButton@DirectUI@@0PEAUIClassInfo@2@EA" PURGE="-1" COMMENT="" />
    <EXPORT ORDINAL="3188" NAME="?s_pClassInfo@Repeater@DirectUI@@0PEAUIClassInfo@2@EA" PURGE="-1" COMMENT="" />
    <EXPORT ORDINAL="3189" NAME="?s_pClassInfo@ScrollBar@DirectUI@@0PEAUIClassInfo@2@EA" PURGE="-1" COMMENT="" />
    <EXPORT ORDINAL="3190" NAME="?s_pClassInfo@ScrollViewer@DirectUI@@0PEAUIClassInfo@2@EA" PURGE="-1" COMMENT="" />
    <EXPORT ORDINAL="3191" NAME="?s_pClassInfo@Selector@DirectUI@@0PEAUIClassInfo@2@EA" PURGE="-1" COMMENT="" />
    <EXPORT ORDINAL="3192" NAME="?s_pClassInfo@SelectorNoDefault@DirectUI@@0PEAUIClassInfo@2@EA" PURGE="-1" COMMENT="" />
    <EXPORT ORDINAL="3193" NAME="?s_pClassInfo@StyledScrollViewer@DirectUI@@0PEAUIClassInfo@2@EA" PURGE="-1" COMMENT="" />
    <EXPORT ORDINAL="3194" NAME="?s_pClassInfo@TextGraphic@DirectUI@@0PEAUIClassInfo@2@EA" PURGE="-1" COMMENT="" />
    <EXPORT ORDINAL="3195" NAME="?s_pClassInfo@Thumb@DirectUI@@0PEAUIClassInfo@2@EA" PURGE="-1" COMMENT="" />
    <EXPORT ORDINAL="3196" NAME="?s_pClassInfo@UnknownElement@DirectUI@@0PEAUIClassInfo@2@EA" PURGE="-1" COMMENT="" />
    <EXPORT ORDINAL="3197" NAME="?s_pClassInfo@Viewer@DirectUI@@0PEAUIClassInfo@2@EA" PURGE="-1" COMMENT="" />
    <EXPORT ORDINAL="3198" NAME="?s_pClassInfo@XBaby@DirectUI@@0PEAUIClassInfo@2@EA" PURGE="-1" COMMENT="" />
    <EXPORT ORDINAL="3199" NAME="?s_pClassInfo@XElement@DirectUI@@0PEAUIClassInfo@2@EA" PURGE="-1" COMMENT="" />
    <EXPORT ORDINAL="3200" NAME="?s_pfnImagehlpApiVersionEx@CallstackTracker@DirectUI@@0P6APEAUAPI_VERSION@@PEAU3@@ZEA" PURGE="-1" COMMENT="" />
    <EXPORT ORDINAL="3201" NAME="?s_pfnRtlCaptureStackBackTrace@CallstackTracker@DirectUI@@0P6AGKKPEAPEAXPEAK@ZEA" PURGE="-1" COMMENT="" />
    <EXPORT ORDINAL="3202" NAME="?s_pfnSymFromAddr@CallstackTracker@DirectUI@@0P6AHPEAX_KPEA_KPEAU_SYMBOL_INFO@@@ZEA" PURGE="-1" COMMENT="" />
    <EXPORT ORDINAL="3203" NAME="?s_pfnSymGetModuleInfo64@CallstackTracker@DirectUI@@0P6AHPEAX_KPEAU_IMAGEHLP_MODULE64@@@ZEA" PURGE="-1" COMMENT="" />
    <EXPORT ORDINAL="3204" NAME="?s_pfnSymInitialize@CallstackTracker@DirectUI@@0P6AHPEAXPEBDH@ZEA" PURGE="-1" COMMENT="" />
    <EXPORT ORDINAL="3205" NAME="?s_pfnSymLoadModule64@CallstackTracker@DirectUI@@0P6A_KPEAX0PEBD1_KK@ZEA" PURGE="-1" COMMENT="" />
    <EXPORT ORDINAL="3206" NAME="?s_pfnSymSetOptions@CallstackTracker@DirectUI@@0P6AKK@ZEA" PURGE="-1" COMMENT="" />
    <EXPORT ORDINAL="3207" NAME="?s_uButtonFocusChangeMsg@XElement@DirectUI@@2IB" PURGE="-1" COMMENT="" />
    <EXPORT ORDINAL="3208" NAME="?s_uInvokeHelperMsg@InvokeHelper@DirectUI@@0IB" PURGE="-1" COMMENT="" />
    <EXPORT ORDINAL="3209" NAME="?s_uNavigateOutMsg@XElement@DirectUI@@2IB" PURGE="-1" COMMENT="" />
    <EXPORT ORDINAL="3210" NAME="?s_uUnhandledSyscharMsg@XElement@DirectUI@@2IB" PURGE="-1" COMMENT="" />
    <EXPORT ORDINAL="3211" NAME="BlurBitmap" PURGE="0" COMMENT="" />
    <EXPORT ORDINAL="3212" NAME="BrushFromEnumI" PURGE="0" COMMENT="" />
    <EXPORT ORDINAL="3213" NAME="ColorFromEnumI" PURGE="0" COMMENT="" />
    <EXPORT ORDINAL="3214" NAME="CreateDUIWrapper" PURGE="0" COMMENT="" />
    <EXPORT ORDINAL="3215" NAME="CreateDUIWrapperEx" PURGE="0" COMMENT="" />
    <EXPORT ORDINAL="3216" NAME="CreateDUIWrapperFromResource" PURGE="0" COMMENT="" />
    <EXPORT ORDINAL="3217" NAME="DUIDrawShadowText" PURGE="0" COMMENT="" />
    <EXPORT ORDINAL="3218" NAME="DisableAnimations" PURGE="0" COMMENT="" />
    <EXPORT ORDINAL="3219" NAME="DrawShadowTextEx" PURGE="0" COMMENT="" />
    <EXPORT ORDINAL="3220" NAME="ElementFromGadget" PURGE="0" COMMENT="" />
    <EXPORT ORDINAL="3221" NAME="EnableAnimations" PURGE="0" COMMENT="" />
    <EXPORT ORDINAL="3222" NAME="FlushThemeHandles" PURGE="0" COMMENT="" />
    <EXPORT ORDINAL="3223" NAME="ForceDebugBreak" PURGE="-1" COMMENT="" />
    <EXPORT ORDINAL="3224" NAME="GetElementDataEntry" PURGE="0" COMMENT="" />
    <EXPORT ORDINAL="3225" NAME="GetElementMacro" PURGE="0" COMMENT="" />
    <EXPORT ORDINAL="3226" NAME="GetFontCache" PURGE="-1" COMMENT="" />
    <EXPORT ORDINAL="3227" NAME="GetScreenDPI" PURGE="0" COMMENT="" />
    <EXPORT ORDINAL="3228" NAME="GetThemeHandle" PURGE="0" COMMENT="" />
    <EXPORT ORDINAL="3229" NAME="HStrDup" PURGE="0" COMMENT="" />
    <EXPORT ORDINAL="3230" NAME="HrSysAllocString" PURGE="0" COMMENT="" />
    <EXPORT ORDINAL="3231" NAME="??1CallstackTracker@DirectUI@@QEAA@XZ" PURGE="0" COMMENT="" />
    <EXPORT ORDINAL="3232" NAME="InitProcessPriv" PURGE="0" COMMENT="" />
    <EXPORT ORDINAL="3233" NAME="InitThread" PURGE="0" COMMENT="" />
    <EXPORT ORDINAL="3234" NAME="IsAnimationsEnabled" PURGE="0" COMMENT="" />
    <EXPORT ORDINAL="3235" NAME="IsPalette" PURGE="0" COMMENT="" />
    <EXPORT ORDINAL="3236" NAME="IsUIAutomationProviderEnabled" PURGE="0" COMMENT="" />
    <EXPORT ORDINAL="3237" NAME="MultiByteToUnicode" PURGE="0" COMMENT="" />
    <EXPORT ORDINAL="3238" NAME="NotifyAccessibilityEvent" PURGE="0" COMMENT="" />
    <EXPORT ORDINAL="3239" NAME="PreprocessBuffer" PURGE="0" COMMENT="" />
    <EXPORT ORDINAL="3240" NAME="ProcessAlphaBitmapI" PURGE="0" COMMENT="" />
    <EXPORT ORDINAL="3241" NAME="PurgeThemeHandles" PURGE="-1" COMMENT="" />
    <EXPORT ORDINAL="3242" NAME="RegisterAllControls" PURGE="0" COMMENT="" />
    <EXPORT ORDINAL="3243" NAME="RegisterBaseControls" PURGE="0" COMMENT="" />
    <EXPORT ORDINAL="3244" NAME="RegisterBrowserControls" PURGE="0" COMMENT="" />
    <EXPORT ORDINAL="3245" NAME="RegisterCommonControls" PURGE="0" COMMENT="" />
    <EXPORT ORDINAL="3246" NAME="RegisterExtendedControls" PURGE="0" COMMENT="" />
    <EXPORT ORDINAL="3247" NAME="RegisterMacroControls" PURGE="0" COMMENT="" />
    <EXPORT ORDINAL="3248" NAME="RegisterMiscControls" PURGE="0" COMMENT="" />
    <EXPORT ORDINAL="3249" NAME="RegisterStandardControls" PURGE="0" COMMENT="" />
    <EXPORT ORDINAL="3250" NAME="RegisterXControls" PURGE="0" COMMENT="" />
    <EXPORT ORDINAL="3251" NAME="SetDefAction" PURGE="0" COMMENT="" />
    <EXPORT ORDINAL="3252" NAME="StartMessagePump" PURGE="0" COMMENT="" />
    <EXPORT ORDINAL="3253" NAME="StopMessagePump" PURGE="-1" COMMENT="" />
    <EXPORT ORDINAL="3254" NAME="StrToID" PURGE="-1" COMMENT="" />
    <EXPORT ORDINAL="3255" NAME="UiaHideOnGetObject" PURGE="0" COMMENT="" />
    <EXPORT ORDINAL="3256" NAME="UiaOnDestroySink" PURGE="0" COMMENT="" />
    <EXPORT ORDINAL="3257" NAME="UiaOnGetObject" PURGE="0" COMMENT="" />
    <EXPORT ORDINAL="3258" NAME="UiaOnToolTip" PURGE="0" COMMENT="" />
    <EXPORT ORDINAL="3259" NAME="UnInitProcessPriv" PURGE="0" COMMENT="" />
    <EXPORT ORDINAL="3260" NAME="UnInitThread" PURGE="0" COMMENT="" />
    <EXPORT ORDINAL="3261" NAME="UnicodeToMultiByte" PURGE="0" COMMENT="" />
</LIBRARY>

