<?xml version="1.0" encoding="UTF-8"?>
<LIBRARY NAME="wbemcomn.dll" PATH="C:\Windows\system32\WBEMCOMN.DLL" DATE="Sat Nov 20 07:23:56 PST 2010" VERSION="6.1.7601.17514 (win7sp1_rtm.101119-1850)">
    <EXPORT ORDINAL="1" NAME="??0?$CLockableFlexArray@VCStaticCritSec@@@@QEAA@AEAV0@@Z" PURGE="0" COMMENT="" />
    <EXPORT ORDINAL="2" NAME="??0?$CLockableFlexArray@VCStaticCritSec@@@@QEAA@XZ" PURGE="0" COMMENT="" />
    <EXPORT ORDINAL="3" NAME="??0?$SZLess@PEBG@@QEAA@XZ" PURGE="0" COMMENT="" />
    <EXPORT ORDINAL="4" NAME="??0?$SZLess@PEBG@@QEAA@AEBU0@@Z" PURGE="0" COMMENT="" />
    <EXPORT ORDINAL="5" NAME="??0C9XAce@@QEAA@AEBV0@@Z" PURGE="0" COMMENT="" />
    <EXPORT ORDINAL="6" NAME="??0C9XAce@@QEAA@KKKPEAG@Z" PURGE="0" COMMENT="" />
    <EXPORT ORDINAL="7" NAME="??0C9XAce@@QEAA@XZ" PURGE="0" COMMENT="" />
    <EXPORT ORDINAL="8" NAME="??0CAbstractQl1Parser@@QEAA@AEBV0@@Z" PURGE="0" COMMENT="" />
    <EXPORT ORDINAL="9" NAME="??0CAbstractQl1Parser@@QEAA@PEAVCGenLexSource@@@Z" PURGE="0" COMMENT="" />
    <EXPORT ORDINAL="10" NAME="??0CArena@@QEAA@XZ" PURGE="0" COMMENT="" />
    <EXPORT ORDINAL="11" NAME="??0CArena@@QEAA@AEBV0@@Z" PURGE="0" COMMENT="" />
    <EXPORT ORDINAL="12" NAME="??0CBaseAce@@QEAA@XZ" PURGE="0" COMMENT="" />
    <EXPORT ORDINAL="13" NAME="??0CBaseAce@@QEAA@AEBV0@@Z" PURGE="0" COMMENT="" />
    <EXPORT ORDINAL="14" NAME="??0CBasicUnloadInstruction@@IEAA@XZ" PURGE="0" COMMENT="" />
    <EXPORT ORDINAL="15" NAME="??0CBasicUnloadInstruction@@QEAA@AEBV0@@Z" PURGE="0" COMMENT="" />
    <EXPORT ORDINAL="16" NAME="??0CBasicUnloadInstruction@@QEAA@VCWbemInterval@@@Z" PURGE="0" COMMENT="" />
    <EXPORT ORDINAL="17" NAME="??0CBuffer@@QEAA@AEBV0@@Z" PURGE="0" COMMENT="" />
    <EXPORT ORDINAL="18" NAME="??0CBuffer@@QEAA@PEAEKH@Z" PURGE="0" COMMENT="" />
    <EXPORT ORDINAL="19" NAME="??0CCheckedInCritSec@@QEAA@PEAVCCritSec@@@Z" PURGE="0" COMMENT="" />
    <EXPORT ORDINAL="20" NAME="??0CCircularQueue@@QEAA@XZ" PURGE="0" COMMENT="" />
    <EXPORT ORDINAL="21" NAME="??0CClientOpsNode@@QEAA@XZ" PURGE="0" COMMENT="" />
    <EXPORT ORDINAL="22" NAME="??0CContainerControl@@QEAA@AEBV0@@Z" PURGE="0" COMMENT="" />
    <EXPORT ORDINAL="23" NAME="??0CContainerControl@@QEAA@PEAUIUnknown@@@Z" PURGE="0" COMMENT="" />
    <EXPORT ORDINAL="24" NAME="??0CCritSec@@QEAA@XZ" PURGE="0" COMMENT="" />
    <EXPORT ORDINAL="25" NAME="??0CDMTFParser@@QEAA@PEBG@Z" PURGE="0" COMMENT="" />
    <EXPORT ORDINAL="26" NAME="??0CLike@@QEAA@XZ" PURGE="0" COMMENT="" />
    <EXPORT ORDINAL="27" NAME="??0CDateTimeParser@@IEAA@XZ" PURGE="0" COMMENT="" />
    <EXPORT ORDINAL="28" NAME="??0CDateTimeParser@@QEAA@PEBG@Z" PURGE="0" COMMENT="" />
    <EXPORT ORDINAL="29" NAME="??0CEnterWbemCriticalSection@@QEAA@PEAVCWbemCriticalSection@@K@Z" PURGE="0" COMMENT="" />
    <EXPORT ORDINAL="30" NAME="??0CEventLog@@QEAA@AEBV0@@Z" PURGE="0" COMMENT="" />
    <EXPORT ORDINAL="31" NAME="??0CEventLog@@QEAA@PEBG0K@Z" PURGE="0" COMMENT="" />
    <EXPORT ORDINAL="32" NAME="??0CEventLogRecord@@QEAA@AEAV0@@Z" PURGE="0" COMMENT="" />
    <EXPORT ORDINAL="33" NAME="??0CEventLogRecord@@QEAA@GKVCInsertionString@@000000000@Z" PURGE="0" COMMENT="" />
    <EXPORT ORDINAL="34" NAME="??0CExecQueue@@QEAA@AEAV0@@Z" PURGE="0" COMMENT="" />
    <EXPORT ORDINAL="35" NAME="??0CExecQueue@@QEAA@XZ" PURGE="0" COMMENT="" />
    <EXPORT ORDINAL="36" NAME="??0CExecRequest@@QEAA@AEBV0@@Z" PURGE="0" COMMENT="" />
    <EXPORT ORDINAL="37" NAME="??0CExecRequest@@QEAA@XZ" PURGE="0" COMMENT="" />
    <EXPORT ORDINAL="38" NAME="??0CFlexArray@@QEAA@AEAV0@@Z" PURGE="0" COMMENT="" />
    <EXPORT ORDINAL="39" NAME="??0CFlexArray@@QEAA@HH@Z" PURGE="0" COMMENT="" />
    <EXPORT ORDINAL="40" NAME="??0CFlexQueue@@QEAA@H@Z" PURGE="0" COMMENT="" />
    <EXPORT ORDINAL="41" NAME="??0CHaltable@@QEAA@AEBV0@@Z" PURGE="0" COMMENT="" />
    <EXPORT ORDINAL="42" NAME="??0CHaltable@@QEAA@XZ" PURGE="0" COMMENT="" />
    <EXPORT ORDINAL="43" NAME="??0CWbemInterval@@IEAA@K@Z" PURGE="0" COMMENT="" />
    <EXPORT ORDINAL="44" NAME="??0CIdentitySecurity@@QEAA@AEBV0@@Z" PURGE="0" COMMENT="" />
    <EXPORT ORDINAL="45" NAME="??0CIdentitySecurity@@QEAA@_N@Z" PURGE="0" COMMENT="" />
    <EXPORT ORDINAL="46" NAME="??0CIdentityTest@@QEAA@AEBV0@@Z" PURGE="0" COMMENT="" />
    <EXPORT ORDINAL="47" NAME="??0CIdentityTest@@QEAA@PEAVCTimerInstruction@@@Z" PURGE="0" COMMENT="" />
    <EXPORT ORDINAL="48" NAME="??0CInCritSec@@QEAA@PEAU_RTL_CRITICAL_SECTION@@@Z" PURGE="0" COMMENT="" />
    <EXPORT ORDINAL="49" NAME="??0CInsertionString@@QEAA@AEBV0@@Z" PURGE="0" COMMENT="" />
    <EXPORT ORDINAL="50" NAME="??0CInsertionString@@QEAA@J@Z" PURGE="0" COMMENT="" />
    <EXPORT ORDINAL="51" NAME="??0CInsertionString@@QEAA@PEBD@Z" PURGE="0" COMMENT="" />
    <EXPORT ORDINAL="52" NAME="??0CInsertionString@@QEAA@PEBG@Z" PURGE="0" COMMENT="" />
    <EXPORT ORDINAL="53" NAME="??0CInsertionString@@QEAA@VCHex@@@Z" PURGE="0" COMMENT="" />
    <EXPORT ORDINAL="54" NAME="??0CInsertionString@@QEAA@XZ" PURGE="0" COMMENT="" />
    <EXPORT ORDINAL="55" NAME="??0CInstructionQueue@@QEAA@XZ" PURGE="0" COMMENT="" />
    <EXPORT ORDINAL="56" NAME="??0CInstructionTest@@QEAA@XZ" PURGE="0" COMMENT="" />
    <EXPORT ORDINAL="57" NAME="??0CInstructionTest@@QEAA@AEBV0@@Z" PURGE="0" COMMENT="" />
    <EXPORT ORDINAL="58" NAME="??0CLifeControl@@QEAA@XZ" PURGE="0" COMMENT="" />
    <EXPORT ORDINAL="59" NAME="??0CLifeControl@@QEAA@AEBV0@@Z" PURGE="0" COMMENT="" />
    <EXPORT ORDINAL="60" NAME="??0CLike@@QEAA@AEBV0@@Z" PURGE="0" COMMENT="" />
    <EXPORT ORDINAL="61" NAME="??0CLike@@QEAA@PEBGG@Z" PURGE="0" COMMENT="" />
    <EXPORT ORDINAL="62" NAME="??0CWbemTime@@QEAA@XZ" PURGE="0" COMMENT="" />
    <EXPORT ORDINAL="63" NAME="??0CLimitControl@@QEAA@AEBV0@@Z" PURGE="0" COMMENT="" />
    <EXPORT ORDINAL="64" NAME="??0CLimitControl@@QEAA@XZ" PURGE="0" COMMENT="" />
    <EXPORT ORDINAL="65" NAME="??0CWbemInstallObject@@QEAA@XZ" PURGE="0" COMMENT="" />
    <EXPORT ORDINAL="66" NAME="??0CWbemInterval@@QEAA@XZ" PURGE="0" COMMENT="" />
    <EXPORT ORDINAL="67" NAME="??0CMUILocaleList@@QEAA@XZ" PURGE="0" COMMENT="" />
    <EXPORT ORDINAL="68" NAME="??0CMemoryLog@@QEAA@XZ" PURGE="0" COMMENT="" />
    <EXPORT ORDINAL="69" NAME="??0CMinMaxLimitControl@@QEAA@AEBV0@@Z" PURGE="0" COMMENT="" />
    <EXPORT ORDINAL="70" NAME="??0CMinMaxLimitControl@@QEAA@HPEBG@Z" PURGE="0" COMMENT="" />
    <EXPORT ORDINAL="71" NAME="??0CNtAce@@QEAA@AEBV0@@Z" PURGE="0" COMMENT="" />
    <EXPORT ORDINAL="72" NAME="??0CNtAce@@QEAA@KKKAEAVCNtSid@@@Z" PURGE="0" COMMENT="" />
    <EXPORT ORDINAL="73" NAME="??0CNtAce@@QEAA@KKKPEAG0@Z" PURGE="0" COMMENT="" />
    <EXPORT ORDINAL="74" NAME="??0CNtAce@@QEAA@PEAU_ACCESS_ALLOWED_ACE@@@Z" PURGE="0" COMMENT="" />
    <EXPORT ORDINAL="75" NAME="??0CNtAce@@QEAA@XZ" PURGE="0" COMMENT="" />
    <EXPORT ORDINAL="76" NAME="??0CNtAcl@@QEAA@AEBV0@@Z" PURGE="0" COMMENT="" />
    <EXPORT ORDINAL="77" NAME="??0CNtAcl@@QEAA@K@Z" PURGE="0" COMMENT="" />
    <EXPORT ORDINAL="78" NAME="??0CNtAcl@@QEAA@PEAU_ACL@@@Z" PURGE="0" COMMENT="" />
    <EXPORT ORDINAL="79" NAME="??0CNtSecurityDescriptor@@QEAA@AEAV0@@Z" PURGE="0" COMMENT="" />
    <EXPORT ORDINAL="80" NAME="??0CNtSecurityDescriptor@@QEAA@PEAX@Z" PURGE="0" COMMENT="" />
    <EXPORT ORDINAL="81" NAME="??0CNtSecurityDescriptor@@QEAA@XZ" PURGE="0" COMMENT="" />
    <EXPORT ORDINAL="82" NAME="??0CNtSid@@QEAA@AEBV0@@Z" PURGE="0" COMMENT="" />
    <EXPORT ORDINAL="83" NAME="??0CNtSid@@QEAA@PEAG0@Z" PURGE="0" COMMENT="" />
    <EXPORT ORDINAL="84" NAME="??0CNtSid@@QEAA@PEAX@Z" PURGE="0" COMMENT="" />
    <EXPORT ORDINAL="85" NAME="??0CNtSid@@QEAA@W4SidType@0@@Z" PURGE="0" COMMENT="" />
    <EXPORT ORDINAL="86" NAME="??0CNtSid@@QEAA@XZ" PURGE="0" COMMENT="" />
    <EXPORT ORDINAL="87" NAME="??0CPropertyName@@QEAA@AEBV0@@Z" PURGE="0" COMMENT="" />
    <EXPORT ORDINAL="88" NAME="??0CPropertyName@@QEAA@XZ" PURGE="0" COMMENT="" />
    <EXPORT ORDINAL="89" NAME="??0CQl1ParseSink@@QEAA@XZ" PURGE="0" COMMENT="" />
    <EXPORT ORDINAL="90" NAME="??0CQl1ParseSink@@QEAA@AEBV0@@Z" PURGE="0" COMMENT="" />
    <EXPORT ORDINAL="91" NAME="??0CRegistryMinMaxLimitControl@@QEAA@AEBV0@@Z" PURGE="0" COMMENT="" />
    <EXPORT ORDINAL="92" NAME="??0CRegistryMinMaxLimitControl@@QEAA@HPEBG0000@Z" PURGE="0" COMMENT="" />
    <EXPORT ORDINAL="93" NAME="??0CSafeArray@@QEAA@AEAV0@@Z" PURGE="0" COMMENT="" />
    <EXPORT ORDINAL="94" NAME="??0CSafeArray@@QEAA@HHHH@Z" PURGE="0" COMMENT="" />
    <EXPORT ORDINAL="95" NAME="??0CSafeArray@@QEAA@PEAUtagSAFEARRAY@@HHH@Z" PURGE="0" COMMENT="" />
    <EXPORT ORDINAL="96" NAME="??0CStaticCritSec@@QEAA@XZ" PURGE="0" COMMENT="" />
    <EXPORT ORDINAL="97" NAME="??0CTextTemplate@@QEAA@AEBV0@@Z" PURGE="0" COMMENT="" />
    <EXPORT ORDINAL="98" NAME="??0CTextTemplate@@QEAA@PEBG@Z" PURGE="0" COMMENT="" />
    <EXPORT ORDINAL="99" NAME="??0CTimerGenerator@@QEAA@AEBV0@@Z" PURGE="0" COMMENT="" />
    <EXPORT ORDINAL="100" NAME="??0CTimerGenerator@@QEAA@XZ" PURGE="0" COMMENT="" />
    <EXPORT ORDINAL="101" NAME="??0CTimerInstruction@@QEAA@XZ" PURGE="0" COMMENT="" />
    <EXPORT ORDINAL="102" NAME="??0CTimerInstruction@@QEAA@AEBV0@@Z" PURGE="0" COMMENT="" />
    <EXPORT ORDINAL="103" NAME="??0CTraceSessionControl@@QEAA@XZ" PURGE="0" COMMENT="" />
    <EXPORT ORDINAL="104" NAME="??0CUnk@@QEAA@AEBV0@@Z" PURGE="0" COMMENT="" />
    <EXPORT ORDINAL="105" NAME="??0CUnk@@QEAA@PEAVCLifeControl@@PEAUIUnknown@@@Z" PURGE="0" COMMENT="" />
    <EXPORT ORDINAL="106" NAME="??0CUnkInternal@@QEAA@AEBV0@@Z" PURGE="0" COMMENT="" />
    <EXPORT ORDINAL="107" NAME="??0CUnkInternal@@QEAA@PEAVCLifeControl@@@Z" PURGE="0" COMMENT="" />
    <EXPORT ORDINAL="108" NAME="??0CVar@@QEAA@AEBV0@@Z" PURGE="0" COMMENT="" />
    <EXPORT ORDINAL="109" NAME="??0CVar@@QEAA@D@Z" PURGE="0" COMMENT="" />
    <EXPORT ORDINAL="110" NAME="??0CVar@@QEAA@E@Z" PURGE="0" COMMENT="" />
    <EXPORT ORDINAL="111" NAME="??0CVar@@QEAA@F@Z" PURGE="0" COMMENT="" />
    <EXPORT ORDINAL="112" NAME="??0CVar@@QEAA@FH@Z" PURGE="0" COMMENT="" />
    <EXPORT ORDINAL="113" NAME="??0CVar@@QEAA@G@Z" PURGE="0" COMMENT="" />
    <EXPORT ORDINAL="114" NAME="??0CVar@@QEAA@HPEAG@Z" PURGE="0" COMMENT="" />
    <EXPORT ORDINAL="115" NAME="??0CVar@@QEAA@HPEAUtagSAFEARRAY@@@Z" PURGE="0" COMMENT="" />
    <EXPORT ORDINAL="116" NAME="??0CVar@@QEAA@HVauto_bstr@@@Z" PURGE="0" COMMENT="" />
    <EXPORT ORDINAL="117" NAME="??0CVar@@QEAA@J@Z" PURGE="0" COMMENT="" />
    <EXPORT ORDINAL="118" NAME="??0CVar@@QEAA@K@Z" PURGE="0" COMMENT="" />
    <EXPORT ORDINAL="119" NAME="??0CVar@@QEAA@M@Z" PURGE="0" COMMENT="" />
    <EXPORT ORDINAL="120" NAME="??0CVar@@QEAA@N@Z" PURGE="0" COMMENT="" />
    <EXPORT ORDINAL="121" NAME="??0CVar@@QEAA@PEADH@Z" PURGE="0" COMMENT="" />
    <EXPORT ORDINAL="122" NAME="??0CVar@@QEAA@PEAGH@Z" PURGE="0" COMMENT="" />
    <EXPORT ORDINAL="123" NAME="??0CVar@@QEAA@PEAU_FILETIME@@@Z" PURGE="0" COMMENT="" />
    <EXPORT ORDINAL="124" NAME="??0CVar@@QEAA@PEAU_GUID@@H@Z" PURGE="0" COMMENT="" />
    <EXPORT ORDINAL="125" NAME="??0CVar@@QEAA@PEAUtagBLOB@@H@Z" PURGE="0" COMMENT="" />
    <EXPORT ORDINAL="126" NAME="??0CVar@@QEAA@PEAUtagVARIANT@@@Z" PURGE="0" COMMENT="" />
    <EXPORT ORDINAL="127" NAME="??0CVar@@QEAA@PEAVCVarVector@@H@Z" PURGE="0" COMMENT="" />
    <EXPORT ORDINAL="128" NAME="??0CVar@@QEAA@XZ" PURGE="0" COMMENT="" />
    <EXPORT ORDINAL="129" NAME="??0CVarVector@@QEAA@AEAV0@@Z" PURGE="0" COMMENT="" />
    <EXPORT ORDINAL="130" NAME="??0CVarVector@@QEAA@HHH@Z" PURGE="0" COMMENT="" />
    <EXPORT ORDINAL="131" NAME="??0CVarVector@@QEAA@HPEAUtagSAFEARRAY@@H@Z" PURGE="0" COMMENT="" />
    <EXPORT ORDINAL="132" NAME="??0CVarVector@@QEAA@XZ" PURGE="0" COMMENT="" />
    <EXPORT ORDINAL="133" NAME="??0CWMITraceSettings@@QEAA@XZ" PURGE="0" COMMENT="" />
    <EXPORT ORDINAL="134" NAME="??0CWQLScanner@@QEAA@AEAV0@@Z" PURGE="0" COMMENT="" />
    <EXPORT ORDINAL="135" NAME="??0CWQLScanner@@QEAA@PEAVCGenLexSource@@@Z" PURGE="0" COMMENT="" />
    <EXPORT ORDINAL="136" NAME="??0CWStringArray@@QEAA@AEAV0@@Z" PURGE="0" COMMENT="" />
    <EXPORT ORDINAL="137" NAME="??0CWStringArray@@QEAA@HH@Z" PURGE="0" COMMENT="" />
    <EXPORT ORDINAL="138" NAME="??0CWbemCallSecurity@@AEAA@AEBV0@@Z" PURGE="0" COMMENT="" />
    <EXPORT ORDINAL="139" NAME="??0CWbemCallSecurity@@AEAA@XZ" PURGE="0" COMMENT="" />
    <EXPORT ORDINAL="140" NAME="??0CWbemCriticalSection@@QEAA@XZ" PURGE="0" COMMENT="" />
    <EXPORT ORDINAL="141" NAME="??4?$SZLess@PEBG@@QEAAAEAU0@AEBU0@@Z" PURGE="0" COMMENT="" />
    <EXPORT ORDINAL="142" NAME="??0CHex@@QEAA@J@Z" PURGE="0" COMMENT="" />
    <EXPORT ORDINAL="143" NAME="??0CMRCIControl@@QEAA@XZ" PURGE="0" COMMENT="" />
    <EXPORT ORDINAL="144" NAME="??0CWbemTime@@IEAA@_J@Z" PURGE="0" COMMENT="" />
    <EXPORT ORDINAL="145" NAME="??4CDatePart@@QEAAAEAV0@AEBV0@@Z" PURGE="0" COMMENT="" />
    <EXPORT ORDINAL="146" NAME="?GetZero@CWbemTime@@SA?AV1@XZ" PURGE="0" COMMENT="" />
    <EXPORT ORDINAL="147" NAME="??0CWbemTimeSpan@@QEAA@HHHHHHH@Z" PURGE="0" COMMENT="" />
    <EXPORT ORDINAL="148" NAME="??0CWin32DefaultArena@@QEAA@XZ" PURGE="0" COMMENT="" />
    <EXPORT ORDINAL="149" NAME="??0CWin32DefaultArena@@QEAA@AEBV0@@Z" PURGE="0" COMMENT="" />
    <EXPORT ORDINAL="150" NAME="??0QL1_Parser@@QEAA@AEBV0@@Z" PURGE="0" COMMENT="" />
    <EXPORT ORDINAL="151" NAME="??0QL1_Parser@@QEAA@PEAVCGenLexSource@@@Z" PURGE="0" COMMENT="" />
    <EXPORT ORDINAL="152" NAME="??0QL_LEVEL_1_RPN_EXPRESSION@@QEAA@AEBU0@@Z" PURGE="0" COMMENT="" />
    <EXPORT ORDINAL="153" NAME="??0QL_LEVEL_1_RPN_EXPRESSION@@QEAA@XZ" PURGE="0" COMMENT="" />
    <EXPORT ORDINAL="154" NAME="??0QL_LEVEL_1_TOKEN@@QEAA@AEBU0@@Z" PURGE="0" COMMENT="" />
    <EXPORT ORDINAL="155" NAME="??0QL_LEVEL_1_TOKEN@@QEAA@XZ" PURGE="0" COMMENT="" />
    <EXPORT ORDINAL="156" NAME="??0Registry@@QEAA@PEAUHKEY__@@KKPEBG@Z" PURGE="0" COMMENT="" />
    <EXPORT ORDINAL="157" NAME="??0Registry@@QEAA@PEAUHKEY__@@KPEBG@Z" PURGE="0" COMMENT="" />
    <EXPORT ORDINAL="158" NAME="??0Registry@@QEAA@PEBGK@Z" PURGE="0" COMMENT="" />
    <EXPORT ORDINAL="159" NAME="??0Registry@@QEAA@XZ" PURGE="0" COMMENT="" />
    <EXPORT ORDINAL="160" NAME="??0WString@@QEAA@AEBV0@@Z" PURGE="0" COMMENT="" />
    <EXPORT ORDINAL="161" NAME="??0WString@@QEAA@KPEAUHINSTANCE__@@@Z" PURGE="0" COMMENT="" />
    <EXPORT ORDINAL="162" NAME="??0WString@@QEAA@PEAGH@Z" PURGE="0" COMMENT="" />
    <EXPORT ORDINAL="163" NAME="??0WString@@QEAA@PEBD@Z" PURGE="0" COMMENT="" />
    <EXPORT ORDINAL="164" NAME="??0WString@@QEAA@PEBG@Z" PURGE="0" COMMENT="" />
    <EXPORT ORDINAL="165" NAME="??0WString@@QEAA@XZ" PURGE="0" COMMENT="" />
    <EXPORT ORDINAL="166" NAME="??1?$CLockableFlexArray@VCStaticCritSec@@@@QEAA@XZ" PURGE="0" COMMENT="" />
    <EXPORT ORDINAL="167" NAME="??1?$SZLess@PEBG@@UEAA@XZ" PURGE="0" COMMENT="" />
    <EXPORT ORDINAL="168" NAME="??1C9XAce@@UEAA@XZ" PURGE="0" COMMENT="" />
    <EXPORT ORDINAL="169" NAME="??1CAbstractQl1Parser@@UEAA@XZ" PURGE="0" COMMENT="" />
    <EXPORT ORDINAL="170" NAME="??1CBaseAce@@UEAA@XZ" PURGE="0" COMMENT="" />
    <EXPORT ORDINAL="171" NAME="??1CBasicUnloadInstruction@@UEAA@XZ" PURGE="0" COMMENT="" />
    <EXPORT ORDINAL="172" NAME="??1CBuffer@@QEAA@XZ" PURGE="0" COMMENT="" />
    <EXPORT ORDINAL="173" NAME="?Leave@CCheckedInCritSec@@QEAAXXZ" PURGE="0" COMMENT="" />
    <EXPORT ORDINAL="174" NAME="??1CClientOpsNode@@QEAA@XZ" PURGE="-1" COMMENT="" />
    <EXPORT ORDINAL="175" NAME="??1CCritSec@@QEAA@XZ" PURGE="-1" COMMENT="" />
    <EXPORT ORDINAL="176" NAME="??1CMRCICompression@@QEAA@XZ" PURGE="0" COMMENT="" />
    <EXPORT ORDINAL="177" NAME="??1CNtAcl@@QEAA@XZ" PURGE="0" COMMENT="" />
    <EXPORT ORDINAL="178" NAME="??1CDateTimeParser@@QEAA@XZ" PURGE="0" COMMENT="" />
    <EXPORT ORDINAL="179" NAME="??1CEnterWbemCriticalSection@@QEAA@XZ" PURGE="0" COMMENT="" />
    <EXPORT ORDINAL="180" NAME="??1CEventLog@@QEAA@XZ" PURGE="0" COMMENT="" />
    <EXPORT ORDINAL="181" NAME="??1CEventLogRecord@@QEAA@XZ" PURGE="0" COMMENT="" />
    <EXPORT ORDINAL="182" NAME="??1CExecQueue@@QEAA@XZ" PURGE="-1" COMMENT="" />
    <EXPORT ORDINAL="183" NAME="??1CExecRequest@@UEAA@XZ" PURGE="0" COMMENT="" />
    <EXPORT ORDINAL="184" NAME="??1CFlexArray@@QEAA@XZ" PURGE="0" COMMENT="" />
    <EXPORT ORDINAL="185" NAME="??1CLike@@QEAA@XZ" PURGE="0" COMMENT="" />
    <EXPORT ORDINAL="186" NAME="??1CHaltable@@UEAA@XZ" PURGE="-1" COMMENT="" />
    <EXPORT ORDINAL="187" NAME="??1CIdentitySecurity@@QEAA@XZ" PURGE="0" COMMENT="" />
    <EXPORT ORDINAL="188" NAME="??1CIdentityTest@@QEAA@XZ" PURGE="-1" COMMENT="" />
    <EXPORT ORDINAL="189" NAME="??1CInCritSec@@QEAA@XZ" PURGE="-1" COMMENT="" />
    <EXPORT ORDINAL="190" NAME="??1CInsertionString@@QEAA@XZ" PURGE="0" COMMENT="" />
    <EXPORT ORDINAL="191" NAME="??1CInstructionQueue@@QEAA@XZ" PURGE="-1" COMMENT="" />
    <EXPORT ORDINAL="192" NAME="??1CFlexQueue@@QEAA@XZ" PURGE="0" COMMENT="" />
    <EXPORT ORDINAL="193" NAME="??1CLimitControl@@UEAA@XZ" PURGE="0" COMMENT="" />
    <EXPORT ORDINAL="194" NAME="??1CWbemInstallObject@@QEAA@XZ" PURGE="0" COMMENT="" />
    <EXPORT ORDINAL="195" NAME="??1CMUILocaleList@@QEAA@XZ" PURGE="0" COMMENT="" />
    <EXPORT ORDINAL="196" NAME="??1CMinMaxLimitControl@@UEAA@XZ" PURGE="0" COMMENT="" />
    <EXPORT ORDINAL="197" NAME="??1CNtAce@@UEAA@XZ" PURGE="0" COMMENT="" />
    <EXPORT ORDINAL="198" NAME="??1CNtSecurityDescriptor@@QEAA@XZ" PURGE="0" COMMENT="" />
    <EXPORT ORDINAL="199" NAME="??1CDatePart@@QEAA@XZ" PURGE="0" COMMENT="" />
    <EXPORT ORDINAL="200" NAME="??1CNtSid@@QEAA@XZ" PURGE="0" COMMENT="" />
    <EXPORT ORDINAL="201" NAME="??1CPropertyName@@QEAA@XZ" PURGE="0" COMMENT="" />
    <EXPORT ORDINAL="202" NAME="??1CPublishWMIOperationEvent@@QEAA@XZ" PURGE="0" COMMENT="" />
    <EXPORT ORDINAL="203" NAME="??1CRegistryMinMaxLimitControl@@UEAA@XZ" PURGE="0" COMMENT="" />
    <EXPORT ORDINAL="204" NAME="??1CSafeArray@@QEAA@XZ" PURGE="0" COMMENT="" />
    <EXPORT ORDINAL="205" NAME="??1CStaticCritSec@@QEAA@XZ" PURGE="0" COMMENT="" />
    <EXPORT ORDINAL="206" NAME="??1CTextTemplate@@QEAA@XZ" PURGE="0" COMMENT="" />
    <EXPORT ORDINAL="207" NAME="??1CTimerGenerator@@UEAA@XZ" PURGE="-1" COMMENT="" />
    <EXPORT ORDINAL="208" NAME="??1CTimerInstruction@@UEAA@XZ" PURGE="0" COMMENT="" />
    <EXPORT ORDINAL="209" NAME="??1CUnk@@UEAA@XZ" PURGE="0" COMMENT="" />
    <EXPORT ORDINAL="210" NAME="??1CUnkInternal@@UEAA@XZ" PURGE="0" COMMENT="" />
    <EXPORT ORDINAL="211" NAME="??1CVar@@QEAA@XZ" PURGE="0" COMMENT="" />
    <EXPORT ORDINAL="212" NAME="??1CVarVector@@QEAA@XZ" PURGE="0" COMMENT="" />
    <EXPORT ORDINAL="213" NAME="??1CWQLScanner@@QEAA@XZ" PURGE="0" COMMENT="" />
    <EXPORT ORDINAL="214" NAME="??1CWStringArray@@QEAA@XZ" PURGE="0" COMMENT="" />
    <EXPORT ORDINAL="215" NAME="??1CWbemCallSecurity@@AEAA@XZ" PURGE="0" COMMENT="" />
    <EXPORT ORDINAL="216" NAME="??1CWbemCriticalSection@@QEAA@XZ" PURGE="0" COMMENT="" />
    <EXPORT ORDINAL="217" NAME="?AdjustInitialPriority@CExecQueue@@MEAAXPEAVCExecRequest@@@Z" PURGE="0" COMMENT="" />
    <EXPORT ORDINAL="218" NAME="??1CWin32DefaultArena@@QEAA@XZ" PURGE="0" COMMENT="" />
    <EXPORT ORDINAL="219" NAME="??1QL1_Parser@@UEAA@XZ" PURGE="0" COMMENT="" />
    <EXPORT ORDINAL="220" NAME="??1QL_LEVEL_1_RPN_EXPRESSION@@QEAA@XZ" PURGE="0" COMMENT="" />
    <EXPORT ORDINAL="221" NAME="??1QL_LEVEL_1_TOKEN@@QEAA@XZ" PURGE="0" COMMENT="" />
    <EXPORT ORDINAL="222" NAME="??1Registry@@QEAA@XZ" PURGE="0" COMMENT="" />
    <EXPORT ORDINAL="223" NAME="??1WString@@QEAA@XZ" PURGE="0" COMMENT="" />
    <EXPORT ORDINAL="224" NAME="??4?$CLockableFlexArray@VCStaticCritSec@@@@QEAAAEAV0@AEAV0@@Z" PURGE="0" COMMENT="" />
    <EXPORT ORDINAL="225" NAME="??4CArena@@QEAAAEAV0@AEBV0@@Z" PURGE="0" COMMENT="" />
    <EXPORT ORDINAL="226" NAME="??4C9XAce@@QEAAAEAV0@AEBV0@@Z" PURGE="0" COMMENT="" />
    <EXPORT ORDINAL="227" NAME="??4CAbstractQl1Parser@@QEAAAEAV0@AEBV0@@Z" PURGE="0" COMMENT="" />
    <EXPORT ORDINAL="228" NAME="??4CBaseAce@@QEAAAEAV0@AEBV0@@Z" PURGE="0" COMMENT="" />
    <EXPORT ORDINAL="229" NAME="??4CInstructionTest@@QEAAAEAV0@AEBV0@@Z" PURGE="0" COMMENT="" />
    <EXPORT ORDINAL="230" NAME="??4CMRCICompression@@QEAAAEAV0@AEBV0@@Z" PURGE="0" COMMENT="" />
    <EXPORT ORDINAL="231" NAME="??4CBasicUnloadInstruction@@QEAAAEAV0@AEBV0@@Z" PURGE="0" COMMENT="" />
    <EXPORT ORDINAL="232" NAME="??4CBuffer@@QEAAAEAV0@AEBV0@@Z" PURGE="0" COMMENT="" />
    <EXPORT ORDINAL="233" NAME="??4CEnterWbemCriticalSection@@QEAAAEAV0@AEBV0@@Z" PURGE="0" COMMENT="" />
    <EXPORT ORDINAL="234" NAME="??4CCircularQueue@@QEAAAEAV0@AEBV0@@Z" PURGE="0" COMMENT="" />
    <EXPORT ORDINAL="235" NAME="??4CCritSec@@QEAAAEAV0@AEBV0@@Z" PURGE="0" COMMENT="" />
    <EXPORT ORDINAL="236" NAME="??4CIdentityTest@@QEAAAEAV0@AEBV0@@Z" PURGE="0" COMMENT="" />
    <EXPORT ORDINAL="237" NAME="??4CMUILocaleList@@QEAAAEAV0@AEBV0@@Z" PURGE="0" COMMENT="" />
    <EXPORT ORDINAL="238" NAME="??4CDMTFParser@@QEAAAEAV0@AEBV0@@Z" PURGE="0" COMMENT="" />
    <EXPORT ORDINAL="239" NAME="??4CInCritSec@@QEAAAEAV0@AEBV0@@Z" PURGE="0" COMMENT="" />
    <EXPORT ORDINAL="240" NAME="??4CDateTimeParser@@QEAAAEAV0@AEBV0@@Z" PURGE="0" COMMENT="" />
    <EXPORT ORDINAL="241" NAME="??4CSmallArrayBlob@@QEAAAEAV0@AEBV0@@Z" PURGE="0" COMMENT="" />
    <EXPORT ORDINAL="242" NAME="??4CEventLog@@QEAAAEAV0@AEBV0@@Z" PURGE="0" COMMENT="" />
    <EXPORT ORDINAL="243" NAME="??4CEventLogRecord@@QEAAAEAV0@AEAV0@@Z" PURGE="0" COMMENT="" />
    <EXPORT ORDINAL="244" NAME="??4CExecQueue@@QEAAAEAV0@AEAV0@@Z" PURGE="0" COMMENT="" />
    <EXPORT ORDINAL="245" NAME="??4CExecRequest@@QEAAAEAV0@AEBV0@@Z" PURGE="0" COMMENT="" />
    <EXPORT ORDINAL="246" NAME="??4CFlexArray@@QEAAAEAV0@AEAV0@@Z" PURGE="0" COMMENT="" />
    <EXPORT ORDINAL="247" NAME="??4CWbemCriticalSection@@QEAAAEAV0@AEBV0@@Z" PURGE="0" COMMENT="" />
    <EXPORT ORDINAL="248" NAME="??4CHaltable@@QEAAAEAV0@AEBV0@@Z" PURGE="0" COMMENT="" />
    <EXPORT ORDINAL="249" NAME="??4CMRCIControl@@QEAAAEAV0@AEBV0@@Z" PURGE="0" COMMENT="" />
    <EXPORT ORDINAL="250" NAME="??4CIdentitySecurity@@QEAAAEAV0@AEBV0@@Z" PURGE="0" COMMENT="" />
    <EXPORT ORDINAL="251" NAME="??4CContainerControl@@QEAAAEAV0@AEBV0@@Z" PURGE="0" COMMENT="" />
    <EXPORT ORDINAL="252" NAME="??4CWbemTimeSpan@@QEAAAEAV0@AEBV0@@Z" PURGE="0" COMMENT="" />
    <EXPORT ORDINAL="253" NAME="??4CInsertionString@@QEAAAEAV0@AEBV0@@Z" PURGE="0" COMMENT="" />
    <EXPORT ORDINAL="254" NAME="??4CInstructionQueue@@QEAAAEAV0@AEBV0@@Z" PURGE="0" COMMENT="" />
    <EXPORT ORDINAL="255" NAME="??4CLifeControl@@QEAAAEAV0@AEBV0@@Z" PURGE="0" COMMENT="" />
    <EXPORT ORDINAL="256" NAME="??4CMUILocale@@QEAAAEAV0@AEBV0@@Z" PURGE="0" COMMENT="" />
    <EXPORT ORDINAL="257" NAME="??4CLike@@QEAAAEAV0@AEBV0@@Z" PURGE="0" COMMENT="" />
    <EXPORT ORDINAL="258" NAME="??4CLimitControl@@QEAAAEAV0@AEBV0@@Z" PURGE="0" COMMENT="" />
    <EXPORT ORDINAL="259" NAME="??4CBaseMrciCompression@@QEAAAEAV0@AEBV0@@Z" PURGE="0" COMMENT="" />
    <EXPORT ORDINAL="260" NAME="??4CWbemInterval@@QEAAAEAV0@AEBV0@@Z" PURGE="0" COMMENT="" />
    <EXPORT ORDINAL="261" NAME="??4CNtSecurity@@QEAAAEAV0@AEBV0@@Z" PURGE="0" COMMENT="" />
    <EXPORT ORDINAL="262" NAME="??4CClientOpsNode@@QEAAAEAV0@AEBV0@@Z" PURGE="0" COMMENT="" />
    <EXPORT ORDINAL="263" NAME="??4CMemoryLog@@QEAAAEAV0@AEBV0@@Z" PURGE="0" COMMENT="" />
    <EXPORT ORDINAL="264" NAME="??4CMinMaxLimitControl@@QEAAAEAV0@AEBV0@@Z" PURGE="0" COMMENT="" />
    <EXPORT ORDINAL="265" NAME="??4CNtAce@@QEAAAEAV0@AEBV0@@Z" PURGE="0" COMMENT="" />
    <EXPORT ORDINAL="266" NAME="??4CNtAcl@@QEAAAEAV0@AEBV0@@Z" PURGE="0" COMMENT="" />
    <EXPORT ORDINAL="267" NAME="??4CPersistentConfig@@QEAAAEAV0@AEBV0@@Z" PURGE="0" COMMENT="" />
    <EXPORT ORDINAL="268" NAME="??4CNtSecurityDescriptor@@QEAAAEAV0@AEAV0@@Z" PURGE="0" COMMENT="" />
    <EXPORT ORDINAL="269" NAME="??4CNtSid@@QEAAAEAV0@AEBV0@@Z" PURGE="0" COMMENT="" />
    <EXPORT ORDINAL="270" NAME="??4CPublishWMIOperationEvent@@QEAAAEAV0@AEBV0@@Z" PURGE="0" COMMENT="" />
    <EXPORT ORDINAL="271" NAME="??4CPropertyName@@QEAAXAEBU_tag_WbemPropertyName@@@Z" PURGE="0" COMMENT="" />
    <EXPORT ORDINAL="272" NAME="??4CPropertyName@@QEAAXAEBV0@@Z" PURGE="0" COMMENT="" />
    <EXPORT ORDINAL="273" NAME="??4CQl1ParseSink@@QEAAAEAV0@AEBV0@@Z" PURGE="0" COMMENT="" />
    <EXPORT ORDINAL="274" NAME="??4CTimerInstruction@@QEAAAEAV0@AEBV0@@Z" PURGE="0" COMMENT="" />
    <EXPORT ORDINAL="275" NAME="??4CRegistryMinMaxLimitControl@@QEAAAEAV0@AEBV0@@Z" PURGE="0" COMMENT="" />
    <EXPORT ORDINAL="276" NAME="??4CSafeArray@@QEAAAEAV0@AEAV0@@Z" PURGE="0" COMMENT="" />
    <EXPORT ORDINAL="277" NAME="??4CCheckedInCritSec@@QEAAAEAV0@AEBV0@@Z" PURGE="0" COMMENT="" />
    <EXPORT ORDINAL="278" NAME="??4CStaticCritSec@@QEAAAEAV0@AEBV0@@Z" PURGE="0" COMMENT="" />
    <EXPORT ORDINAL="279" NAME="??4CTextTemplate@@QEAAAEAV0@AEBV0@@Z" PURGE="0" COMMENT="" />
    <EXPORT ORDINAL="280" NAME="??4CTimerGenerator@@QEAAAEAV0@AEBV0@@Z" PURGE="0" COMMENT="" />
    <EXPORT ORDINAL="281" NAME="??4CWbemInstallObject@@QEAAAEAV0@AEBV0@@Z" PURGE="0" COMMENT="" />
    <EXPORT ORDINAL="282" NAME="??4CTraceSessionControl@@QEAAAEAV0@AEBV0@@Z" PURGE="0" COMMENT="" />
    <EXPORT ORDINAL="283" NAME="??4CUnk@@QEAAAEAV0@AEBV0@@Z" PURGE="0" COMMENT="" />
    <EXPORT ORDINAL="284" NAME="??4CUnkInternal@@QEAAAEAV0@AEBV0@@Z" PURGE="0" COMMENT="" />
    <EXPORT ORDINAL="285" NAME="??4CVar@@QEAAAEAV0@AEBV0@@Z" PURGE="0" COMMENT="" />
    <EXPORT ORDINAL="286" NAME="??4CVarVector@@QEAAAEAV0@AEAV0@@Z" PURGE="0" COMMENT="" />
    <EXPORT ORDINAL="287" NAME="??4CWMITraceSettings@@QEAAAEAV0@AEBV0@@Z" PURGE="0" COMMENT="" />
    <EXPORT ORDINAL="288" NAME="??4CWQLScanner@@QEAAAEAV0@AEAV0@@Z" PURGE="0" COMMENT="" />
    <EXPORT ORDINAL="289" NAME="??4CWStringArray@@QEAAAEAV0@AEAV0@@Z" PURGE="0" COMMENT="" />
    <EXPORT ORDINAL="290" NAME="??4CWbemCallSecurity@@AEAAAEAV0@AEBV0@@Z" PURGE="0" COMMENT="" />
    <EXPORT ORDINAL="291" NAME="??4Registry@@QEAAAEAV0@AEBV0@@Z" PURGE="0" COMMENT="" />
    <EXPORT ORDINAL="292" NAME="??4CWin32DefaultArena@@QEAAAEAV0@AEBV0@@Z" PURGE="0" COMMENT="" />
    <EXPORT ORDINAL="293" NAME="??4CHex@@QEAAAEAV0@AEBV0@@Z" PURGE="0" COMMENT="" />
    <EXPORT ORDINAL="294" NAME="??4CWbemTime@@QEAAXAEBV0@@Z" PURGE="0" COMMENT="" />
    <EXPORT ORDINAL="295" NAME="??0CWbemTime@@QEAA@AEBV0@@Z" PURGE="0" COMMENT="" />
    <EXPORT ORDINAL="296" NAME="??4MD5@@QEAAAEAV0@AEBV0@@Z" PURGE="0" COMMENT="" />
    <EXPORT ORDINAL="297" NAME="??4SHA256@@QEAAAEAV0@AEBV0@@Z" PURGE="0" COMMENT="" />
    <EXPORT ORDINAL="298" NAME="??4QL1_Parser@@QEAAAEAV0@AEBV0@@Z" PURGE="0" COMMENT="" />
    <EXPORT ORDINAL="299" NAME="??4QL_LEVEL_1_RPN_EXPRESSION@@QEAAAEAU0@AEBU0@@Z" PURGE="0" COMMENT="" />
    <EXPORT ORDINAL="300" NAME="??4QL_LEVEL_1_TOKEN@@QEAAAEAU0@AEBU0@@Z" PURGE="0" COMMENT="" />
    <EXPORT ORDINAL="301" NAME="??4QL_LEVEL_1_TOKEN@@QEAAAEAU0@AEBU_tag_WbemQl1Token@@@Z" PURGE="0" COMMENT="" />
    <EXPORT ORDINAL="302" NAME="??4CFlexQueue@@QEAAAEAV0@AEBV0@@Z" PURGE="0" COMMENT="" />
    <EXPORT ORDINAL="303" NAME="?GetInnerUnknown@CUnk@@QEAAPEAUIUnknown@@XZ" PURGE="0" COMMENT="" />
    <EXPORT ORDINAL="304" NAME="??4WString@@QEAAAEAV0@AEBV0@@Z" PURGE="0" COMMENT="" />
    <EXPORT ORDINAL="305" NAME="??4WString@@QEAAAEAV0@PEBG@Z" PURGE="0" COMMENT="" />
    <EXPORT ORDINAL="306" NAME="??8CEventLogRecord@@QEAAHAEBV0@@Z" PURGE="0" COMMENT="" />
    <EXPORT ORDINAL="307" NAME="??8CNtSid@@QEAAHAEAV0@@Z" PURGE="0" COMMENT="" />
    <EXPORT ORDINAL="308" NAME="??8CPropertyName@@QEAAHAEBU_tag_WbemPropertyName@@@Z" PURGE="0" COMMENT="" />
    <EXPORT ORDINAL="309" NAME="??8CVar@@QEAAHAEAV0@@Z" PURGE="0" COMMENT="" />
    <EXPORT ORDINAL="310" NAME="??8CVarVector@@QEAAHAEAV0@@Z" PURGE="0" COMMENT="" />
    <EXPORT ORDINAL="311" NAME="??ACFlexArray@@QEAAAEAPEAXH@Z" PURGE="0" COMMENT="" />
    <EXPORT ORDINAL="312" NAME="??ACFlexArray@@QEBAPEAXH@Z" PURGE="0" COMMENT="" />
    <EXPORT ORDINAL="313" NAME="?GetAt@CSmallArrayBlob@@QEBAPEAXH@Z" PURGE="0" COMMENT="" />
    <EXPORT ORDINAL="314" NAME="??ACVarVector@@QEAAAEAVCVar@@H@Z" PURGE="0" COMMENT="" />
    <EXPORT ORDINAL="315" NAME="?GetAt@CWStringArray@@QEBAPEAGH@Z" PURGE="0" COMMENT="" />
    <EXPORT ORDINAL="316" NAME="??AWString@@QEBAGH@Z" PURGE="0" COMMENT="" />
    <EXPORT ORDINAL="317" NAME="?AbortRequested@CMRCIControl@@QEAAHXZ" PURGE="0" COMMENT="" />
    <EXPORT ORDINAL="318" NAME="?GetFileTime@CVar@@QEAA?AU_FILETIME@@XZ" PURGE="0" COMMENT="" />
    <EXPORT ORDINAL="319" NAME="??BCVar@@QEAAEXZ" PURGE="0" COMMENT="" />
    <EXPORT ORDINAL="320" NAME="?GetByte@CVar@@QEAAEXZ" PURGE="0" COMMENT="" />
    <EXPORT ORDINAL="321" NAME="??BCVar@@QEAAGXZ" PURGE="0" COMMENT="" />
    <EXPORT ORDINAL="322" NAME="?GetBool@CVar@@QEAAFXZ" PURGE="0" COMMENT="" />
    <EXPORT ORDINAL="323" NAME="??BCVar@@QEAAKXZ" PURGE="0" COMMENT="" />
    <EXPORT ORDINAL="324" NAME="?GetDWORD@CVar@@QEAAKXZ" PURGE="0" COMMENT="" />
    <EXPORT ORDINAL="325" NAME="?GetFloat@CVar@@QEAAMXZ" PURGE="0" COMMENT="" />
    <EXPORT ORDINAL="326" NAME="?GetDouble@CVar@@QEAANXZ" PURGE="0" COMMENT="" />
    <EXPORT ORDINAL="327" NAME="??BCVar@@QEAAPEAGXZ" PURGE="0" COMMENT="" />
    <EXPORT ORDINAL="328" NAME="??BCVar@@QEAAPEAU_GUID@@XZ" PURGE="0" COMMENT="" />
    <EXPORT ORDINAL="329" NAME="??BCVar@@QEAAPEAVCVarVector@@XZ" PURGE="0" COMMENT="" />
    <EXPORT ORDINAL="330" NAME="?GetArrayPtr@CSmallArrayBlob@@QEAAPEAPEAXXZ" PURGE="0" COMMENT="" />
    <EXPORT ORDINAL="331" NAME="?GetClsId@CVar@@QEAAPEAU_GUID@@XZ" PURGE="0" COMMENT="" />
    <EXPORT ORDINAL="332" NAME="??BWString@@QEBAPEBGXZ" PURGE="0" COMMENT="" />
    <EXPORT ORDINAL="333" NAME="?Get100nss@CWbemTime@@QEBA_JXZ" PURGE="0" COMMENT="" />
    <EXPORT ORDINAL="334" NAME="??DCWbemInterval@@QEBA?AV0@N@Z" PURGE="0" COMMENT="" />
    <EXPORT ORDINAL="335" NAME="??GCWbemTime@@QEBA?AV0@AEBVCWbemTimeSpan@@@Z" PURGE="0" COMMENT="" />
    <EXPORT ORDINAL="336" NAME="??GCWbemTime@@QEBA?AVCWbemInterval@@AEBV0@@Z" PURGE="0" COMMENT="" />
    <EXPORT ORDINAL="337" NAME="??HCWbemInterval@@QEBA?AV0@V0@@Z" PURGE="0" COMMENT="" />
    <EXPORT ORDINAL="338" NAME="??HCWbemTime@@QEBA?AV0@AEBVCWbemInterval@@@Z" PURGE="0" COMMENT="" />
    <EXPORT ORDINAL="339" NAME="??HCWbemTime@@QEBA?AV0@AEBVCWbemTimeSpan@@@Z" PURGE="0" COMMENT="" />
    <EXPORT ORDINAL="340" NAME="??MCWbemInterval@@QEAAHV0@@Z" PURGE="0" COMMENT="" />
    <EXPORT ORDINAL="341" NAME="??MCWbemTime@@QEBAHAEBV0@@Z" PURGE="0" COMMENT="" />
    <EXPORT ORDINAL="342" NAME="??MWString@@QEBAHPEBG@Z" PURGE="0" COMMENT="" />
    <EXPORT ORDINAL="343" NAME="??NCWbemTime@@QEBAHAEBV0@@Z" PURGE="0" COMMENT="" />
    <EXPORT ORDINAL="344" NAME="??NWString@@QEBAHPEBG@Z" PURGE="0" COMMENT="" />
    <EXPORT ORDINAL="345" NAME="??OCWbemInterval@@QEAAHV0@@Z" PURGE="0" COMMENT="" />
    <EXPORT ORDINAL="346" NAME="??OCWbemTime@@QEBAHAEBV0@@Z" PURGE="0" COMMENT="" />
    <EXPORT ORDINAL="347" NAME="??OWString@@QEBAHPEBG@Z" PURGE="0" COMMENT="" />
    <EXPORT ORDINAL="348" NAME="??PCWbemTime@@QEBAHAEBV0@@Z" PURGE="0" COMMENT="" />
    <EXPORT ORDINAL="349" NAME="??PWString@@QEBAHPEBG@Z" PURGE="0" COMMENT="" />
    <EXPORT ORDINAL="350" NAME="??R?$SZLess@PEBG@@QEBA_NAEBQEBG0@Z" PURGE="0" COMMENT="" />
    <EXPORT ORDINAL="351" NAME="??RCIdentityTest@@UEAAHPEAVCTimerInstruction@@@Z" PURGE="0" COMMENT="" />
    <EXPORT ORDINAL="352" NAME="??RWString@@QEBA?AV0@HH@Z" PURGE="0" COMMENT="" />
    <EXPORT ORDINAL="353" NAME="??YCWbemInterval@@QEAAXV0@@Z" PURGE="0" COMMENT="" />
    <EXPORT ORDINAL="354" NAME="??YWString@@QEAAAEAV0@AEBV0@@Z" PURGE="0" COMMENT="" />
    <EXPORT ORDINAL="355" NAME="??YWString@@QEAAAEAV0@G@Z" PURGE="0" COMMENT="" />
    <EXPORT ORDINAL="356" NAME="??YWString@@QEAAAEAV0@PEBG@Z" PURGE="0" COMMENT="" />
    <EXPORT ORDINAL="357" NAME="??_7?$SZLess@PEBG@@6B@" PURGE="-1" COMMENT="" />
    <EXPORT ORDINAL="358" NAME="??_7C9XAce@@6B@" PURGE="-1" COMMENT="" />
    <EXPORT ORDINAL="359" NAME="??_7CAbstractQl1Parser@@6B@" PURGE="-1" COMMENT="" />
    <EXPORT ORDINAL="360" NAME="??_7CArena@@6B@" PURGE="-1" COMMENT="" />
    <EXPORT ORDINAL="361" NAME="??_7CBaseAce@@6B@" PURGE="-1" COMMENT="" />
    <EXPORT ORDINAL="362" NAME="??_7CBasicUnloadInstruction@@6B@" PURGE="-1" COMMENT="" />
    <EXPORT ORDINAL="363" NAME="??_7CBuffer@@6B@" PURGE="-1" COMMENT="" />
    <EXPORT ORDINAL="364" NAME="??_7CContainerControl@@6B@" PURGE="-1" COMMENT="" />
    <EXPORT ORDINAL="365" NAME="??_7CExecQueue@@6B@" PURGE="-1" COMMENT="" />
    <EXPORT ORDINAL="366" NAME="??_7CExecRequest@@6B@" PURGE="-1" COMMENT="" />
    <EXPORT ORDINAL="367" NAME="??_7CHaltable@@6B@" PURGE="-1" COMMENT="" />
    <EXPORT ORDINAL="368" NAME="??_7CIdentityTest@@6B@" PURGE="-1" COMMENT="" />
    <EXPORT ORDINAL="369" NAME="??_7CInstructionTest@@6B@" PURGE="-1" COMMENT="" />
    <EXPORT ORDINAL="370" NAME="??_7CLifeControl@@6B@" PURGE="-1" COMMENT="" />
    <EXPORT ORDINAL="371" NAME="??_7CLimitControl@@6B@" PURGE="-1" COMMENT="" />
    <EXPORT ORDINAL="372" NAME="??_7CMinMaxLimitControl@@6B@" PURGE="-1" COMMENT="" />
    <EXPORT ORDINAL="373" NAME="??_7CNtAce@@6B@" PURGE="-1" COMMENT="" />
    <EXPORT ORDINAL="374" NAME="??_7CQl1ParseSink@@6B@" PURGE="-1" COMMENT="" />
    <EXPORT ORDINAL="375" NAME="??_7CRegistryMinMaxLimitControl@@6B@" PURGE="-1" COMMENT="" />
    <EXPORT ORDINAL="376" NAME="??_7CTimerGenerator@@6B@" PURGE="-1" COMMENT="" />
    <EXPORT ORDINAL="377" NAME="??_7CTimerInstruction@@6B@" PURGE="-1" COMMENT="" />
    <EXPORT ORDINAL="378" NAME="??_7CUnk@@6B@" PURGE="-1" COMMENT="" />
    <EXPORT ORDINAL="379" NAME="??_7CUnkInternal@@6B@" PURGE="-1" COMMENT="" />
    <EXPORT ORDINAL="380" NAME="??_7CWbemCallSecurity@@6B@" PURGE="-1" COMMENT="" />
    <EXPORT ORDINAL="381" NAME="??_7CWin32DefaultArena@@6B@" PURGE="-1" COMMENT="" />
    <EXPORT ORDINAL="382" NAME="??_7QL1_Parser@@6B@" PURGE="-1" COMMENT="" />
    <EXPORT ORDINAL="383" NAME="??_7QL_LEVEL_1_RPN_EXPRESSION@@6B@" PURGE="-1" COMMENT="" />
    <EXPORT ORDINAL="384" NAME="??_FCBuffer@@QEAAXXZ" PURGE="0" COMMENT="" />
    <EXPORT ORDINAL="385" NAME="??_FCEventLog@@QEAAXXZ" PURGE="0" COMMENT="" />
    <EXPORT ORDINAL="386" NAME="??_FCFlexArray@@QEAAXXZ" PURGE="0" COMMENT="" />
    <EXPORT ORDINAL="387" NAME="??_FCFlexQueue@@QEAAXXZ" PURGE="0" COMMENT="" />
    <EXPORT ORDINAL="388" NAME="??_FCNtAcl@@QEAAXXZ" PURGE="0" COMMENT="" />
    <EXPORT ORDINAL="389" NAME="??_FCTextTemplate@@QEAAXXZ" PURGE="0" COMMENT="" />
    <EXPORT ORDINAL="390" NAME="??_FCUnk@@QEAAXXZ" PURGE="0" COMMENT="" />
    <EXPORT ORDINAL="391" NAME="??_FCWStringArray@@QEAAXXZ" PURGE="0" COMMENT="" />
    <EXPORT ORDINAL="392" NAME="?AbortCompression@CMRCIControl@@QEAAXXZ" PURGE="0" COMMENT="" />
    <EXPORT ORDINAL="393" NAME="?GetLockCount@CWbemCriticalSection@@QEAAJXZ" PURGE="0" COMMENT="" />
    <EXPORT ORDINAL="394" NAME="?Access@CSafeArray@@QEAAJPEAPEAX@Z" PURGE="-1" COMMENT="" />
    <EXPORT ORDINAL="395" NAME="?AccessCheck@CIdentitySecurity@@QEAAHXZ" PURGE="0" COMMENT="" />
    <EXPORT ORDINAL="396" NAME="?AccessRawArray@CVarVector@@QEAAJPEAPEAX@Z" PURGE="0" COMMENT="" />
    <EXPORT ORDINAL="397" NAME="?Add@CFlexArray@@QEAAHPEAX@Z" PURGE="0" COMMENT="" />
    <EXPORT ORDINAL="398" NAME="?Add@CMinMaxLimitControl@@UEAAJKKPEAK@Z" PURGE="0" COMMENT="" />
    <EXPORT ORDINAL="399" NAME="?Add@CVarVector@@QEAAHAEAVCVar@@@Z" PURGE="0" COMMENT="" />
    <EXPORT ORDINAL="400" NAME="?Add@CVarVector@@QEAAHPEAVCVar@@@Z" PURGE="0" COMMENT="" />
    <EXPORT ORDINAL="401" NAME="?Add@CWStringArray@@QEAAHPEBG@Z" PURGE="0" COMMENT="" />
    <EXPORT ORDINAL="402" NAME="?AddAce@CNtAcl@@QEAAHPEAVCNtAce@@@Z" PURGE="0" COMMENT="" />
    <EXPORT ORDINAL="403" NAME="?AddAggregationProperty@QL_LEVEL_1_RPN_EXPRESSION@@UEAAXAEBVCPropertyName@@@Z" PURGE="0" COMMENT="" />
    <EXPORT ORDINAL="404" NAME="?AddAllAggregationProperties@QL_LEVEL_1_RPN_EXPRESSION@@UEAAXXZ" PURGE="0" COMMENT="" />
    <EXPORT ORDINAL="405" NAME="?AddAllProperties@QL_LEVEL_1_RPN_EXPRESSION@@UEAAXXZ" PURGE="0" COMMENT="" />
    <EXPORT ORDINAL="406" NAME="?AddAppropriateToken@CAbstractQl1Parser@@IEAAXAEBU_tag_WbemQl1Token@@@Z" PURGE="0" COMMENT="" />
    <EXPORT ORDINAL="407" NAME="?AddBSTR@CSafeArray@@QEAAHPEAG@Z" PURGE="0" COMMENT="" />
    <EXPORT ORDINAL="408" NAME="?AddShort@CSafeArray@@QEAAHF@Z" PURGE="0" COMMENT="" />
    <EXPORT ORDINAL="409" NAME="?AddByte@CSafeArray@@QEAAHE@Z" PURGE="0" COMMENT="" />
    <EXPORT ORDINAL="410" NAME="?AddChild@CClientOpsNode@@QEAAXPEAV1@@Z" PURGE="-1" COMMENT="" />
    <EXPORT ORDINAL="411" NAME="?AddCulture@CMUILocaleList@@AEAAJPEBGW4LocaleType@CMUILocale@@K@Z" PURGE="0" COMMENT="" />
    <EXPORT ORDINAL="412" NAME="?AddUnknown@CSafeArray@@QEAAHPEAUIUnknown@@@Z" PURGE="0" COMMENT="" />
    <EXPORT ORDINAL="413" NAME="?AddDouble@CSafeArray@@QEAAHN@Z" PURGE="0" COMMENT="" />
    <EXPORT ORDINAL="414" NAME="?AddElement@CPropertyName@@QEAAXPEBG@Z" PURGE="0" COMMENT="" />
    <EXPORT ORDINAL="415" NAME="?AddEnvironmentValue@CWbemInstallObject@@SAJPEBG0@Z" PURGE="0" COMMENT="" />
    <EXPORT ORDINAL="416" NAME="?AddFloat@CSafeArray@@QEAAHM@Z" PURGE="0" COMMENT="" />
    <EXPORT ORDINAL="417" NAME="?AddHavingToken@QL_LEVEL_1_RPN_EXPRESSION@@UEAAXAEBU_tag_WbemQl1Token@@@Z" PURGE="0" COMMENT="" />
    <EXPORT ORDINAL="418" NAME="?AddInsertionString@CEventLogRecord@@IEAAXAEAVCInsertionString@@@Z" PURGE="0" COMMENT="" />
    <EXPORT ORDINAL="419" NAME="?AddLocale@CMUILocaleList@@AEAAJPEBGW4LocaleType@CMUILocale@@K@Z" PURGE="0" COMMENT="" />
    <EXPORT ORDINAL="420" NAME="?AddLong@CSafeArray@@QEAAHJ@Z" PURGE="0" COMMENT="" />
    <EXPORT ORDINAL="421" NAME="?AddMember@CLimitControl@@UEAAJXZ" PURGE="0" COMMENT="" />
    <EXPORT ORDINAL="422" NAME="?AddProperty@QL_LEVEL_1_RPN_EXPRESSION@@UEAAXAEBVCPropertyName@@@Z" PURGE="0" COMMENT="" />
    <EXPORT ORDINAL="423" NAME="?AddRecord@CEventLog@@IEAAHPEAVCEventLogRecord@@@Z" PURGE="0" COMMENT="" />
    <EXPORT ORDINAL="424" NAME="?AddRef@CExecQueue@@QEAAXXZ" PURGE="0" COMMENT="" />
    <EXPORT ORDINAL="425" NAME="?AddRef@CUnk@@UEAAKXZ" PURGE="0" COMMENT="" />
    <EXPORT ORDINAL="426" NAME="?AddRef@CContainerControl@@UEAAXPEAUIUnknown@@@Z" PURGE="-1" COMMENT="" />
    <EXPORT ORDINAL="427" NAME="?AddRef@CBasicUnloadInstruction@@UEAAXXZ" PURGE="0" COMMENT="" />
    <EXPORT ORDINAL="428" NAME="?AddRef@CWbemCallSecurity@@UEAAKXZ" PURGE="0" COMMENT="" />
    <EXPORT ORDINAL="429" NAME="?AddRef@CUnkInternal@@UEAAKXZ" PURGE="0" COMMENT="" />
    <EXPORT ORDINAL="430" NAME="?InternalAddRef@CUnkInternal@@QEAAKXZ" PURGE="0" COMMENT="" />
    <EXPORT ORDINAL="431" NAME="?AddRef@QL_LEVEL_1_RPN_EXPRESSION@@QEAAXXZ" PURGE="0" COMMENT="" />
    <EXPORT ORDINAL="432" NAME="?AddScalar@CSafeArray@@AEAAHTSA_ArrayScalar@@@Z" PURGE="0" COMMENT="" />
    <EXPORT ORDINAL="433" NAME="?AddBool@CSafeArray@@QEAAHF@Z" PURGE="0" COMMENT="" />
    <EXPORT ORDINAL="434" NAME="?AddToken@QL_LEVEL_1_RPN_EXPRESSION@@QEAAXAEBUQL_LEVEL_1_TOKEN@@@Z" PURGE="0" COMMENT="" />
    <EXPORT ORDINAL="435" NAME="?AddToken@QL_LEVEL_1_RPN_EXPRESSION@@UEAAXAEBU_tag_WbemQl1Token@@@Z" PURGE="0" COMMENT="" />
    <EXPORT ORDINAL="436" NAME="?AddVariant@CSafeArray@@QEAAHPEAUtagVARIANT@@@Z" PURGE="0" COMMENT="" />
    <EXPORT ORDINAL="437" NAME="?AddDispatch@CSafeArray@@QEAAHPEAUIDispatch@@@Z" PURGE="0" COMMENT="" />
    <EXPORT ORDINAL="438" NAME="?AdjustPriorityForPassing@CExecQueue@@MEAAXPEAVCExecRequest@@@Z" PURGE="0" COMMENT="" />
    <EXPORT ORDINAL="439" NAME="?CheckType@CSafeArray@@AEAAXH@Z" PURGE="0" COMMENT="" />
    <EXPORT ORDINAL="440" NAME="?AdjustPrivIfLocalSystem@@YAXPEAX@Z" PURGE="0" COMMENT="" />
    <EXPORT ORDINAL="441" NAME="?Advance@CBuffer@@QEAAJK@Z" PURGE="-1" COMMENT="" />
    <EXPORT ORDINAL="442" NAME="?AliasToTable@CWQLScanner@@QEAAQEAGPEAG@Z" PURGE="0" COMMENT="" />
    <EXPORT ORDINAL="443" NAME="?Alloc@CWin32DefaultArena@@UEAAPEAX_K@Z" PURGE="0" COMMENT="" />
    <EXPORT ORDINAL="444" NAME="?AllocAmPm@CDateTimeParser@@IEAAPEAGXZ" PURGE="0" COMMENT="" />
    <EXPORT ORDINAL="445" NAME="?AppendCulture@CMUILocaleList@@AEAAJPEBG@Z" PURGE="0" COMMENT="" />
    <EXPORT ORDINAL="446" NAME="?AppendLocale@CMUILocaleList@@AEAAJPEBG@Z" PURGE="0" COMMENT="" />
    <EXPORT ORDINAL="447" NAME="?Apply@CTextTemplate@@QEAAPEAGPEAUIWbemClassObject@@@Z" PURGE="0" COMMENT="" />
    <EXPORT ORDINAL="448" NAME="?Bind@CFlexArray@@QEAAXAEAV1@@Z" PURGE="0" COMMENT="" />
    <EXPORT ORDINAL="449" NAME="?BindPtr@WString@@QEAAXPEAG@Z" PURGE="0" COMMENT="" />
    <EXPORT ORDINAL="450" NAME="?BlobAssign@@YAXPEAUtagBLOB@@PEAXKH@Z" PURGE="0" COMMENT="" />
    <EXPORT ORDINAL="451" NAME="?BlobClear@@YAXPEAUtagBLOB@@@Z" PURGE="0" COMMENT="" />
    <EXPORT ORDINAL="452" NAME="?BlobCopy@@YA?AUtagBLOB@@PEBU1@@Z" PURGE="0" COMMENT="" />
    <EXPORT ORDINAL="453" NAME="?BreakOnDbgAndRenterLoop@@YAKXZ" PURGE="0" COMMENT="" />
    <EXPORT ORDINAL="454" NAME="?BreakWait@CInstructionQueue@@QEAAXXZ" PURGE="-1" COMMENT="" />
    <EXPORT ORDINAL="455" NAME="?BuildOperationInfo@@YAJPEBG00PEAPEAG@Z" PURGE="0" COMMENT="" />
    <EXPORT ORDINAL="456" NAME="?BuildSWQLColRef@CWQLScanner@@AEAAHAEAVCFlexArray@@AEAUSWQLColRef@@@Z" PURGE="0" COMMENT="" />
    <EXPORT ORDINAL="457" NAME="?BuildSecurityDescriptorParameter@@YAJPEAUIWbemServices@@PEAUIWbemContext@@PEAVCNtSecurityDescriptor@@PEAUIWbemClassObject@@@Z" PURGE="0" COMMENT="" />
    <EXPORT ORDINAL="458" NAME="?CalcSitOutPenalty@CExecQueue@@MEAAKJ@Z" PURGE="0" COMMENT="" />
    <EXPORT ORDINAL="459" NAME="?CountQuery@CWQLScanner@@QEAAHXZ" PURGE="0" COMMENT="" />
    <EXPORT ORDINAL="460" NAME="?CaptureStackTrace@CMemoryLog@@AEAAXQEAPEAX@Z" PURGE="-1" COMMENT="" />
    <EXPORT ORDINAL="461" NAME="?Change@CInstructionQueue@@QEAAJPEAVCTimerInstruction@@VCWbemTime@@@Z" PURGE="0" COMMENT="" />
    <EXPORT ORDINAL="462" NAME="?ChangeTypeTo@CVar@@QEAAHG@Z" PURGE="0" COMMENT="" />
    <EXPORT ORDINAL="463" NAME="?ChangeTypeToEx@CVar@@QEAAHGK@Z" PURGE="0" COMMENT="" />
    <EXPORT ORDINAL="464" NAME="?ChangeVariantToCIMTYPE@@YAJPEAUtagVARIANT@@0J@Z" PURGE="0" COMMENT="" />
    <EXPORT ORDINAL="465" NAME="?CheckDMTFDateTimeFormat@CDateTimeParser@@SAHPEBGHH@Z" PURGE="0" COMMENT="" />
    <EXPORT ORDINAL="466" NAME="?CheckDMTFDateTimeFormatInternal@CDateTimeParser@@IEAAHPEBG@Z" PURGE="0" COMMENT="" />
    <EXPORT ORDINAL="467" NAME="?CheckDMTFDateTimeInterval@CDateTimeParser@@SAHPEBG@Z" PURGE="0" COMMENT="" />
    <EXPORT ORDINAL="468" NAME="?CheckDateFormat@CDateTimeParser@@IEAAHPEBGH@Z" PURGE="0" COMMENT="" />
    <EXPORT ORDINAL="469" NAME="?CheckLangNeutral@CMUILocale@@SAJPEBGPEA_N@Z" PURGE="0" COMMENT="" />
    <EXPORT ORDINAL="470" NAME="?CheckTimeFormat@CDateTimeParser@@IEAAHPEBGH@Z" PURGE="0" COMMENT="" />
    <EXPORT ORDINAL="471" NAME="?Fatal@CSafeArray@@AEAAXPEBD@Z" PURGE="0" COMMENT="" />
    <EXPORT ORDINAL="472" NAME="?CleanUp@CWbemInstallObject@@SAXXZ" PURGE="0" COMMENT="" />
    <EXPORT ORDINAL="473" NAME="?ClearPropRefs@CWQLScanner@@AEAAXXZ" PURGE="0" COMMENT="" />
    <EXPORT ORDINAL="474" NAME="?ClearTableRefs@CWQLScanner@@AEAAXXZ" PURGE="0" COMMENT="" />
    <EXPORT ORDINAL="475" NAME="?ClearTokens@CWQLScanner@@AEAAXXZ" PURGE="0" COMMENT="" />
    <EXPORT ORDINAL="476" NAME="?Clone@CBuffer@@UEAAJPEAPEAUIStream@@@Z" PURGE="0" COMMENT="" />
    <EXPORT ORDINAL="477" NAME="?CloneData@CSmallArrayBlob@@QEAAPEAPEAXXZ" PURGE="0" COMMENT="" />
    <EXPORT ORDINAL="478" NAME="?CloneThreadContext@CWbemCallSecurity@@UEAAJH@Z" PURGE="0" COMMENT="" />
    <EXPORT ORDINAL="479" NAME="?CloneThreadToken@CWbemCallSecurity@@AEAAJK@Z" PURGE="0" COMMENT="" />
    <EXPORT ORDINAL="480" NAME="?Close@CEventLog@@QEAAHXZ" PURGE="0" COMMENT="" />
    <EXPORT ORDINAL="481" NAME="?CoCreateInstance@CWbemInstallObject@@SAJAEBU_GUID@@PEAUIUnknown@@K0PEAPEAX@Z" PURGE="0" COMMENT="" />
    <EXPORT ORDINAL="482" NAME="?CoGetClassObject@CWbemInstallObject@@SAJAEBU_GUID@@KPEAU_COSERVERINFO@@0PEAPEAX@Z" PURGE="0" COMMENT="" />
    <EXPORT ORDINAL="483" NAME="?LockRegion@CBuffer@@UEAAJT_ULARGE_INTEGER@@0K@Z" PURGE="0" COMMENT="" />
    <EXPORT ORDINAL="484" NAME="?CompareEls@CSmallArrayBlob@@KAHPEBX0@Z" PURGE="0" COMMENT="" />
    <EXPORT ORDINAL="485" NAME="?CompareEls@CFlexArray@@KAHPEBX0@Z" PURGE="0" COMMENT="" />
    <EXPORT ORDINAL="486" NAME="?CompareTo@CVar@@QEAAHAEAV1@H@Z" PURGE="0" COMMENT="" />
    <EXPORT ORDINAL="487" NAME="?CompareTo@CVarVector@@QEAAHAEAV1@H@Z" PURGE="0" COMMENT="" />
    <EXPORT ORDINAL="488" NAME="?ComposeName@@YAJPEAGPEAPEAG@Z" PURGE="0" COMMENT="" />
    <EXPORT ORDINAL="489" NAME="?Compress@CFlexArray@@QEAAXXZ" PURGE="0" COMMENT="" />
    <EXPORT ORDINAL="490" NAME="?Compress@CWStringArray@@QEAAXXZ" PURGE="0" COMMENT="" />
    <EXPORT ORDINAL="491" NAME="?CompressBuffer@CMRCICompression@@QEAAIPEAEK0KW4CompressionLevel@1@@Z" PURGE="0" COMMENT="" />
    <EXPORT ORDINAL="492" NAME="?CompressFile@CMRCICompression@@QEAAHPEBG0KW4CompressionLevel@1@PEAVCMRCIControl@@@Z" PURGE="0" COMMENT="" />
    <EXPORT ORDINAL="493" NAME="?CompressFileV1@CMRCICompression@@IEAAHHHKW4CompressionLevel@1@PEAVCMRCIControl@@@Z" PURGE="0" COMMENT="" />
    <EXPORT ORDINAL="494" NAME="?ComputePenalty@CMinMaxLimitControl@@IEAAJKKPEAKPEAH@Z" PURGE="0" COMMENT="" />
    <EXPORT ORDINAL="495" NAME="?ConcatWithoutQuotes@CTextTemplate@@AEAAXAEAVWString@@AEAPEAG@Z" PURGE="0" COMMENT="" />
    <EXPORT ORDINAL="496" NAME="?ContainsSid@CNtAcl@@QEAAHAEAVCNtSid@@AEAE@Z" PURGE="0" COMMENT="" />
    <EXPORT ORDINAL="497" NAME="?ContinueTransform@MD5@@SAXPEAXIQEAE@Z" PURGE="0" COMMENT="" />
    <EXPORT ORDINAL="498" NAME="?CopyData@CSmallArrayBlob@@IEAAXPEAV1@@Z" PURGE="-1" COMMENT="" />
    <EXPORT ORDINAL="499" NAME="?CopyDataFrom@CFlexArray@@QEAAHAEBV1@@Z" PURGE="0" COMMENT="" />
    <EXPORT ORDINAL="500" NAME="?CopyFileToAutorecover@@YAJPEAG0H@Z" PURGE="0" COMMENT="" />
    <EXPORT ORDINAL="501" NAME="?CopyTo@CBuffer@@UEAAJPEAUIStream@@T_ULARGE_INTEGER@@PEAT3@2@Z" PURGE="0" COMMENT="" />
    <EXPORT ORDINAL="502" NAME="?CopyTo@CNtSid@@QEAAHPEAX@Z" PURGE="0" COMMENT="" />
    <EXPORT ORDINAL="503" NAME="?GetActiveImpersonation@CWbemCallSecurity@@UEAAJXZ" PURGE="0" COMMENT="" />
    <EXPORT ORDINAL="504" NAME="?CreateBlob@CSmallArrayBlob@@SAPEAV1@H@Z" PURGE="0" COMMENT="" />
    <EXPORT ORDINAL="505" NAME="?CreateInst@CWbemCallSecurity@@SAPEAVIWbemCallSecurity@@XZ" PURGE="0" COMMENT="" />
    <EXPORT ORDINAL="506" NAME="?CreateNewThread@CExecQueue@@MEAAHXZ" PURGE="0" COMMENT="" />
    <EXPORT ORDINAL="507" NAME="?CriticalFailADAPTrace@@YAHPEBD@Z" PURGE="0" COMMENT="" />
    <EXPORT ORDINAL="508" NAME="?GetPotentialImpersonation@CWbemCallSecurity@@UEAAJXZ" PURGE="0" COMMENT="" />
    <EXPORT ORDINAL="509" NAME="?GetArray@CSafeArray@@QEAAPEAUtagSAFEARRAY@@XZ" PURGE="0" COMMENT="" />
    <EXPORT ORDINAL="510" NAME="?DateFormat10@CDateTimeParser@@IEAAHPEBG0H@Z" PURGE="0" COMMENT="" />
    <EXPORT ORDINAL="511" NAME="?DateFormat11@CDateTimeParser@@IEAAHPEBG0H@Z" PURGE="0" COMMENT="" />
    <EXPORT ORDINAL="512" NAME="?DateFormat12@CDateTimeParser@@IEAAHPEBG0H@Z" PURGE="0" COMMENT="" />
    <EXPORT ORDINAL="513" NAME="?DateFormat13@CDateTimeParser@@IEAAHPEBG0H@Z" PURGE="0" COMMENT="" />
    <EXPORT ORDINAL="514" NAME="?DateFormat14@CDateTimeParser@@IEAAHPEBG0H@Z" PURGE="0" COMMENT="" />
    <EXPORT ORDINAL="515" NAME="?DateFormat15@CDateTimeParser@@IEAAHPEBGH@Z" PURGE="0" COMMENT="" />
    <EXPORT ORDINAL="516" NAME="?DateFormat1@CDateTimeParser@@IEAAHPEBGH@Z" PURGE="0" COMMENT="" />
    <EXPORT ORDINAL="517" NAME="?DateFormat2@CDateTimeParser@@IEAAHPEBGH@Z" PURGE="0" COMMENT="" />
    <EXPORT ORDINAL="518" NAME="?DateFormat3@CDateTimeParser@@IEAAHPEBGH@Z" PURGE="0" COMMENT="" />
    <EXPORT ORDINAL="519" NAME="?DateFormat4@CDateTimeParser@@IEAAHPEBGH@Z" PURGE="0" COMMENT="" />
    <EXPORT ORDINAL="520" NAME="?DateFormat5@CDateTimeParser@@IEAAHPEBGH@Z" PURGE="0" COMMENT="" />
    <EXPORT ORDINAL="521" NAME="?DateFormat6@CDateTimeParser@@IEAAHPEBGH@Z" PURGE="0" COMMENT="" />
    <EXPORT ORDINAL="522" NAME="?DateFormat7@CDateTimeParser@@IEAAHPEBGH@Z" PURGE="0" COMMENT="" />
    <EXPORT ORDINAL="523" NAME="?DateFormat8@CDateTimeParser@@IEAAHPEBGH@Z" PURGE="0" COMMENT="" />
    <EXPORT ORDINAL="524" NAME="?DateFormat9@CDateTimeParser@@IEAAHPEBG0H@Z" PURGE="0" COMMENT="" />
    <EXPORT ORDINAL="525" NAME="?DebugDump@CFlexArray@@QEAAXXZ" PURGE="0" COMMENT="" />
    <EXPORT ORDINAL="526" NAME="?DebugTrace@@YAHDPEBDZZ" PURGE="0" COMMENT="" />
    <EXPORT ORDINAL="527" NAME="?DecrementIndex@CFlexQueue@@IEAAXAEAH@Z" PURGE="0" COMMENT="" />
    <EXPORT ORDINAL="528" NAME="?DeleteAce@CNtAcl@@QEAAHH@Z" PURGE="0" COMMENT="" />
    <EXPORT ORDINAL="529" NAME="?DeletePropertyName@CAbstractQl1Parser@@IEAAXXZ" PURGE="0" COMMENT="" />
    <EXPORT ORDINAL="530" NAME="?DeleteSacl@CNtSecurityDescriptor@@QEAAJXZ" PURGE="0" COMMENT="" />
    <EXPORT ORDINAL="531" NAME="?DeleteStr@CWStringArray@@QEAAHH@Z" PURGE="0" COMMENT="" />
    <EXPORT ORDINAL="532" NAME="?DeleteString@WString@@AEAAXPEAG@Z" PURGE="0" COMMENT="" />
    <EXPORT ORDINAL="533" NAME="?DeleteValue@Registry@@QEAAHPEBG@Z" PURGE="0" COMMENT="" />
    <EXPORT ORDINAL="534" NAME="?Dequeue@CFlexQueue@@QEAAPEAXXZ" PURGE="0" COMMENT="" />
    <EXPORT ORDINAL="535" NAME="?Dequeue@CInstructionQueue@@QEAAJAEAPEAVCTimerInstruction@@AEAVCWbemTime@@@Z" PURGE="0" COMMENT="" />
    <EXPORT ORDINAL="536" NAME="?Deserialize@C9XAce@@UEAA_NPEAE@Z" PURGE="0" COMMENT="" />
    <EXPORT ORDINAL="537" NAME="?Deserialize@CNtAce@@UEAA_NPEAE@Z" PURGE="0" COMMENT="" />
    <EXPORT ORDINAL="538" NAME="?Difference@CWStringArray@@SAXAEAV1@00@Z" PURGE="0" COMMENT="" />
    <EXPORT ORDINAL="539" NAME="?Disable@CTraceSessionControl@@QEAAKXZ" PURGE="0" COMMENT="" />
    <EXPORT ORDINAL="540" NAME="?DoLike@CLike@@IEAA_NPEBG0G@Z" PURGE="0" COMMENT="" />
    <EXPORT ORDINAL="541" NAME="?DoesNeedNewThread@CExecQueue@@MEAAHPEAVCExecRequest@@@Z" PURGE="0" COMMENT="" />
    <EXPORT ORDINAL="542" NAME="?DoesVectorTypeMatchArrayType@CVarVector@@QEAAHXZ" PURGE="0" COMMENT="" />
    <EXPORT ORDINAL="543" NAME="?Dump@CWQLScanner@@QEAAXXZ" PURGE="-1" COMMENT="" />
    <EXPORT ORDINAL="544" NAME="?Dump@QL_LEVEL_1_RPN_EXPRESSION@@QEAAXPEBD@Z" PURGE="0" COMMENT="" />
    <EXPORT ORDINAL="545" NAME="?Dump@QL_LEVEL_1_TOKEN@@QEAAXPEAU_iobuf@@@Z" PURGE="0" COMMENT="" />
    <EXPORT ORDINAL="546" NAME="?DumpClientOps@@YAXPEAVCClientOpsNode@@@Z" PURGE="0" COMMENT="" />
    <EXPORT ORDINAL="547" NAME="?DumpError@CExecRequest@@UEAAXXZ" PURGE="0" COMMENT="" />
    <EXPORT ORDINAL="548" NAME="?ObjectCreated@CContainerControl@@UEAAHPEAUIUnknown@@@Z" PURGE="0" COMMENT="" />
    <EXPORT ORDINAL="549" NAME="?GetFlags@C9XAce@@UEAAHXZ" PURGE="0" COMMENT="" />
    <EXPORT ORDINAL="550" NAME="?Empty@CFlexArray@@QEAAXXZ" PURGE="0" COMMENT="" />
    <EXPORT ORDINAL="551" NAME="?Empty@CPropertyName@@QEAAXXZ" PURGE="0" COMMENT="" />
    <EXPORT ORDINAL="552" NAME="?Empty@CSafeArray@@QEAAXXZ" PURGE="0" COMMENT="" />
    <EXPORT ORDINAL="553" NAME="?Empty@CVar@@QEAAXXZ" PURGE="0" COMMENT="" />
    <EXPORT ORDINAL="554" NAME="?Empty@CVarVector@@QEAAXXZ" PURGE="0" COMMENT="" />
    <EXPORT ORDINAL="555" NAME="?Empty@CWStringArray@@QEAAXXZ" PURGE="0" COMMENT="" />
    <EXPORT ORDINAL="556" NAME="?Empty@WString@@QEAAXXZ" PURGE="0" COMMENT="" />
    <EXPORT ORDINAL="557" NAME="?Enable@CTraceSessionControl@@QEAAKXZ" PURGE="0" COMMENT="" />
    <EXPORT ORDINAL="558" NAME="?GetStatus@C9XAce@@UEAAKXZ" PURGE="0" COMMENT="" />
    <EXPORT ORDINAL="559" NAME="?EnablePrivilege@@YAHKJ@Z" PURGE="0" COMMENT="" />
    <EXPORT ORDINAL="560" NAME="?EncryptedCall@CIdentitySecurity@@AEAA_NXZ" PURGE="0" COMMENT="" />
    <EXPORT ORDINAL="561" NAME="?Enqueue@CExecQueue@@UEAAJPEAVCExecRequest@@PEAPEAX@Z" PURGE="0" COMMENT="" />
    <EXPORT ORDINAL="562" NAME="?Enqueue@CFlexQueue@@QEAA_NPEAX@Z" PURGE="0" COMMENT="" />
    <EXPORT ORDINAL="563" NAME="?Enqueue@CInstructionQueue@@QEAAJVCWbemTime@@PEAVCTimerInstruction@@@Z" PURGE="0" COMMENT="" />
    <EXPORT ORDINAL="564" NAME="?EnqueueAndWait@CExecQueue@@QEAAJPEAVCExecRequest@@@Z" PURGE="0" COMMENT="" />
    <EXPORT ORDINAL="565" NAME="?EnqueueWithoutSleep@CExecQueue@@QEAAJPEAVCExecRequest@@PEAPEAX@Z" PURGE="0" COMMENT="" />
    <EXPORT ORDINAL="566" NAME="?EnsureAllocated@CPropertyName@@IEAAXJ@Z" PURGE="0" COMMENT="" />
    <EXPORT ORDINAL="567" NAME="?EnsureExtent@CFlexArray@@QEAAHH@Z" PURGE="0" COMMENT="" />
    <EXPORT ORDINAL="568" NAME="?EnsureExtent@CSmallArrayBlob@@IEAAPEAV1@H@Z" PURGE="0" COMMENT="" />
    <EXPORT ORDINAL="569" NAME="?EnsureRunning@CTimerGenerator@@AEAAXXZ" PURGE="0" COMMENT="" />
    <EXPORT ORDINAL="570" NAME="?EnsureSize@CBuffer@@AEAAXK@Z" PURGE="0" COMMENT="" />
    <EXPORT ORDINAL="571" NAME="?Enter@CCheckedInCritSec@@QEAAXXZ" PURGE="0" COMMENT="" />
    <EXPORT ORDINAL="572" NAME="?Enter@CStaticCritSec@@QEAAXXZ" PURGE="0" COMMENT="" />
    <EXPORT ORDINAL="573" NAME="?Enter@CExecQueue@@QEAAXXZ" PURGE="0" COMMENT="" />
    <EXPORT ORDINAL="574" NAME="?Enter@CCritSec@@QEAAXXZ" PURGE="0" COMMENT="" />
    <EXPORT ORDINAL="575" NAME="?Enter@CWbemCriticalSection@@QEAAHK@Z" PURGE="0" COMMENT="" />
    <EXPORT ORDINAL="576" NAME="?Equal@WString@@QEBAHPEBG@Z" PURGE="0" COMMENT="" />
    <EXPORT ORDINAL="577" NAME="?EqualNoCase@WString@@QEBAHPEBG@Z" PURGE="0" COMMENT="" />
    <EXPORT ORDINAL="578" NAME="?ErrorTrace@@YAHDPEBDZZ" PURGE="0" COMMENT="" />
    <EXPORT ORDINAL="579" NAME="?EscapeQuotes@WString@@QEBA?AV1@XZ" PURGE="0" COMMENT="" />
    <EXPORT ORDINAL="580" NAME="?Execute@CExecQueue@@MEAAHPEAVCThreadRecord@1@@Z" PURGE="0" COMMENT="" />
    <EXPORT ORDINAL="581" NAME="?ExpandEnvironmentStringsW@CWbemInstallObject@@SAKPEBGPEAGK@Z" PURGE="0" COMMENT="" />
    <EXPORT ORDINAL="582" NAME="?ExpandVariableValue@CWbemInstallObject@@CAJPEBGPEAG_KPEA_K@Z" PURGE="0" COMMENT="" />
    <EXPORT ORDINAL="583" NAME="?ExtractMachineName@@YAPEAGPEAG@Z" PURGE="0" COMMENT="" />
    <EXPORT ORDINAL="584" NAME="?ExtractNext@CWQLScanner@@AEAAPEAUWSLexToken@@H@Z" PURGE="0" COMMENT="" />
    <EXPORT ORDINAL="585" NAME="?ExtractSelectType@CWQLScanner@@AEAAHXZ" PURGE="0" COMMENT="" />
    <EXPORT ORDINAL="586" NAME="?ExtractToken@WString@@QEAAHGAEAV1@@Z" PURGE="0" COMMENT="" />
    <EXPORT ORDINAL="587" NAME="?ExtractToken@WString@@QEAAHPEBGAEAV1@@Z" PURGE="0" COMMENT="" />
    <EXPORT ORDINAL="588" NAME="?InOrder@CQl1ParseSink@@UEAAXJ@Z" PURGE="0" COMMENT="" />
    <EXPORT ORDINAL="589" NAME="?FillCVarAt@CVarVector@@QEAAXHAEAVCVar@@@Z" PURGE="0" COMMENT="" />
    <EXPORT ORDINAL="590" NAME="?FillDMTF@CDateTimeParser@@QEAAHPEAG_K@Z" PURGE="0" COMMENT="" />
    <EXPORT ORDINAL="591" NAME="?FillVariant@CVar@@QEAAXPEAUtagVARIANT@@H@Z" PURGE="0" COMMENT="" />
    <EXPORT ORDINAL="592" NAME="?FindStr@CWStringArray@@QEAAHPEBGH@Z" PURGE="0" COMMENT="" />
    <EXPORT ORDINAL="593" NAME="?FlipOperator@CAbstractQl1Parser@@IEAAHH@Z" PURGE="0" COMMENT="" />
    <EXPORT ORDINAL="594" NAME="?FlushRepository@CWbemInstallObject@@SAJXZ" PURGE="0" COMMENT="" />
    <EXPORT ORDINAL="595" NAME="?Free@CWin32DefaultArena@@UEAAHPEAX@Z" PURGE="0" COMMENT="" />
    <EXPORT ORDINAL="596" NAME="?FreeMap@CWbemInstallObject@@SAXXZ" PURGE="0" COMMENT="" />
    <EXPORT ORDINAL="597" NAME="?GetCultures@CMUILocaleList@@QEAAPEBGXZ" PURGE="0" COMMENT="" />
    <EXPORT ORDINAL="598" NAME="?GetAbsoluteCopy@CNtSecurityDescriptor@@QEAAPEAUSNtAbsoluteSD@@XZ" PURGE="0" COMMENT="" />
    <EXPORT ORDINAL="599" NAME="?GetStatus@CNtAce@@UEAAKXZ" PURGE="0" COMMENT="" />
    <EXPORT ORDINAL="600" NAME="?GetAccessMask@CNtAce@@UEAAKXZ" PURGE="0" COMMENT="" />
    <EXPORT ORDINAL="601" NAME="?GetAccessToken@@YAJAEAPEAX@Z" PURGE="0" COMMENT="" />
    <EXPORT ORDINAL="602" NAME="?GetAce@CNtAcl@@QEAAHHAEAVCNtAce@@@Z" PURGE="0" COMMENT="" />
    <EXPORT ORDINAL="603" NAME="?GetAce@CNtAcl@@QEAAPEAVCNtAce@@H@Z" PURGE="0" COMMENT="" />
    <EXPORT ORDINAL="604" NAME="?GetAclSizeInfo@CNtAcl@@QEAAHPEAK0@Z" PURGE="0" COMMENT="" />
    <EXPORT ORDINAL="605" NAME="?GetIndex@CBuffer@@QEAAKXZ" PURGE="0" COMMENT="" />
    <EXPORT ORDINAL="606" NAME="?GetActualVarType@CSafeArray@@QEAAHPEAG@Z" PURGE="0" COMMENT="" />
    <EXPORT ORDINAL="607" NAME="?GetRecursionCount@CWbemCriticalSection@@QEAAJXZ" PURGE="0" COMMENT="" />
    <EXPORT ORDINAL="608" NAME="?GetArenaHeap@CWin32DefaultArena@@SAPEAXXZ" PURGE="0" COMMENT="" />
    <EXPORT ORDINAL="609" NAME="?GetInfo@CClientOpsNode@@QEAAPEAXXZ" PURGE="0" COMMENT="" />
    <EXPORT ORDINAL="610" NAME="?GetArrayCopy@CSafeArray@@QEAAPEAUtagSAFEARRAY@@XZ" PURGE="0" COMMENT="" />
    <EXPORT ORDINAL="611" NAME="?GetArrayPtr@CFlexArray@@QEBAPEBQEAXXZ" PURGE="0" COMMENT="" />
    <EXPORT ORDINAL="612" NAME="?GetArrayPtr@CWStringArray@@QEAAPEAPEBGXZ" PURGE="0" COMMENT="" />
    <EXPORT ORDINAL="613" NAME="?GetArrayPtr@CSmallArrayBlob@@QEBAPEBQEAXXZ" PURGE="0" COMMENT="" />
    <EXPORT ORDINAL="614" NAME="?GetBlob@CVar@@QEAAPEAUtagBLOB@@XZ" PURGE="0" COMMENT="" />
    <EXPORT ORDINAL="615" NAME="?GetLocales@CMUILocaleList@@QEAAPEBGXZ" PURGE="0" COMMENT="" />
    <EXPORT ORDINAL="616" NAME="?GetAt@CFlexArray@@QEBAPEAXH@Z" PURGE="0" COMMENT="" />
    <EXPORT ORDINAL="617" NAME="??ACSmallArrayBlob@@QEBAPEAXH@Z" PURGE="0" COMMENT="" />
    <EXPORT ORDINAL="618" NAME="?GetAt@CVarVector@@QEAAAEAVCVar@@H@Z" PURGE="0" COMMENT="" />
    <EXPORT ORDINAL="619" NAME="??ACWStringArray@@QEBAPEAGH@Z" PURGE="0" COMMENT="" />
    <EXPORT ORDINAL="620" NAME="?GetAuthenticationId@CWbemCallSecurity@@UEAAKAEAU_LUID@@@Z" PURGE="0" COMMENT="" />
    <EXPORT ORDINAL="621" NAME="?GetAutoRecoverFolder@CWbemInstallObject@@SAPEBGXZ" PURGE="0" COMMENT="" />
    <EXPORT ORDINAL="622" NAME="?GetBSTR@CVar@@QEAAPEAGXZ" PURGE="0" COMMENT="" />
    <EXPORT ORDINAL="623" NAME="?GetBSTRAt@CSafeArray@@QEAAPEAGH@Z" PURGE="0" COMMENT="" />
    <EXPORT ORDINAL="624" NAME="?GetBSTRAtThrow@CSafeArray@@QEAAPEAGH@Z" PURGE="0" COMMENT="" />
    <EXPORT ORDINAL="625" NAME="?GetBinary@Registry@@QEAAHPEBGPEAPEAEPEAK@Z" PURGE="0" COMMENT="" />
    <EXPORT ORDINAL="626" NAME="?GetBinaryPath@CWbemInstallObject@@SAPEBGXZ" PURGE="0" COMMENT="" />
    <EXPORT ORDINAL="627" NAME="?GetEventTraceProperties@CWMITraceSettings@@QEAAPEAU_EVENT_TRACE_PROPERTIES@@XZ" PURGE="0" COMMENT="" />
    <EXPORT ORDINAL="628" NAME="?GetNumStrings@CEventLogRecord@@QEAAGXZ" PURGE="0" COMMENT="" />
    <EXPORT ORDINAL="629" NAME="?GetShortAt@CSafeArray@@QEAAFH@Z" PURGE="0" COMMENT="" />
    <EXPORT ORDINAL="630" NAME="?GetChar@CVar@@QEAADXZ" PURGE="0" COMMENT="" />
    <EXPORT ORDINAL="631" NAME="?GetByteAt@CSafeArray@@QEAAEH@Z" PURGE="0" COMMENT="" />
    <EXPORT ORDINAL="632" NAME="?GetCallerIdentity@CWbemCallSecurity@@QEAAPEBGXZ" PURGE="0" COMMENT="" />
    <EXPORT ORDINAL="633" NAME="??BCVar@@QEAADXZ" PURGE="0" COMMENT="" />
    <EXPORT ORDINAL="634" NAME="?GetHandle@CPropertyName@@QEAAPEAXXZ" PURGE="0" COMMENT="" />
    <EXPORT ORDINAL="635" NAME="?GetLPSTR@CVar@@QEAAPEADXZ" PURGE="0" COMMENT="" />
    <EXPORT ORDINAL="636" NAME="?GetCompressedFileInfo@CMRCICompression@@SAHPEBGAEAW4CompressionLevel@1@AEAKAEAU_FILETIME@@AEA_J@Z" PURGE="0" COMMENT="" />
    <EXPORT ORDINAL="637" NAME="?GetCreationTime@CEventLogRecord@@QEAA?AVCWbemTime@@XZ" PURGE="0" COMMENT="" />
    <EXPORT ORDINAL="638" NAME="?GetExpression@CLike@@QEAAPEBGXZ" PURGE="0" COMMENT="" />
    <EXPORT ORDINAL="639" NAME="?GetDMTF@CWbemTime@@AEAAHHKPEAG@Z" PURGE="0" COMMENT="" />
    <EXPORT ORDINAL="640" NAME="?GetLong@CVar@@QEAAJXZ" PURGE="0" COMMENT="" />
    <EXPORT ORDINAL="641" NAME="?GetDWORD@Registry@@QEAAHPEBGPEAK@Z" PURGE="0" COMMENT="" />
    <EXPORT ORDINAL="642" NAME="?GetDWORDStr@Registry@@QEAAHPEBGPEAK@Z" PURGE="0" COMMENT="" />
    <EXPORT ORDINAL="643" NAME="?GetDacl@CNtSecurityDescriptor@@QEAAHAEAVCNtAcl@@@Z" PURGE="0" COMMENT="" />
    <EXPORT ORDINAL="644" NAME="?GetDacl@CNtSecurityDescriptor@@QEAAJPEAPEAVCNtAcl@@@Z" PURGE="0" COMMENT="" />
    <EXPORT ORDINAL="645" NAME="?GetDacl@CNtSecurityDescriptor@@QEAAPEAVCNtAcl@@XZ" PURGE="0" COMMENT="" />
    <EXPORT ORDINAL="646" NAME="?GetDay@CDateTimeParser@@QEAAEXZ" PURGE="0" COMMENT="" />
    <EXPORT ORDINAL="647" NAME="?GetEmbeddedObject@CVar@@QEAAPEAUIUnknown@@XZ" PURGE="0" COMMENT="" />
    <EXPORT ORDINAL="648" NAME="?GetUnknownAt@CSafeArray@@QEAAPEAUIUnknown@@H@Z" PURGE="0" COMMENT="" />
    <EXPORT ORDINAL="649" NAME="??BCVar@@QEAANXZ" PURGE="0" COMMENT="" />
    <EXPORT ORDINAL="650" NAME="?GetDoubleAt@CSafeArray@@QEAANH@Z" PURGE="0" COMMENT="" />
    <EXPORT ORDINAL="651" NAME="?GetElementSize@CVarVector@@QEAAHXZ" PURGE="0" COMMENT="" />
    <EXPORT ORDINAL="652" NAME="?GetUnknown@CVar@@QEAAPEAUIUnknown@@XZ" PURGE="0" COMMENT="" />
    <EXPORT ORDINAL="653" NAME="?GetEnvironmentValue@CWbemInstallObject@@CAJPEBGPEAPEBG@Z" PURGE="0" COMMENT="" />
    <EXPORT ORDINAL="654" NAME="?GetRawData@CVar@@QEAAPEAXXZ" PURGE="0" COMMENT="" />
    <EXPORT ORDINAL="655" NAME="?GetPtr@CNtAcl@@QEAAPEAU_ACL@@XZ" PURGE="0" COMMENT="" />
    <EXPORT ORDINAL="656" NAME="?GetFILETIME@CWbemTime@@QEBAHPEAU_FILETIME@@@Z" PURGE="0" COMMENT="" />
    <EXPORT ORDINAL="657" NAME="?GetFQDN_Ipv4@@YAPEAUhostent@@PEAG@Z" PURGE="0" COMMENT="" />
    <EXPORT ORDINAL="658" NAME="??BCVar@@QEAA?AU_FILETIME@@XZ" PURGE="0" COMMENT="" />
    <EXPORT ORDINAL="659" NAME="?GetFirstFiringTime@CBasicUnloadInstruction@@UEBA?AVCWbemTime@@XZ" PURGE="0" COMMENT="" />
    <EXPORT ORDINAL="660" NAME="?GetFirst_ms_XXX_Locale@CMUILocaleList@@QEAAJPEAPEAG@Z" PURGE="0" COMMENT="" />
    <EXPORT ORDINAL="661" NAME="?GetLastError@Registry@@QEAAJXZ" PURGE="0" COMMENT="" />
    <EXPORT ORDINAL="662" NAME="?GetFlags@CNtAce@@UEAAHXZ" PURGE="0" COMMENT="" />
    <EXPORT ORDINAL="663" NAME="??BCVar@@QEAAMXZ" PURGE="0" COMMENT="" />
    <EXPORT ORDINAL="664" NAME="?GetFloatAt@CSafeArray@@QEAAMH@Z" PURGE="0" COMMENT="" />
    <EXPORT ORDINAL="665" NAME="?GetFullUserName2@C9XAce@@UEAAJPEAPEAG@Z" PURGE="0" COMMENT="" />
    <EXPORT ORDINAL="666" NAME="?GetFullUserName2@CNtAce@@UEAAJPEAPEAG@Z" PURGE="0" COMMENT="" />
    <EXPORT ORDINAL="667" NAME="?GetFunctionPointers@CMUILocale@@CAJXZ" PURGE="0" COMMENT="" />
    <EXPORT ORDINAL="668" NAME="?GetFunctionPointers@CPublishWMIOperationEvent@@CAJXZ" PURGE="0" COMMENT="" />
    <EXPORT ORDINAL="669" NAME="?GetGlobalClientOps@@YAPEAVCClientOpsNode@@XZ" PURGE="0" COMMENT="" />
    <EXPORT ORDINAL="670" NAME="?GetGroup@CNtSecurityDescriptor@@QEAAPEAVCNtSid@@XZ" PURGE="0" COMMENT="" />
    <EXPORT ORDINAL="671" NAME="?GetChildren@CClientOpsNode@@QEAAPEAV1@XZ" PURGE="0" COMMENT="" />
    <EXPORT ORDINAL="672" NAME="?GetHours@CDateTimeParser@@QEAAEXZ" PURGE="0" COMMENT="" />
    <EXPORT ORDINAL="673" NAME="?GetIdleTimeout@CExecQueue@@MEAAKPEAVCThreadRecord@1@@Z" PURGE="0" COMMENT="" />
    <EXPORT ORDINAL="674" NAME="?CanDelete@CVar@@QEAAHXZ" PURGE="0" COMMENT="" />
    <EXPORT ORDINAL="675" NAME="?GetInfinity@CWbemInterval@@SA?AV1@XZ" PURGE="0" COMMENT="" />
    <EXPORT ORDINAL="676" NAME="?GetInfinity@CWbemTime@@SA?AV1@XZ" PURGE="0" COMMENT="" />
    <EXPORT ORDINAL="677" NAME="?CurrentToken@CAbstractQl1Parser@@QEAAPEAGXZ" PURGE="0" COMMENT="" />
    <EXPORT ORDINAL="678" NAME="?GetInfo@CNtSid@@QEAAHPEAPEAG0PEAK@Z" PURGE="0" COMMENT="" />
    <EXPORT ORDINAL="679" NAME="?GetStringPointerByRef@WString@@QEBAAEBQEBGXZ" PURGE="0" COMMENT="" />
    <EXPORT ORDINAL="680" NAME="?GetInstructionType@CBasicUnloadInstruction@@UEAAHXZ" PURGE="0" COMMENT="" />
    <EXPORT ORDINAL="681" NAME="?GetLPWSTR@CVar@@QEAAPEAGXZ" PURGE="0" COMMENT="" />
    <EXPORT ORDINAL="682" NAME="?GetLPSTR@WString@@QEBAPEADXZ" PURGE="0" COMMENT="" />
    <EXPORT ORDINAL="683" NAME="?GetPrevious@CClientOpsNode@@QEAAPEAV1@XZ" PURGE="0" COMMENT="" />
    <EXPORT ORDINAL="684" NAME="?GetLToken@WString@@QEBAPEAGG@Z" PURGE="0" COMMENT="" />
    <EXPORT ORDINAL="685" NAME="?ElementSize@CSafeArray@@QEAAHXZ" PURGE="0" COMMENT="" />
    <EXPORT ORDINAL="686" NAME="?GetLocalInfoAndAlloc@CDateTimeParser@@IEAAXKAEAPEAG@Z" PURGE="0" COMMENT="" />
    <EXPORT ORDINAL="687" NAME="?GetLocalOffsetForDate@CWbemTime@@SAJPEBU_SYSTEMTIME@@@Z" PURGE="0" COMMENT="" />
    <EXPORT ORDINAL="688" NAME="?GetNext@CClientOpsNode@@QEAAPEAV1@XZ" PURGE="0" COMMENT="" />
    <EXPORT ORDINAL="689" NAME="?GetMilliseconds@CWbemInterval@@QEBAKXZ" PURGE="0" COMMENT="" />
    <EXPORT ORDINAL="690" NAME="?GetLoggingLevelEnabled@@YAKXZ" PURGE="0" COMMENT="" />
    <EXPORT ORDINAL="691" NAME="?GetOwningThreadId@CWbemCriticalSection@@QEAAKXZ" PURGE="0" COMMENT="" />
    <EXPORT ORDINAL="692" NAME="?GetLongAt@CSafeArray@@QEAAJH@Z" PURGE="0" COMMENT="" />
    <EXPORT ORDINAL="693" NAME="?GetMemLogObject@@YAPEAVCMemoryLog@@XZ" PURGE="0" COMMENT="" />
    <EXPORT ORDINAL="694" NAME="?GetMicroseconds@CDateTimeParser@@QEAAIXZ" PURGE="0" COMMENT="" />
    <EXPORT ORDINAL="695" NAME="?GetNumElements@CPropertyName@@QEBAJXZ" PURGE="0" COMMENT="" />
    <EXPORT ORDINAL="696" NAME="?GetMinutes@CDateTimeParser@@QEAAEXZ" PURGE="0" COMMENT="" />
    <EXPORT ORDINAL="697" NAME="?GetMonth@CDateTimeParser@@QEAAEXZ" PURGE="0" COMMENT="" />
    <EXPORT ORDINAL="698" NAME="?GetMultiStr@Registry@@QEAAPEAGPEBGAEAK@Z" PURGE="0" COMMENT="" />
    <EXPORT ORDINAL="699" NAME="?GetNewSafeArray@CVar@@QEAAPEAUtagSAFEARRAY@@XZ" PURGE="0" COMMENT="" />
    <EXPORT ORDINAL="700" NAME="?GetNewSafeArray@CVarVector@@QEAAPEAUtagSAFEARRAY@@XZ" PURGE="0" COMMENT="" />
    <EXPORT ORDINAL="701" NAME="?GetNewVariant@CVar@@QEAAPEAUtagVARIANT@@XZ" PURGE="0" COMMENT="" />
    <EXPORT ORDINAL="702" NAME="?GetNext@CExecRequest@@QEAAPEAV1@XZ" PURGE="0" COMMENT="" />
    <EXPORT ORDINAL="703" NAME="?GetRawData@CBuffer@@QEAAPEAEXZ" PURGE="0" COMMENT="" />
    <EXPORT ORDINAL="704" NAME="?GetNextElement@CCircularQueue@@QEAAKPEAPEAULOG_ELEMENT@@@Z" PURGE="0" COMMENT="" />
    <EXPORT ORDINAL="705" NAME="?GetNextFiringTime@CBasicUnloadInstruction@@UEBA?AVCWbemTime@@V2@PEAJ@Z" PURGE="0" COMMENT="" />
    <EXPORT ORDINAL="706" NAME="?GetNumAces@CNtAcl@@QEAAHXZ" PURGE="0" COMMENT="" />
    <EXPORT ORDINAL="707" NAME="?GetType@CVar@@QEAAHXZ" PURGE="0" COMMENT="" />
    <EXPORT ORDINAL="708" NAME="?GetNumInstructions@CInstructionQueue@@QEAAJXZ" PURGE="0" COMMENT="" />
    <EXPORT ORDINAL="709" NAME="?GetShort@CVar@@QEAAFXZ" PURGE="0" COMMENT="" />
    <EXPORT ORDINAL="710" NAME="?GetOleType@CVar@@QEAAHXZ" PURGE="0" COMMENT="" />
    <EXPORT ORDINAL="711" NAME="?GetOwner@CNtSecurityDescriptor@@QEAAPEAVCNtSid@@XZ" PURGE="0" COMMENT="" />
    <EXPORT ORDINAL="712" NAME="?GetStatus@CNtAcl@@QEAAKXZ" PURGE="0" COMMENT="" />
    <EXPORT ORDINAL="713" NAME="?GetPart@CDatePart@@QEAAJHPEAH@Z" PURGE="0" COMMENT="" />
    <EXPORT ORDINAL="714" NAME="?GetPersistentCfgValue@CPersistentConfig@@QEAAHKAEAK@Z" PURGE="0" COMMENT="" />
    <EXPORT ORDINAL="715" NAME="?GetPriority@CExecRequest@@QEAAJXZ" PURGE="0" COMMENT="" />
    <EXPORT ORDINAL="716" NAME="?GetPreferedDateFormat@CDateTimeParser@@IEAAXXZ" PURGE="0" COMMENT="" />
    <EXPORT ORDINAL="717" NAME="?GetPreferredLanguages@CMUILocale@@SAJKPEAPEAGPEAK@Z" PURGE="0" COMMENT="" />
    <EXPORT ORDINAL="718" NAME="?GetPreferredLanguages@CMUILocale@@SAJPEAPEAGPEAK@Z" PURGE="0" COMMENT="" />
    <EXPORT ORDINAL="719" NAME="?GetPtr@CNtAce@@QEAAPEAU_ACCESS_ALLOWED_ACE@@XZ" PURGE="0" COMMENT="" />
    <EXPORT ORDINAL="720" NAME="?GetSize@CBuffer@@QEAAKXZ" PURGE="0" COMMENT="" />
    <EXPORT ORDINAL="721" NAME="?GetPropertyFromIUnknown@CTextTemplate@@AEAAPEAGPEAGPEAUIUnknown@@@Z" PURGE="0" COMMENT="" />
    <EXPORT ORDINAL="722" NAME="?GetString@CInsertionString@@QEAAPEBGXZ" PURGE="0" COMMENT="" />
    <EXPORT ORDINAL="723" NAME="?GetPtr@CNtSecurityDescriptor@@QEAAPEAXXZ" PURGE="0" COMMENT="" />
    <EXPORT ORDINAL="724" NAME="?GetPtr@CNtSid@@QEAAPEAXXZ" PURGE="0" COMMENT="" />
    <EXPORT ORDINAL="725" NAME="??BWString@@QEAAPEAGXZ" PURGE="0" COMMENT="" />
    <EXPORT ORDINAL="726" NAME="?GetQFDN_Ipv6@@YAKPEAG0HH@Z" PURGE="0" COMMENT="" />
    <EXPORT ORDINAL="727" NAME="?GetQWORD@Registry@@QEAAHPEBGPEA_K@Z" PURGE="0" COMMENT="" />
    <EXPORT ORDINAL="728" NAME="?GetQueryClass@QL1_Parser@@QEAAHPEAGH@Z" PURGE="0" COMMENT="" />
    <EXPORT ORDINAL="729" NAME="?GetQueueSize@CFlexQueue@@QEBAHXZ" PURGE="0" COMMENT="" />
    <EXPORT ORDINAL="730" NAME="?GetRawArrayData@CVarVector@@QEAAJPEAXH@Z" PURGE="0" COMMENT="" />
    <EXPORT ORDINAL="731" NAME="?GetToken@CWbemCallSecurity@@UEAAPEAXXZ" PURGE="0" COMMENT="" />
    <EXPORT ORDINAL="732" NAME="?GetRawData@CSafeArray@@QEAAHPEAXH@Z" PURGE="0" COMMENT="" />
    <EXPORT ORDINAL="733" NAME="??BCVar@@QEAAPEAUtagBLOB@@XZ" PURGE="0" COMMENT="" />
    <EXPORT ORDINAL="734" NAME="?GetAreaFlags@CWMITraceSettings@@QEAAKXZ" PURGE="0" COMMENT="" />
    <EXPORT ORDINAL="735" NAME="?GetReferencedAliases@CWQLScanner@@QEAAHAEAVCWStringArray@@@Z" PURGE="0" COMMENT="" />
    <EXPORT ORDINAL="736" NAME="?GetReferencedTables@CWQLScanner@@QEAAHAEAVCWStringArray@@@Z" PURGE="0" COMMENT="" />
    <EXPORT ORDINAL="737" NAME="?GetRegistryPathCIMOM@CWbemInstallObject@@SAPEBGXZ" PURGE="0" COMMENT="" />
    <EXPORT ORDINAL="738" NAME="?GetRegistryPathWbem@CWbemInstallObject@@SAPEBGXZ" PURGE="0" COMMENT="" />
    <EXPORT ORDINAL="739" NAME="?GetRepositoryFolder@CWbemInstallObject@@SAPEBGXZ" PURGE="0" COMMENT="" />
    <EXPORT ORDINAL="740" NAME="?GetSYSTEMTIME@CWbemTime@@QEBAHPEAU_SYSTEMTIME@@@Z" PURGE="0" COMMENT="" />
    <EXPORT ORDINAL="741" NAME="?GetSacl@CNtSecurityDescriptor@@QEAAJPEAPEAVCNtAcl@@@Z" PURGE="0" COMMENT="" />
    <EXPORT ORDINAL="742" NAME="?GetSacl@CNtSecurityDescriptor@@QEAAPEAVCNtAcl@@XZ" PURGE="0" COMMENT="" />
    <EXPORT ORDINAL="743" NAME="?GetSafeArray@CVarVector@@QEAAPEAUtagSAFEARRAY@@H@Z" PURGE="0" COMMENT="" />
    <EXPORT ORDINAL="744" NAME="?GetScalarAt@CSafeArray@@AEAA?ATSA_ArrayScalar@@H@Z" PURGE="0" COMMENT="" />
    <EXPORT ORDINAL="745" NAME="?GetSeconds@CDateTimeParser@@QEAAEXZ" PURGE="0" COMMENT="" />
    <EXPORT ORDINAL="746" NAME="?GetSeconds@CWbemInterval@@QEBAKXZ" PURGE="0" COMMENT="" />
    <EXPORT ORDINAL="747" NAME="?GetSecurityDescriptorFromParameters@@YAJPEAVCNtSecurityDescriptor@@PEAUIWbemClassObject@@PEA_NPEAPEAV1@PEAK@Z" PURGE="0" COMMENT="" />
    <EXPORT ORDINAL="748" NAME="?GetSelectedColumns@CWQLScanner@@QEAAPEBVCFlexArray@@XZ" PURGE="0" COMMENT="" />
    <EXPORT ORDINAL="749" NAME="?GetSerializedSize@C9XAce@@UEAAKXZ" PURGE="0" COMMENT="" />
    <EXPORT ORDINAL="750" NAME="?GetSerializedSize@CNtAce@@UEAAKXZ" PURGE="0" COMMENT="" />
    <EXPORT ORDINAL="751" NAME="?GetSessionName@CWMITraceSettings@@QEAAPEAGXZ" PURGE="0" COMMENT="" />
    <EXPORT ORDINAL="752" NAME="?GetWord@CVar@@QEAAGXZ" PURGE="0" COMMENT="" />
    <EXPORT ORDINAL="753" NAME="?GetBoolAt@CSafeArray@@QEAAFH@Z" PURGE="0" COMMENT="" />
    <EXPORT ORDINAL="754" NAME="?GetSid@CNtAce@@QEAAHAEAVCNtSid@@@Z" PURGE="0" COMMENT="" />
    <EXPORT ORDINAL="755" NAME="?GetSid@CNtAce@@QEAAPEAVCNtSid@@XZ" PURGE="0" COMMENT="" />
    <EXPORT ORDINAL="756" NAME="?GetSidFromThreadOrProcess@CIdentitySecurity@@AEAAJAEAVCNtSid@@@Z" PURGE="0" COMMENT="" />
    <EXPORT ORDINAL="757" NAME="?GetSinglePropertyName@CAbstractQl1Parser@@IEAAPEBGXZ" PURGE="0" COMMENT="" />
    <EXPORT ORDINAL="758" NAME="?GetSitoutPenalty@CExecQueue@@QEAAKXZ" PURGE="-1" COMMENT="" />
    <EXPORT ORDINAL="759" NAME="?GetType@C9XAce@@UEAAHXZ" PURGE="0" COMMENT="" />
    <EXPORT ORDINAL="760" NAME="?GetSize@CNtAce@@QEAAKXZ" PURGE="0" COMMENT="" />
    <EXPORT ORDINAL="761" NAME="?GetSize@CNtAcl@@QEAAKXZ" PURGE="0" COMMENT="" />
    <EXPORT ORDINAL="762" NAME="?GetSize@CNtSecurityDescriptor@@QEAAKXZ" PURGE="0" COMMENT="" />
    <EXPORT ORDINAL="763" NAME="?GetSize@CNtSid@@QEAAKXZ" PURGE="0" COMMENT="" />
    <EXPORT ORDINAL="764" NAME="?IsSTA@CExecQueue@@MEAAHXZ" PURGE="0" COMMENT="" />
    <EXPORT ORDINAL="765" NAME="?GetStatus@CNtSid@@QEAAKXZ" PURGE="0" COMMENT="" />
    <EXPORT ORDINAL="766" NAME="?GetStatus@CNtSecurityDescriptor@@QEAAKXZ" PURGE="0" COMMENT="" />
    <EXPORT ORDINAL="767" NAME="?IsEntered@CCheckedInCritSec@@QEAAHXZ" PURGE="0" COMMENT="" />
    <EXPORT ORDINAL="768" NAME="?GetType@CSafeArray@@QEAAHXZ" PURGE="0" COMMENT="" />
    <EXPORT ORDINAL="769" NAME="?GetStr@Registry@@QEAAHPEBGPEAPEAG@Z" PURGE="0" COMMENT="" />
    <EXPORT ORDINAL="770" NAME="?GetVarVector@CVar@@QEAAPEAVCVarVector@@XZ" PURGE="0" COMMENT="" />
    <EXPORT ORDINAL="771" NAME="?GetStringAt@CEventLogRecord@@QEAAPEBGH@Z" PURGE="0" COMMENT="" />
    <EXPORT ORDINAL="772" NAME="?GetStringAt@CPropertyName@@QEBAPEBGJ@Z" PURGE="0" COMMENT="" />
    <EXPORT ORDINAL="773" NAME="?GetUnknown@CUnkInternal@@QEAAPEAUIUnknown@@XZ" PURGE="0" COMMENT="" />
    <EXPORT ORDINAL="774" NAME="?GetText@CPropertyName@@QEAAPEAGXZ" PURGE="0" COMMENT="" />
    <EXPORT ORDINAL="775" NAME="?GetText@CVar@@QEAAPEAGJJPEBG@Z" PURGE="0" COMMENT="" />
    <EXPORT ORDINAL="776" NAME="?GetText@CVarVector@@QEAAPEAGJJ@Z" PURGE="0" COMMENT="" />
    <EXPORT ORDINAL="777" NAME="?GetText@QL_LEVEL_1_RPN_EXPRESSION@@QEAAPEAGXZ" PURGE="0" COMMENT="" />
    <EXPORT ORDINAL="778" NAME="?GetText@QL_LEVEL_1_TOKEN@@QEAAPEAGXZ" PURGE="0" COMMENT="" />
    <EXPORT ORDINAL="779" NAME="?GetTextSid@CNtSid@@QEAAHPEAGPEAK@Z" PURGE="0" COMMENT="" />
    <EXPORT ORDINAL="780" NAME="?GetTextSid@CNtSid@@QEAAJPEAPEAG@Z" PURGE="0" COMMENT="" />
    <EXPORT ORDINAL="781" NAME="?GetTickCount@CWbemTime@@SA?AV1@XZ" PURGE="0" COMMENT="" />
    <EXPORT ORDINAL="782" NAME="?GetTlsIndex@CExecQueue@@SAKXZ" PURGE="0" COMMENT="" />
    <EXPORT ORDINAL="783" NAME="?GetArrayPtr@CFlexArray@@QEAAPEAPEAXXZ" PURGE="0" COMMENT="" />
    <EXPORT ORDINAL="784" NAME="?IsEnabled@CTraceSessionControl@@QEAA_NXZ" PURGE="0" COMMENT="" />
    <EXPORT ORDINAL="785" NAME="?Status@CVar@@QEAAHXZ" PURGE="0" COMMENT="" />
    <EXPORT ORDINAL="786" NAME="?GetType@CExecQueue@@UEAAPEBGXZ" PURGE="0" COMMENT="" />
    <EXPORT ORDINAL="787" NAME="?GetType@CNtAce@@UEAAHXZ" PURGE="0" COMMENT="" />
    <EXPORT ORDINAL="788" NAME="?GetAccessMask@C9XAce@@UEAAKXZ" PURGE="0" COMMENT="" />
    <EXPORT ORDINAL="789" NAME="?GetType@CVarVector@@QEAAHXZ" PURGE="0" COMMENT="" />
    <EXPORT ORDINAL="790" NAME="?IsEmpty@CInsertionString@@QEAAHXZ" PURGE="0" COMMENT="" />
    <EXPORT ORDINAL="791" NAME="?GetType@Registry@@QEAAHPEBGPEAK@Z" PURGE="0" COMMENT="" />
    <EXPORT ORDINAL="792" NAME="?GetTypeText@CVar@@QEAAPEAGXZ" PURGE="0" COMMENT="" />
    <EXPORT ORDINAL="793" NAME="?GetUTC@CDateTimeParser@@QEAAHXZ" PURGE="0" COMMENT="" />
    <EXPORT ORDINAL="794" NAME="?GetUnknown@CUnk@@QEAAPEAUIUnknown@@XZ" PURGE="0" COMMENT="" />
    <EXPORT ORDINAL="795" NAME="??0CMRCICompression@@QEAA@XZ" PURGE="0" COMMENT="" />
    <EXPORT ORDINAL="796" NAME="?GetDispatch@CVar@@QEAAPEAUIDispatch@@XZ" PURGE="0" COMMENT="" />
    <EXPORT ORDINAL="797" NAME="?GetDispatchAt@CSafeArray@@QEAAPEAUIDispatch@@H@Z" PURGE="0" COMMENT="" />
    <EXPORT ORDINAL="798" NAME="?GetValue@CDMTFParser@@QEAAHH@Z" PURGE="0" COMMENT="" />
    <EXPORT ORDINAL="799" NAME="?GetWhenDoneHandle@CExecRequest@@QEAAPEAXXZ" PURGE="0" COMMENT="" />
    <EXPORT ORDINAL="800" NAME="?GetVariantAt@CSafeArray@@QEAA?AUtagVARIANT@@H@Z" PURGE="0" COMMENT="" />
    <EXPORT ORDINAL="801" NAME="?GetWMIADAPCmdLine@@YAPEAGH@Z" PURGE="0" COMMENT="" />
    <EXPORT ORDINAL="802" NAME="?GetWMITraceSession@@YAPEAXXZ" PURGE="0" COMMENT="" />
    <EXPORT ORDINAL="803" NAME="??BCVar@@QEAAPEADXZ" PURGE="0" COMMENT="" />
    <EXPORT ORDINAL="804" NAME="??BCVar@@QEAAFXZ" PURGE="0" COMMENT="" />
    <EXPORT ORDINAL="805" NAME="?GetYear@CDateTimeParser@@QEAAIXZ" PURGE="0" COMMENT="" />
    <EXPORT ORDINAL="806" NAME="??0CDatePart@@QEAA@XZ" PURGE="0" COMMENT="" />
    <EXPORT ORDINAL="807" NAME="?Get_WPP_INIT_TRACING_Call_State@@YA_NXZ" PURGE="0" COMMENT="" />
    <EXPORT ORDINAL="808" NAME="?Grow@CFlexQueue@@IEAA_NXZ" PURGE="0" COMMENT="" />
    <EXPORT ORDINAL="809" NAME="?Grow@CSmallArrayBlob@@IEAAPEAV1@XZ" PURGE="0" COMMENT="" />
    <EXPORT ORDINAL="810" NAME="?Halt@CHaltable@@QEAAJXZ" PURGE="0" COMMENT="" />
    <EXPORT ORDINAL="811" NAME="?HandleEmbeddedObjectProperties@CTextTemplate@@AEAAPEAGPEAGPEAUIWbemClassObject@@@Z" PURGE="0" COMMENT="" />
    <EXPORT ORDINAL="812" NAME="?HasChildren@CClientOpsNode@@QEAA_NXZ" PURGE="0" COMMENT="" />
    <EXPORT ORDINAL="813" NAME="?HasOwner@CNtSecurityDescriptor@@QEAAHXZ" PURGE="0" COMMENT="" />
    <EXPORT ORDINAL="814" NAME="?HasToBeEnabled@CTraceSessionControl@@QEAA_NXZ" PURGE="0" COMMENT="" />
    <EXPORT ORDINAL="815" NAME="?ImpersonateClient@CWbemCallSecurity@@UEAAJXZ" PURGE="0" COMMENT="" />
    <EXPORT ORDINAL="816" NAME="?NotifyStartingThread@CTimerGenerator@@MEAAXXZ" PURGE="0" COMMENT="" />
    <EXPORT ORDINAL="817" NAME="?IncrementIndex@CFlexQueue@@IEAAXAEAH@Z" PURGE="0" COMMENT="" />
    <EXPORT ORDINAL="818" NAME="?Init@CPropertyName@@QEAAXXZ" PURGE="0" COMMENT="" />
    <EXPORT ORDINAL="819" NAME="?Init@CPublishWMIOperationEvent@@SAJXZ" PURGE="0" COMMENT="" />
    <EXPORT ORDINAL="820" NAME="?Init@CVar@@AEAAXXZ" PURGE="0" COMMENT="" />
    <EXPORT ORDINAL="821" NAME="?InitMap@CWbemInstallObject@@SAXXZ" PURGE="0" COMMENT="" />
    <EXPORT ORDINAL="822" NAME="?InitTls@CExecQueue@@KAXXZ" PURGE="0" COMMENT="" />
    <EXPORT ORDINAL="823" NAME="?InitToken@CAbstractQl1Parser@@KAXPEAU_tag_WbemQl1Token@@@Z" PURGE="0" COMMENT="" />
    <EXPORT ORDINAL="824" NAME="?Initialize@CMUILocaleList@@QEAAJPEAG_N@Z" PURGE="0" COMMENT="" />
    <EXPORT ORDINAL="825" NAME="?Initialize@CSmallArrayBlob@@IEAAXH@Z" PURGE="0" COMMENT="" />
    <EXPORT ORDINAL="826" NAME="?Initialize@CTraceSessionControl@@QEAAKPEBG@Z" PURGE="0" COMMENT="" />
    <EXPORT ORDINAL="827" NAME="?Initialize@CUnk@@UEAAHXZ" PURGE="0" COMMENT="" />
    <EXPORT ORDINAL="828" NAME="?InitializeThread@CExecQueue@@MEAAJXZ" PURGE="-1" COMMENT="" />
    <EXPORT ORDINAL="829" NAME="?Insert@CClientOpsNode@@AEAAXPEAV1@@Z" PURGE="0" COMMENT="" />
    <EXPORT ORDINAL="830" NAME="?InsertAt@CFlexArray@@QEAAHHPEAX@Z" PURGE="0" COMMENT="" />
    <EXPORT ORDINAL="831" NAME="?InsertAt@CSmallArrayBlob@@QEAAPEAV1@HPEAX@Z" PURGE="0" COMMENT="" />
    <EXPORT ORDINAL="832" NAME="?InsertAt@CVarVector@@QEAAHHAEAVCVar@@@Z" PURGE="0" COMMENT="" />
    <EXPORT ORDINAL="833" NAME="?InsertAt@CWStringArray@@QEAAHHPEBG@Z" PURGE="0" COMMENT="" />
    <EXPORT ORDINAL="834" NAME="?AddRef@CBuffer@@UEAAKXZ" PURGE="0" COMMENT="" />
    <EXPORT ORDINAL="835" NAME="?InternalQueryInterface@CUnkInternal@@QEAAJAEBU_GUID@@PEAPEAX@Z" PURGE="0" COMMENT="" />
    <EXPORT ORDINAL="836" NAME="?InternalRawArrayAccess@CVarVector@@QEAAJXZ" PURGE="0" COMMENT="" />
    <EXPORT ORDINAL="837" NAME="?InternalRelease@CUnkInternal@@QEAAKXZ" PURGE="0" COMMENT="" />
    <EXPORT ORDINAL="838" NAME="?Intersection@CWStringArray@@SAXAEAV1@00@Z" PURGE="0" COMMENT="" />
    <EXPORT ORDINAL="839" NAME="?IsAdmin@@YAHPEAX@Z" PURGE="0" COMMENT="" />
    <EXPORT ORDINAL="840" NAME="?IsAppropriateThread@CExecQueue@@MEAAHXZ" PURGE="0" COMMENT="" />
    <EXPORT ORDINAL="841" NAME="?IsDataNull@CVar@@QEAAHXZ" PURGE="0" COMMENT="" />
    <EXPORT ORDINAL="842" NAME="?IsEmbeddedObjectProperty@CTextTemplate@@AEAAHPEAG@Z" PURGE="0" COMMENT="" />
    <EXPORT ORDINAL="843" NAME="?Size@CFlexArray@@QEBAHXZ" PURGE="0" COMMENT="" />
    <EXPORT ORDINAL="844" NAME="?IsZero@CWbemTime@@QEBAHXZ" PURGE="0" COMMENT="" />
    <EXPORT ORDINAL="845" NAME="?IsValid@CDMTFParser@@QEAA_NXZ" PURGE="0" COMMENT="" />
    <EXPORT ORDINAL="846" NAME="?IsEntered@CEnterWbemCriticalSection@@QEAAHXZ" PURGE="0" COMMENT="" />
    <EXPORT ORDINAL="847" NAME="??BCVar@@QEAAJXZ" PURGE="0" COMMENT="" />
    <EXPORT ORDINAL="848" NAME="?IsFinite@CWbemInterval@@QEBAHXZ" PURGE="0" COMMENT="" />
    <EXPORT ORDINAL="849" NAME="?IsFinite@CWbemTime@@QEBAHXZ" PURGE="0" COMMENT="" />
    <EXPORT ORDINAL="850" NAME="?IsHalted@CHaltable@@QEAAHXZ" PURGE="0" COMMENT="" />
    <EXPORT ORDINAL="851" NAME="?IsIdleTooLong@CExecQueue@@MEAAHPEAVCThreadRecord@1@K@Z" PURGE="0" COMMENT="" />
    <EXPORT ORDINAL="852" NAME="?IsImpersonating@CWbemCallSecurity@@UEAAHXZ" PURGE="0" COMMENT="" />
    <EXPORT ORDINAL="853" NAME="?IsInAdminGroup@@YAHXZ" PURGE="0" COMMENT="" />
    <EXPORT ORDINAL="854" NAME="?IsInitialized@CWbemInstallObject@@CA_NXZ" PURGE="0" COMMENT="" />
    <EXPORT ORDINAL="855" NAME="?IsInterval@CDMTFParser@@QEAA_NXZ" PURGE="0" COMMENT="" />
    <EXPORT ORDINAL="856" NAME="?IsLocalConnection@@YAHPEAUIUnknown@@@Z" PURGE="0" COMMENT="" />
    <EXPORT ORDINAL="857" NAME="?IsLocalService@@YAHPEAX@Z" PURGE="0" COMMENT="" />
    <EXPORT ORDINAL="858" NAME="?IsNT@@YAHXZ" PURGE="0" COMMENT="" />
    <EXPORT ORDINAL="859" NAME="?IsNetworkService@@YAHPEAX@Z" PURGE="0" COMMENT="" />
    <EXPORT ORDINAL="860" NAME="?IsNtSetupRunning@@YAHXZ" PURGE="0" COMMENT="" />
    <EXPORT ORDINAL="861" NAME="?IsNull@CVar@@QEAAHXZ" PURGE="0" COMMENT="" />
    <EXPORT ORDINAL="862" NAME="?IsOffline@CWbemInstallObject@@SA_NXZ" PURGE="0" COMMENT="" />
    <EXPORT ORDINAL="863" NAME="?IsOk@CExecRequest@@QEAA_NXZ" PURGE="0" COMMENT="" />
    <EXPORT ORDINAL="864" NAME="?IsOptimized@CVarVector@@QEAAHXZ" PURGE="0" COMMENT="" />
    <EXPORT ORDINAL="865" NAME="?IsPrivilegePresent@@YA_NPEAXJ@Z" PURGE="0" COMMENT="" />
    <EXPORT ORDINAL="866" NAME="?MarkForRemoval@CTimerInstruction@@UEAAJXZ" PURGE="0" COMMENT="" />
    <EXPORT ORDINAL="867" NAME="?IsSTAThread@CExecQueue@@SAHXZ" PURGE="0" COMMENT="" />
    <EXPORT ORDINAL="868" NAME="?IsSuitableThread@CExecQueue@@MEAAHPEAVCThreadRecord@1@PEAVCExecRequest@@@Z" PURGE="0" COMMENT="" />
    <EXPORT ORDINAL="869" NAME="?IsUsed@CDMTFParser@@QEAA_NH@Z" PURGE="0" COMMENT="" />
    <EXPORT ORDINAL="870" NAME="?IsUser@CNtSid@@QEAA_NXZ" PURGE="0" COMMENT="" />
    <EXPORT ORDINAL="871" NAME="?IsUserInGroup@CNtSecurity@@SAHPEAXAEAVCNtSid@@PEAH@Z" PURGE="0" COMMENT="" />
    <EXPORT ORDINAL="872" NAME="?GetTraceLevel@CWMITraceSettings@@QEAAEXZ" PURGE="0" COMMENT="" />
    <EXPORT ORDINAL="873" NAME="?IsValid@CNtAcl@@QEAAHXZ" PURGE="0" COMMENT="" />
    <EXPORT ORDINAL="874" NAME="?IsValid@CNtSecurityDescriptor@@QEAAHXZ" PURGE="0" COMMENT="" />
    <EXPORT ORDINAL="875" NAME="?IsValid@CNtSid@@QEAAHXZ" PURGE="0" COMMENT="" />
    <EXPORT ORDINAL="876" NAME="?IsValidAmPmString@CDateTimeParser@@IEAAHPEAGPEBGQEAPEAG@Z" PURGE="0" COMMENT="" />
    <EXPORT ORDINAL="877" NAME="?IsValidColonMillisecond@CDateTimeParser@@IEAAHPEAGPEBG@Z" PURGE="0" COMMENT="" />
    <EXPORT ORDINAL="878" NAME="?IsValidDateTime@CDateTimeParser@@QEAAHXZ" PURGE="0" COMMENT="" />
    <EXPORT ORDINAL="879" NAME="?IsValidDayNumber@CDateTimeParser@@IEAAHPEAGPEBG@Z" PURGE="0" COMMENT="" />
    <EXPORT ORDINAL="880" NAME="?IsValidDotMillisecond@CDateTimeParser@@IEAAHPEAGPEBG@Z" PURGE="0" COMMENT="" />
    <EXPORT ORDINAL="881" NAME="?IsValidElementName2@@YAHPEBGKH@Z" PURGE="0" COMMENT="" />
    <EXPORT ORDINAL="882" NAME="?IsValidElementName@@YAHPEBGK@Z" PURGE="0" COMMENT="" />
    <EXPORT ORDINAL="883" NAME="?IsValidHourNumber@CDateTimeParser@@IEAAHPEAGPEBG@Z" PURGE="0" COMMENT="" />
    <EXPORT ORDINAL="884" NAME="?IsValidMinuteNumber@CDateTimeParser@@IEAAHPEAGPEBG@Z" PURGE="0" COMMENT="" />
    <EXPORT ORDINAL="885" NAME="?IsValidMonthNumber@CDateTimeParser@@IEAAHPEAGPEBG@Z" PURGE="0" COMMENT="" />
    <EXPORT ORDINAL="886" NAME="?IsValidMonthString@CDateTimeParser@@IEAAHPEAGPEBGQEAPEAG2@Z" PURGE="0" COMMENT="" />
    <EXPORT ORDINAL="887" NAME="?IsValidSecondNumber@CDateTimeParser@@IEAAHPEAGPEBG@Z" PURGE="0" COMMENT="" />
    <EXPORT ORDINAL="888" NAME="?IsValidVectorArray@CVarVector@@SAHHPEAUtagSAFEARRAY@@@Z" PURGE="0" COMMENT="" />
    <EXPORT ORDINAL="889" NAME="?IsValidVectorType@CVarVector@@SAHH@Z" PURGE="0" COMMENT="" />
    <EXPORT ORDINAL="890" NAME="?IsValidYearMonthDayNumber@CDateTimeParser@@IEAAHPEAG@Z" PURGE="0" COMMENT="" />
    <EXPORT ORDINAL="891" NAME="?IsValidYearNumber@CDateTimeParser@@IEAAHPEAGPEBGH@Z" PURGE="0" COMMENT="" />
    <EXPORT ORDINAL="892" NAME="?IsW2KOrMore@@YAHXZ" PURGE="0" COMMENT="" />
    <EXPORT ORDINAL="893" NAME="?IsWildcard@CDMTFParser@@QEAA_NH@Z" PURGE="0" COMMENT="" />
    <EXPORT ORDINAL="894" NAME="?IsZero@CWbemInterval@@QEBAHXZ" PURGE="0" COMMENT="" />
    <EXPORT ORDINAL="895" NAME="?IsEmpty@CInstructionQueue@@QEAAHXZ" PURGE="0" COMMENT="" />
    <EXPORT ORDINAL="896" NAME="?LCID_To_Culture_Format@CMUILocale@@SAJKPEAG_K@Z" PURGE="0" COMMENT="" />
    <EXPORT ORDINAL="897" NAME="?LCID_To_ms_XXX_Format@CMUILocale@@SAJKPEAG_K@Z" PURGE="0" COMMENT="" />
    <EXPORT ORDINAL="898" NAME="??1CCheckedInCritSec@@QEAA@XZ" PURGE="0" COMMENT="" />
    <EXPORT ORDINAL="899" NAME="?Leave@CStaticCritSec@@QEAAXXZ" PURGE="-1" COMMENT="" />
    <EXPORT ORDINAL="900" NAME="?Leave@CExecQueue@@QEAAXXZ" PURGE="-1" COMMENT="" />
    <EXPORT ORDINAL="901" NAME="?Leave@CCritSec@@QEAAXXZ" PURGE="-1" COMMENT="" />
    <EXPORT ORDINAL="902" NAME="?Leave@CWbemCriticalSection@@QEAAXXZ" PURGE="0" COMMENT="" />
    <EXPORT ORDINAL="903" NAME="?Length@WString@@QEBAHXZ" PURGE="0" COMMENT="" />
    <EXPORT ORDINAL="904" NAME="?LocaleName_To_LCID@CMUILocale@@SAJPEBGPEA_NPEAK@Z" PURGE="0" COMMENT="" />
    <EXPORT ORDINAL="905" NAME="?Lock@?$CLockableFlexArray@VCStaticCritSec@@@@QEAAXXZ" PURGE="0" COMMENT="" />
    <EXPORT ORDINAL="906" NAME="?Lock@CClientOpsNode@@QEAAXXZ" PURGE="0" COMMENT="" />
    <EXPORT ORDINAL="907" NAME="?Revert@CBuffer@@UEAAJXZ" PURGE="0" COMMENT="" />
    <EXPORT ORDINAL="908" NAME="?LogError@CExecQueue@@MEAAXPEAVCExecRequest@@H@Z" PURGE="-1" COMMENT="" />
    <EXPORT ORDINAL="909" NAME="?LoggingLevelEnabled@@YAHK@Z" PURGE="0" COMMENT="" />
    <EXPORT ORDINAL="910" NAME="?MakeInternalCopyOfThread@CWbemCallSecurity@@SAPEAV1@XZ" PURGE="0" COMMENT="" />
    <EXPORT ORDINAL="911" NAME="?MakeOptimized@CVarVector@@QEAAHHHH@Z" PURGE="0" COMMENT="" />
    <EXPORT ORDINAL="912" NAME="?WbemOutOfMemory@CWin32DefaultArena@@SAHXZ" PURGE="0" COMMENT="" />
    <EXPORT ORDINAL="913" NAME="?Match@CLike@@QEAA_NPEBG@Z" PURGE="0" COMMENT="" />
    <EXPORT ORDINAL="914" NAME="?MatchSet@CLike@@IEAA_NPEBG0AEAH@Z" PURGE="0" COMMENT="" />
    <EXPORT ORDINAL="915" NAME="?MoveToSubkey@Registry@@QEAAHPEBG@Z" PURGE="0" COMMENT="" />
    <EXPORT ORDINAL="916" NAME="?Mrci1Decompress@CBaseMrciCompression@@QEAAIPEAEI0I@Z" PURGE="0" COMMENT="" />
    <EXPORT ORDINAL="917" NAME="?Mrci1MaxCompress@CBaseMrciCompression@@QEAAIPEAEI0I@Z" PURGE="0" COMMENT="" />
    <EXPORT ORDINAL="918" NAME="?Mrci2Decompress@CBaseMrciCompression@@QEAAIPEAEI0I@Z" PURGE="0" COMMENT="" />
    <EXPORT ORDINAL="919" NAME="?Mrci2MaxCompress@CBaseMrciCompression@@QEAAIPEAEI0I@Z" PURGE="0" COMMENT="" />
    <EXPORT ORDINAL="920" NAME="?Next@CAbstractQl1Parser@@MEAAHH@Z" PURGE="0" COMMENT="" />
    <EXPORT ORDINAL="921" NAME="?Next@CWQLScanner@@AEAAHXZ" PURGE="0" COMMENT="" />
    <EXPORT ORDINAL="922" NAME="?NormalizeCimDateTime@@YAHPEBGPEAPEAG@Z" PURGE="0" COMMENT="" />
    <EXPORT ORDINAL="923" NAME="?NotifyStoppingThread@CTimerGenerator@@MEAAXXZ" PURGE="0" COMMENT="" />
    <EXPORT ORDINAL="924" NAME="?ObjectDestroyed@CContainerControl@@UEAAXPEAUIUnknown@@@Z" PURGE="0" COMMENT="" />
    <EXPORT ORDINAL="925" NAME="?OnInitialize@CUnk@@UEAAHXZ" PURGE="0" COMMENT="" />
    <EXPORT ORDINAL="926" NAME="??1CDMTFParser@@QEAA@XZ" PURGE="0" COMMENT="" />
    <EXPORT ORDINAL="927" NAME="?DumpText@CVar@@QEAAHPEAU_iobuf@@@Z" PURGE="0" COMMENT="" />
    <EXPORT ORDINAL="928" NAME="?Open@CEventLog@@QEAAHXZ" PURGE="0" COMMENT="" />
    <EXPORT ORDINAL="929" NAME="?Open@Registry@@QEAAHPEAUHKEY__@@PEBGK@Z" PURGE="0" COMMENT="" />
    <EXPORT ORDINAL="930" NAME="?OrderAces@CNtAcl@@QEAAPEAV1@XZ" PURGE="0" COMMENT="" />
    <EXPORT ORDINAL="931" NAME="?Parse@CAbstractQl1Parser@@QEAAHPEAVCQl1ParseSink@@H@Z" PURGE="0" COMMENT="" />
    <EXPORT ORDINAL="932" NAME="?Parse@CWQLScanner@@QEAAHXZ" PURGE="0" COMMENT="" />
    <EXPORT ORDINAL="933" NAME="?Parse@QL1_Parser@@QEAAHPEAPEAUQL_LEVEL_1_RPN_EXPRESSION@@@Z" PURGE="0" COMMENT="" />
    <EXPORT ORDINAL="934" NAME="?ParseAbsolute@CDMTFParser@@IEAAXPEBG@Z" PURGE="0" COMMENT="" />
    <EXPORT ORDINAL="935" NAME="?ParseDate@CDMTFParser@@IEAAXPEBG@Z" PURGE="0" COMMENT="" />
    <EXPORT ORDINAL="936" NAME="?ParseInterval@CDMTFParser@@IEAAXPEBG@Z" PURGE="0" COMMENT="" />
    <EXPORT ORDINAL="937" NAME="?ParsePart@CDMTFParser@@IEAAHPEBGHHPEAHHH@Z" PURGE="0" COMMENT="" />
    <EXPORT ORDINAL="938" NAME="?Peek@CFlexQueue@@QEAAPEAXXZ" PURGE="0" COMMENT="" />
    <EXPORT ORDINAL="939" NAME="?ProcessArray@CTextTemplate@@AEAAPEAGAEBUtagVARIANT@@PEAG@Z" PURGE="0" COMMENT="" />
    <EXPORT ORDINAL="940" NAME="?Publish@CPublishWMIOperationEvent@@SAJKKPEAG00K0@Z" PURGE="0" COMMENT="" />
    <EXPORT ORDINAL="941" NAME="?PublishProviderInfo@CPublishWMIOperationEvent@@SAJKPEAG000@Z" PURGE="0" COMMENT="" />
    <EXPORT ORDINAL="942" NAME="?PublishStop@CPublishWMIOperationEvent@@SAJK@Z" PURGE="0" COMMENT="" />
    <EXPORT ORDINAL="943" NAME="?Pushback@CWQLScanner@@AEAAHPEAUWSLexToken@@@Z" PURGE="0" COMMENT="" />
    <EXPORT ORDINAL="944" NAME="?Query@CTraceSessionControl@@SAK_KPEAGPEAPEAVCWMITraceSettings@@@Z" PURGE="0" COMMENT="" />
    <EXPORT ORDINAL="945" NAME="?QueryBlanket@CWbemCallSecurity@@UEAAJPEAK0PEAPEAG00PEAPEAX0@Z" PURGE="0" COMMENT="" />
    <EXPORT ORDINAL="946" NAME="?QueryInterface@CBuffer@@UEAAJAEBU_GUID@@PEAPEAX@Z" PURGE="0" COMMENT="" />
    <EXPORT ORDINAL="947" NAME="?QueryInterface@CUnk@@UEAAJAEBU_GUID@@PEAPEAX@Z" PURGE="0" COMMENT="" />
    <EXPORT ORDINAL="948" NAME="?QueryInterface@CUnkInternal@@UEAAJAEBU_GUID@@PEAPEAX@Z" PURGE="0" COMMENT="" />
    <EXPORT ORDINAL="949" NAME="?QueryInterface@CWbemCallSecurity@@UEAAJAEBU_GUID@@PEAPEAX@Z" PURGE="0" COMMENT="" />
    <EXPORT ORDINAL="950" NAME="?QueueUnblockedWaitForSingleObject@CExecQueue@@SAKPEAXK@Z" PURGE="0" COMMENT="" />
    <EXPORT ORDINAL="951" NAME="?QueueWaitForSingleObject@CExecQueue@@SAKPEAXK@Z" PURGE="0" COMMENT="" />
    <EXPORT ORDINAL="952" NAME="?Read@CBuffer@@UEAAJPEAXKPEAK@Z" PURGE="0" COMMENT="" />
    <EXPORT ORDINAL="953" NAME="?ReadFromRegistry@CWMITraceSettings@@QEAAKPEBG@Z" PURGE="0" COMMENT="" />
    <EXPORT ORDINAL="954" NAME="?ReadI64@@YAHPEBGAEFA_J@Z" PURGE="0" COMMENT="" />
    <EXPORT ORDINAL="955" NAME="?ReadLPWSTR@CBuffer@@QEAAJAEAPEBG@Z" PURGE="0" COMMENT="" />
    <EXPORT ORDINAL="956" NAME="?ReadUI64@@YAHPEBGAEFA_K@Z" PURGE="0" COMMENT="" />
    <EXPORT ORDINAL="957" NAME="?Realloc@CWin32DefaultArena@@UEAAPEAXPEAX_K@Z" PURGE="0" COMMENT="" />
    <EXPORT ORDINAL="958" NAME="?ReduceSql89Joins@CWQLScanner@@AEAAHXZ" PURGE="0" COMMENT="" />
    <EXPORT ORDINAL="959" NAME="?ReduceSql92Joins@CWQLScanner@@AEAAHXZ" PURGE="0" COMMENT="" />
    <EXPORT ORDINAL="960" NAME="?Register@CExecQueue@@KAXPEAVCThreadRecord@1@@Z" PURGE="-1" COMMENT="" />
    <EXPORT ORDINAL="961" NAME="?RegisterCMIFlushRepositoryCacheHook@CWbemInstallObject@@SAXP6AJH@Z@Z" PURGE="0" COMMENT="" />
    <EXPORT ORDINAL="962" NAME="?RegisterDLL@@YAXPEAUHINSTANCE__@@U_GUID@@PEAG22@Z" PURGE="0" COMMENT="" />
    <EXPORT ORDINAL="963" NAME="?RegisterDllAppid@@YAJPEAUHINSTANCE__@@U_GUID@@PEAG222@Z" PURGE="0" COMMENT="" />
    <EXPORT ORDINAL="964" NAME="?Release@CBasicUnloadInstruction@@UEAAXXZ" PURGE="0" COMMENT="" />
    <EXPORT ORDINAL="965" NAME="?Release@CBuffer@@UEAAKXZ" PURGE="0" COMMENT="" />
    <EXPORT ORDINAL="966" NAME="?Release@CContainerControl@@UEAAXPEAUIUnknown@@@Z" PURGE="-1" COMMENT="" />
    <EXPORT ORDINAL="967" NAME="?Release@CExecQueue@@QEAAXXZ" PURGE="0" COMMENT="" />
    <EXPORT ORDINAL="968" NAME="?Release@CUnk@@UEAAKXZ" PURGE="0" COMMENT="" />
    <EXPORT ORDINAL="969" NAME="?Release@CUnkInternal@@UEAAKXZ" PURGE="0" COMMENT="" />
    <EXPORT ORDINAL="970" NAME="?Release@CWbemCallSecurity@@UEAAKXZ" PURGE="0" COMMENT="" />
    <EXPORT ORDINAL="971" NAME="?Release@QL_LEVEL_1_RPN_EXPRESSION@@QEAAXXZ" PURGE="0" COMMENT="" />
    <EXPORT ORDINAL="972" NAME="?RemainsUntil@CWbemTime@@QEBA?AVCWbemInterval@@AEBV1@@Z" PURGE="0" COMMENT="" />
    <EXPORT ORDINAL="973" NAME="?Remove@CInstructionQueue@@QEAAJPEAVCInstructionTest@@PEAPEAVCTimerInstruction@@@Z" PURGE="0" COMMENT="" />
    <EXPORT ORDINAL="974" NAME="?Remove@CMinMaxLimitControl@@UEAAJK@Z" PURGE="0" COMMENT="" />
    <EXPORT ORDINAL="975" NAME="?Remove@CTimerGenerator@@QEAAJPEAVCInstructionTest@@@Z" PURGE="0" COMMENT="" />
    <EXPORT ORDINAL="976" NAME="?RemoveAt@CFlexArray@@QEAAHH@Z" PURGE="0" COMMENT="" />
    <EXPORT ORDINAL="977" NAME="?RemoveAt@CSafeArray@@QEAAHH@Z" PURGE="0" COMMENT="" />
    <EXPORT ORDINAL="978" NAME="?RemoveAt@CSmallArrayBlob@@QEAAPEAV1@HPEAPEAX@Z" PURGE="0" COMMENT="" />
    <EXPORT ORDINAL="979" NAME="?RemoveAt@CVarVector@@QEAAHH@Z" PURGE="0" COMMENT="" />
    <EXPORT ORDINAL="980" NAME="?RemoveAt@CWStringArray@@QEAAHH@Z" PURGE="0" COMMENT="" />
    <EXPORT ORDINAL="981" NAME="?RemoveFileFromAutoRecoverFolder@@YAJPEBG@Z" PURGE="0" COMMENT="" />
    <EXPORT ORDINAL="982" NAME="?RemoveMember@CLimitControl@@UEAAJXZ" PURGE="0" COMMENT="" />
    <EXPORT ORDINAL="983" NAME="?RemoveSelf@CClientOpsNode@@QEAAXXZ" PURGE="-1" COMMENT="" />
    <EXPORT ORDINAL="984" NAME="?ReplaceAt@CWStringArray@@QEAAHHPEAG@Z" PURGE="0" COMMENT="" />
    <EXPORT ORDINAL="985" NAME="?ReplaceClassName@QL1_Parser@@SAPEAGPEAUQL_LEVEL_1_RPN_EXPRESSION@@PEBG@Z" PURGE="0" COMMENT="" />
    <EXPORT ORDINAL="986" NAME="?Report@CEventLog@@QEAAHGKVCInsertionString@@000000000@Z" PURGE="0" COMMENT="" />
    <EXPORT ORDINAL="987" NAME="?Requeue@CFlexQueue@@QEAA_NPEAX@Z" PURGE="0" COMMENT="" />
    <EXPORT ORDINAL="988" NAME="?Reread@CRegistryMinMaxLimitControl@@QEAAJXZ" PURGE="0" COMMENT="" />
    <EXPORT ORDINAL="989" NAME="?Reset@CBuffer@@QEAAXXZ" PURGE="0" COMMENT="" />
    <EXPORT ORDINAL="990" NAME="?Reset@CMRCIControl@@QEAAXXZ" PURGE="0" COMMENT="" />
    <EXPORT ORDINAL="991" NAME="?ResetDate@CDateTimeParser@@IEAAXH@Z" PURGE="0" COMMENT="" />
    <EXPORT ORDINAL="992" NAME="?ResetDateTime@CDateTimeParser@@IEAAXH@Z" PURGE="0" COMMENT="" />
    <EXPORT ORDINAL="993" NAME="?ResetQueue@CFlexQueue@@QEAAXXZ" PURGE="0" COMMENT="" />
    <EXPORT ORDINAL="994" NAME="?ResetTime@CDateTimeParser@@IEAAXH@Z" PURGE="0" COMMENT="" />
    <EXPORT ORDINAL="995" NAME="?Resize@CNtAcl@@QEAAHK@Z" PURGE="0" COMMENT="" />
    <EXPORT ORDINAL="996" NAME="?Resume@CHaltable@@QEAAJXZ" PURGE="0" COMMENT="" />
    <EXPORT ORDINAL="997" NAME="?ResumeAll@CHaltable@@QEAAJXZ" PURGE="0" COMMENT="" />
    <EXPORT ORDINAL="998" NAME="?RetrieveSidFromCall@@YAJAEAVCNtSid@@@Z" PURGE="0" COMMENT="" />
    <EXPORT ORDINAL="999" NAME="?RetrieveSidFromCall@CIdentitySecurity@@AEAAJAEAVCNtSid@@@Z" PURGE="0" COMMENT="" />
    <EXPORT ORDINAL="1000" NAME="?RetrieveSidFromToken@@YAJPEAXAEAVCNtSid@@@Z" PURGE="0" COMMENT="" />
    <EXPORT ORDINAL="1001" NAME="?ReturnEscapedReturns@CTextTemplate@@AEAAPEAGPEAG@Z" PURGE="0" COMMENT="" />
    <EXPORT ORDINAL="1002" NAME="?UnlockRegion@CBuffer@@UEAAJT_ULARGE_INTEGER@@0K@Z" PURGE="0" COMMENT="" />
    <EXPORT ORDINAL="1003" NAME="?RevertToSelf@CWbemCallSecurity@@UEAAJXZ" PURGE="0" COMMENT="" />
    <EXPORT ORDINAL="1004" NAME="?ScheduleFreeUnusedLibraries@CTimerGenerator@@QEAAXXZ" PURGE="0" COMMENT="" />
    <EXPORT ORDINAL="1005" NAME="?SchedulerThread@CTimerGenerator@@CAKPEAX@Z" PURGE="0" COMMENT="" />
    <EXPORT ORDINAL="1006" NAME="?SearchForRecord@CEventLog@@IEAAHPEAVCEventLogRecord@@@Z" PURGE="0" COMMENT="" />
    <EXPORT ORDINAL="1007" NAME="?SearchForSuitableRequest@CExecQueue@@MEAAPEAVCExecRequest@@PEAVCThreadRecord@1@@Z" PURGE="0" COMMENT="" />
    <EXPORT ORDINAL="1008" NAME="?Seek@CBuffer@@UEAAJT_LARGE_INTEGER@@KPEAT_ULARGE_INTEGER@@@Z" PURGE="0" COMMENT="" />
    <EXPORT ORDINAL="1009" NAME="?SelectList@CWQLScanner@@AEAAHXZ" PURGE="0" COMMENT="" />
    <EXPORT ORDINAL="1010" NAME="?Serialize@C9XAce@@UEAA_NPEAE_K@Z" PURGE="0" COMMENT="" />
    <EXPORT ORDINAL="1011" NAME="?Serialize@CNtAce@@UEAA_NPEAE_K@Z" PURGE="0" COMMENT="" />
    <EXPORT ORDINAL="1012" NAME="?Set100nss@CWbemTime@@QEAAX_J@Z" PURGE="0" COMMENT="" />
    <EXPORT ORDINAL="1013" NAME="?Set@CTimerGenerator@@QEAAJPEAVCTimerInstruction@@VCWbemTime@@@Z" PURGE="0" COMMENT="" />
    <EXPORT ORDINAL="1014" NAME="?SetAggregated@QL_LEVEL_1_RPN_EXPRESSION@@UEAAXXZ" PURGE="0" COMMENT="" />
    <EXPORT ORDINAL="1015" NAME="?SetAggregationTolerance@QL_LEVEL_1_RPN_EXPRESSION@@UEAAXAEBU_tag_WbemQl1Tolerance@@@Z" PURGE="0" COMMENT="" />
    <EXPORT ORDINAL="1016" NAME="?SetDestructorPolicy@CSafeArray@@QEAAXH@Z" PURGE="0" COMMENT="" />
    <EXPORT ORDINAL="1017" NAME="?SetAsNull@CVar@@QEAAXXZ" PURGE="0" COMMENT="" />
    <EXPORT ORDINAL="1018" NAME="?SetAt@CFlexArray@@QEAAXHPEAX@Z" PURGE="0" COMMENT="" />
    <EXPORT ORDINAL="1019" NAME="?SetAt@CSmallArrayBlob@@QEAAPEAV1@HPEAXPEAPEAX@Z" PURGE="0" COMMENT="" />
    <EXPORT ORDINAL="1020" NAME="?SetAt@CWStringArray@@QEAAHHPEBG@Z" PURGE="0" COMMENT="" />
    <EXPORT ORDINAL="1021" NAME="?SetAutoRecoverFolder@CWbemInstallObject@@SAXPEBG@Z" PURGE="0" COMMENT="" />
    <EXPORT ORDINAL="1022" NAME="?SetBSTR@CVar@@QEAAHPEAG@Z" PURGE="0" COMMENT="" />
    <EXPORT ORDINAL="1023" NAME="?SetBSTR@CVar@@QEAAHVauto_bstr@@@Z" PURGE="0" COMMENT="" />
    <EXPORT ORDINAL="1024" NAME="?SetBSTRAt@CSafeArray@@QEAAHHPEAG@Z" PURGE="0" COMMENT="" />
    <EXPORT ORDINAL="1025" NAME="?SetBinary@Registry@@QEAAHPEBGPEAEK@Z" PURGE="0" COMMENT="" />
    <EXPORT ORDINAL="1026" NAME="?SetBinaryPath@CWbemInstallObject@@SAXPEBG@Z" PURGE="0" COMMENT="" />
    <EXPORT ORDINAL="1027" NAME="?SetBlob@CVar@@QEAAXPEAUtagBLOB@@H@Z" PURGE="0" COMMENT="" />
    <EXPORT ORDINAL="1028" NAME="?SetBool@CVar@@QEAAXF@Z" PURGE="0" COMMENT="" />
    <EXPORT ORDINAL="1029" NAME="?SetShortAt@CSafeArray@@QEAAHHF@Z" PURGE="0" COMMENT="" />
    <EXPORT ORDINAL="1030" NAME="?SetByte@CVar@@QEAAXE@Z" PURGE="0" COMMENT="" />
    <EXPORT ORDINAL="1031" NAME="?SetByteAt@CSafeArray@@QEAAHHE@Z" PURGE="0" COMMENT="" />
    <EXPORT ORDINAL="1032" NAME="?SetCanDelete@CVar@@QEAAXH@Z" PURGE="0" COMMENT="" />
    <EXPORT ORDINAL="1033" NAME="?SetChar@CVar@@QEAAXD@Z" PURGE="0" COMMENT="" />
    <EXPORT ORDINAL="1034" NAME="?SetClassName@QL_LEVEL_1_RPN_EXPRESSION@@UEAAXPEBG@Z" PURGE="0" COMMENT="" />
    <EXPORT ORDINAL="1035" NAME="?SetClsId@CVar@@QEAAXPEAU_GUID@@H@Z" PURGE="0" COMMENT="" />
    <EXPORT ORDINAL="1036" NAME="?SetCountQuery@QL_LEVEL_1_RPN_EXPRESSION@@UEAAXXZ" PURGE="0" COMMENT="" />
    <EXPORT ORDINAL="1037" NAME="?SetDMTF@CWbemTime@@QEAAHPEBG@Z" PURGE="0" COMMENT="" />
    <EXPORT ORDINAL="1038" NAME="?SetDWORD@CVar@@QEAAXK@Z" PURGE="0" COMMENT="" />
    <EXPORT ORDINAL="1039" NAME="?SetDWORD@Registry@@QEAAHPEBGK@Z" PURGE="0" COMMENT="" />
    <EXPORT ORDINAL="1040" NAME="?SetDWORDStr@Registry@@QEAAHPEBGK@Z" PURGE="0" COMMENT="" />
    <EXPORT ORDINAL="1041" NAME="?SetDacl@CNtSecurityDescriptor@@QEAAHPEAVCNtAcl@@@Z" PURGE="0" COMMENT="" />
    <EXPORT ORDINAL="1042" NAME="?SetDate@CDatePart@@QEAAJPEBD@Z" PURGE="0" COMMENT="" />
    <EXPORT ORDINAL="1043" NAME="?SetDate@CDatePart@@QEAAJPEBG@Z" PURGE="0" COMMENT="" />
    <EXPORT ORDINAL="1044" NAME="?SetDateTime@CDateTimeParser@@QEAAHPEBG@Z" PURGE="0" COMMENT="" />
    <EXPORT ORDINAL="1045" NAME="?SetDefaultValues@CWMITraceSettings@@QEAAKXZ" PURGE="0" COMMENT="" />
    <EXPORT ORDINAL="1046" NAME="?SetAreaFlags@CWMITraceSettings@@QEAAXK@Z" PURGE="0" COMMENT="" />
    <EXPORT ORDINAL="1047" NAME="?SetDispatch@CVar@@QEAAXPEAUIDispatch@@@Z" PURGE="0" COMMENT="" />
    <EXPORT ORDINAL="1048" NAME="?SetUnknownAt@CSafeArray@@QEAAHHPEAUIUnknown@@@Z" PURGE="0" COMMENT="" />
    <EXPORT ORDINAL="1049" NAME="?SetDouble@CVar@@QEAAXN@Z" PURGE="0" COMMENT="" />
    <EXPORT ORDINAL="1050" NAME="?SetDoubleAt@CSafeArray@@QEAAHHN@Z" PURGE="0" COMMENT="" />
    <EXPORT ORDINAL="1051" NAME="?SetUnknown@CVar@@QEAAXPEAUIUnknown@@@Z" PURGE="0" COMMENT="" />
    <EXPORT ORDINAL="1052" NAME="?SetExpandStr@Registry@@QEAAHPEBG0@Z" PURGE="0" COMMENT="" />
    <EXPORT ORDINAL="1053" NAME="?SetExpression@CLike@@QEAAXPEBGG@Z" PURGE="0" COMMENT="" />
    <EXPORT ORDINAL="1054" NAME="?SetFailure@CStaticCritSec@@SAXXZ" PURGE="0" COMMENT="" />
    <EXPORT ORDINAL="1055" NAME="?SetFileTime@CVar@@QEAAXPEAU_FILETIME@@@Z" PURGE="0" COMMENT="" />
    <EXPORT ORDINAL="1056" NAME="?SetFileTime@CWbemTime@@QEAAHAEBU_FILETIME@@@Z" PURGE="0" COMMENT="" />
    <EXPORT ORDINAL="1057" NAME="?SetFlags@C9XAce@@UEAAXJ@Z" PURGE="0" COMMENT="" />
    <EXPORT ORDINAL="1058" NAME="?SetFlags@CNtAce@@UEAAXJ@Z" PURGE="0" COMMENT="" />
    <EXPORT ORDINAL="1059" NAME="?SetFloat@CVar@@QEAAXM@Z" PURGE="0" COMMENT="" />
    <EXPORT ORDINAL="1060" NAME="?SetFloatAt@CSafeArray@@QEAAHHM@Z" PURGE="0" COMMENT="" />
    <EXPORT ORDINAL="1061" NAME="?SetFromAbsoluteCopy@CNtSecurityDescriptor@@QEAAHPEAUSNtAbsoluteSD@@@Z" PURGE="0" COMMENT="" />
    <EXPORT ORDINAL="1062" NAME="?SetGroup@CNtSecurityDescriptor@@QEAAHPEAVCNtSid@@@Z" PURGE="0" COMMENT="" />
    <EXPORT ORDINAL="1063" NAME="?SetGrowGranularity@CSafeArray@@QEAAXH@Z" PURGE="0" COMMENT="" />
    <EXPORT ORDINAL="1064" NAME="?SetHandle@CPropertyName@@QEAAXPEAX@Z" PURGE="0" COMMENT="" />
    <EXPORT ORDINAL="1065" NAME="?SetIdleTimeout@CExecQueue@@QEAAXK@Z" PURGE="0" COMMENT="" />
    <EXPORT ORDINAL="1066" NAME="?SetInfo@CClientOpsNode@@QEAAXPEAX@Z" PURGE="0" COMMENT="" />
    <EXPORT ORDINAL="1067" NAME="?SetInterval@CBasicUnloadInstruction@@QEAAXAEAVCWbemInterval@@@Z" PURGE="0" COMMENT="" />
    <EXPORT ORDINAL="1068" NAME="?SetLPSTR@CVar@@QEAAHPEADH@Z" PURGE="0" COMMENT="" />
    <EXPORT ORDINAL="1069" NAME="?SetLPWSTR@CVar@@QEAAHPEAGH@Z" PURGE="0" COMMENT="" />
    <EXPORT ORDINAL="1070" NAME="?SetLogingEnabled@CMemoryLog@@QEAAX_N@Z" PURGE="0" COMMENT="" />
    <EXPORT ORDINAL="1071" NAME="?SetLong@CVar@@QEAAXJ@Z" PURGE="0" COMMENT="" />
    <EXPORT ORDINAL="1072" NAME="?SetLongAt@CSafeArray@@QEAAHHJ@Z" PURGE="0" COMMENT="" />
    <EXPORT ORDINAL="1073" NAME="?SetMax@CMinMaxLimitControl@@QEAAXK@Z" PURGE="0" COMMENT="" />
    <EXPORT ORDINAL="1074" NAME="?SetRawArrayMaxElement@CSafeArray@@QEAAXH@Z" PURGE="0" COMMENT="" />
    <EXPORT ORDINAL="1075" NAME="?SetMin@CMinMaxLimitControl@@QEAAXK@Z" PURGE="0" COMMENT="" />
    <EXPORT ORDINAL="1076" NAME="?SetMultiStr@Registry@@QEAAHPEBGPEAGK@Z" PURGE="0" COMMENT="" />
    <EXPORT ORDINAL="1077" NAME="?SetNext@CExecRequest@@QEAAXPEAV1@@Z" PURGE="0" COMMENT="" />
    <EXPORT ORDINAL="1078" NAME="?SetObjectAccess2@@YAHPEAX@Z" PURGE="0" COMMENT="" />
    <EXPORT ORDINAL="1079" NAME="?SetOffline@CWbemInstallObject@@SAX_N@Z" PURGE="0" COMMENT="" />
    <EXPORT ORDINAL="1080" NAME="?SetOverflowIdleTimeout@CExecQueue@@QEAAXK@Z" PURGE="0" COMMENT="" />
    <EXPORT ORDINAL="1081" NAME="?SetOwner@CNtSecurityDescriptor@@QEAAHPEAVCNtSid@@@Z" PURGE="0" COMMENT="" />
    <EXPORT ORDINAL="1082" NAME="?SetPersistentCfgValue@CPersistentConfig@@QEAAHKK@Z" PURGE="0" COMMENT="" />
    <EXPORT ORDINAL="1083" NAME="?SetPreferredLanguages@CMUILocale@@SAJKPEBGPEAK@Z" PURGE="0" COMMENT="" />
    <EXPORT ORDINAL="1084" NAME="?SetSleepAtMax@CMinMaxLimitControl@@QEAAXK@Z" PURGE="0" COMMENT="" />
    <EXPORT ORDINAL="1085" NAME="?SetQWORD@Registry@@QEAAHPEBG_K@Z" PURGE="0" COMMENT="" />
    <EXPORT ORDINAL="1086" NAME="?SetRaw@CVar@@QEAAXHPEAXH@Z" PURGE="0" COMMENT="" />
    <EXPORT ORDINAL="1087" NAME="?SetRawArrayBinding@CVarVector@@QEAAXH@Z" PURGE="0" COMMENT="" />
    <EXPORT ORDINAL="1088" NAME="?SetRawArrayData@CVarVector@@QEAAJPEAXHH@Z" PURGE="0" COMMENT="" />
    <EXPORT ORDINAL="1089" NAME="?SetSize@CFlexArray@@QEAAXH@Z" PURGE="0" COMMENT="" />
    <EXPORT ORDINAL="1090" NAME="?SetRawArraySize@CVarVector@@QEAAHH@Z" PURGE="0" COMMENT="" />
    <EXPORT ORDINAL="1091" NAME="?SetRawData@CSafeArray@@QEAAHPEAXHH@Z" PURGE="0" COMMENT="" />
    <EXPORT ORDINAL="1092" NAME="?SetRegistryPathCIMOM@CWbemInstallObject@@SAXPEBG@Z" PURGE="0" COMMENT="" />
    <EXPORT ORDINAL="1093" NAME="?SetRegistryPathWbem@CWbemInstallObject@@SAXPEBG@Z" PURGE="0" COMMENT="" />
    <EXPORT ORDINAL="1094" NAME="?SetRepositoryFolder@CWbemInstallObject@@SAXPEBG@Z" PURGE="0" COMMENT="" />
    <EXPORT ORDINAL="1095" NAME="?SetRequestLimits@CExecQueue@@QEAAXJJJ@Z" PURGE="0" COMMENT="" />
    <EXPORT ORDINAL="1096" NAME="?SetSacl@CNtSecurityDescriptor@@QEAAHPEAVCNtAcl@@@Z" PURGE="0" COMMENT="" />
    <EXPORT ORDINAL="1097" NAME="?SetSafeArray@CVar@@QEAAXHPEAUtagSAFEARRAY@@@Z" PURGE="0" COMMENT="" />
    <EXPORT ORDINAL="1098" NAME="?SetScalarAt@CSafeArray@@AEAAHHTSA_ArrayScalar@@@Z" PURGE="0" COMMENT="" />
    <EXPORT ORDINAL="1099" NAME="?SetShort@CVar@@QEAAXF@Z" PURGE="0" COMMENT="" />
    <EXPORT ORDINAL="1100" NAME="?SetBoolAt@CSafeArray@@QEAAHHF@Z" PURGE="0" COMMENT="" />
    <EXPORT ORDINAL="1101" NAME="?SetSize@CBuffer@@QEAAJK@Z" PURGE="-1" COMMENT="" />
    <EXPORT ORDINAL="1102" NAME="?SetSize@CBuffer@@UEAAJT_ULARGE_INTEGER@@@Z" PURGE="0" COMMENT="" />
    <EXPORT ORDINAL="1103" NAME="?SetMilliseconds@CWbemInterval@@QEAAXK@Z" PURGE="0" COMMENT="" />
    <EXPORT ORDINAL="1104" NAME="?SetPriority@CExecRequest@@QEAAXJ@Z" PURGE="0" COMMENT="" />
    <EXPORT ORDINAL="1105" NAME="?SetStr@Registry@@QEAAHPEBG0@Z" PURGE="0" COMMENT="" />
    <EXPORT ORDINAL="1106" NAME="?SetSystemTime@CWbemTime@@QEAAHAEBU_SYSTEMTIME@@@Z" PURGE="0" COMMENT="" />
    <EXPORT ORDINAL="1107" NAME="?SetTemplate@CTextTemplate@@QEAAXPEBG@Z" PURGE="0" COMMENT="" />
    <EXPORT ORDINAL="1108" NAME="?SetThreadLimits@CExecQueue@@QEAAXJJJ@Z" PURGE="0" COMMENT="" />
    <EXPORT ORDINAL="1109" NAME="?SetTolerance@QL_LEVEL_1_RPN_EXPRESSION@@UEAAXAEBU_tag_WbemQl1Tolerance@@@Z" PURGE="0" COMMENT="" />
    <EXPORT ORDINAL="1110" NAME="?SetTraceLevel@CWMITraceSettings@@QEAAXE@Z" PURGE="0" COMMENT="" />
    <EXPORT ORDINAL="1111" NAME="?SetEmbeddedObject@CVar@@QEAAXPEAUIUnknown@@@Z" PURGE="0" COMMENT="" />
    <EXPORT ORDINAL="1112" NAME="?SetVariantAt@CSafeArray@@QEAAHHPEAUtagVARIANT@@@Z" PURGE="0" COMMENT="" />
    <EXPORT ORDINAL="1113" NAME="?SetVarVector@CVar@@QEAAXPEAVCVarVector@@H@Z" PURGE="0" COMMENT="" />
    <EXPORT ORDINAL="1114" NAME="?SetVariant@CVar@@QEAAHPEAUtagVARIANT@@H@Z" PURGE="0" COMMENT="" />
    <EXPORT ORDINAL="1115" NAME="?SetDispatchAt@CSafeArray@@QEAAHHPEAUIDispatch@@@Z" PURGE="0" COMMENT="" />
    <EXPORT ORDINAL="1116" NAME="?SetWMITraceSession@@YAXPEAX@Z" PURGE="0" COMMENT="" />
    <EXPORT ORDINAL="1117" NAME="?SetWhenDoneHandle@CExecRequest@@QEAAXPEAX@Z" PURGE="0" COMMENT="" />
    <EXPORT ORDINAL="1118" NAME="?SetWord@CVar@@QEAAXG@Z" PURGE="0" COMMENT="" />
    <EXPORT ORDINAL="1119" NAME="?Set_WPP_INIT_TRACING_Call_State@@YAX_N@Z" PURGE="0" COMMENT="" />
    <EXPORT ORDINAL="1120" NAME="?Shrink@CSmallArrayBlob@@IEAAPEAV1@XZ" PURGE="0" COMMENT="" />
    <EXPORT ORDINAL="1121" NAME="?ShrinkIfNeeded@CSmallArrayBlob@@IEAAPEAV1@XZ" PURGE="0" COMMENT="" />
    <EXPORT ORDINAL="1122" NAME="?Shutdown@CExecQueue@@QEAAXXZ" PURGE="0" COMMENT="" />
    <EXPORT ORDINAL="1123" NAME="?Shutdown@CTimerGenerator@@UEAAJXZ" PURGE="0" COMMENT="" />
    <EXPORT ORDINAL="1124" NAME="?Shutdown@CWbemInstallObject@@SAXXZ" PURGE="0" COMMENT="" />
    <EXPORT ORDINAL="1125" NAME="?ShutdownThread@CExecQueue@@MEAAXPEAVCThreadRecord@1@@Z" PURGE="0" COMMENT="" />
    <EXPORT ORDINAL="1126" NAME="?SitOutPenalty@CExecQueue@@MEAAXJ@Z" PURGE="0" COMMENT="" />
    <EXPORT ORDINAL="1127" NAME="?Size@CSmallArrayBlob@@QEBAHXZ" PURGE="0" COMMENT="" />
    <EXPORT ORDINAL="1128" NAME="?Size@CSafeArray@@QEAAHXZ" PURGE="0" COMMENT="" />
    <EXPORT ORDINAL="1129" NAME="?Size@CWStringArray@@QEBAHXZ" PURGE="0" COMMENT="" />
    <EXPORT ORDINAL="1130" NAME="?Size@CVarVector@@QEAAHXZ" PURGE="0" COMMENT="" />
    <EXPORT ORDINAL="1131" NAME="??BCHex@@QEAAJXZ" PURGE="0" COMMENT="" />
    <EXPORT ORDINAL="1132" NAME="?Sort@CFlexArray@@QEAAXXZ" PURGE="0" COMMENT="" />
    <EXPORT ORDINAL="1133" NAME="?Sort@CSmallArrayBlob@@QEAAXXZ" PURGE="-1" COMMENT="" />
    <EXPORT ORDINAL="1134" NAME="?Sort@CWStringArray@@QEAAXXZ" PURGE="0" COMMENT="" />
    <EXPORT ORDINAL="1135" NAME="?Start@CTraceSessionControl@@SAKPEBU_GUID@@PEAVCWMITraceSettings@@@Z" PURGE="0" COMMENT="" />
    <EXPORT ORDINAL="1136" NAME="?Stat@CBuffer@@UEAAJPEAUtagSTATSTG@@K@Z" PURGE="0" COMMENT="" />
    <EXPORT ORDINAL="1137" NAME="?Status@CSafeArray@@QEAAHXZ" PURGE="0" COMMENT="" />
    <EXPORT ORDINAL="1138" NAME="?CurrentLine@CAbstractQl1Parser@@QEAAHXZ" PURGE="0" COMMENT="" />
    <EXPORT ORDINAL="1139" NAME="?Status@CVarVector@@QEAAHXZ" PURGE="0" COMMENT="" />
    <EXPORT ORDINAL="1140" NAME="?StripToToken@WString@@QEAAAEAV1@GH@Z" PURGE="0" COMMENT="" />
    <EXPORT ORDINAL="1141" NAME="?StripWhereClause@CWQLScanner@@AEAAHXZ" PURGE="0" COMMENT="" />
    <EXPORT ORDINAL="1142" NAME="?StripWs@WString@@QEAAAEAV1@H@Z" PURGE="0" COMMENT="" />
    <EXPORT ORDINAL="1143" NAME="?Terminate@CBasicUnloadInstruction@@QEAAXXZ" PURGE="-1" COMMENT="" />
    <EXPORT ORDINAL="1144" NAME="?TestDirExistAndCreateWithSDIfNotThere@@YAJPEAG0@Z" PURGE="0" COMMENT="" />
    <EXPORT ORDINAL="1145" NAME="?ThreadMain@CExecQueue@@MEAAXPEAVCThreadRecord@1@@Z" PURGE="0" COMMENT="" />
    <EXPORT ORDINAL="1146" NAME="?Throttle@@YAJKKKKK@Z" PURGE="0" COMMENT="" />
    <EXPORT ORDINAL="1147" NAME="?TimeFormat1@CDateTimeParser@@IEAAHPEBGH@Z" PURGE="0" COMMENT="" />
    <EXPORT ORDINAL="1148" NAME="?TimeFormat2@CDateTimeParser@@IEAAHPEBGH@Z" PURGE="0" COMMENT="" />
    <EXPORT ORDINAL="1149" NAME="?TimeFormat3@CDateTimeParser@@IEAAHPEBGH@Z" PURGE="0" COMMENT="" />
    <EXPORT ORDINAL="1150" NAME="?TimeFormat4@CDateTimeParser@@IEAAHPEBGH@Z" PURGE="0" COMMENT="" />
    <EXPORT ORDINAL="1151" NAME="?TimeFormat5@CDateTimeParser@@IEAAHPEBGH@Z" PURGE="0" COMMENT="" />
    <EXPORT ORDINAL="1152" NAME="?TimeFormat6@CDateTimeParser@@IEAAHPEBGH@Z" PURGE="0" COMMENT="" />
    <EXPORT ORDINAL="1153" NAME="?TimeFormat7@CDateTimeParser@@IEAAHPEBGH@Z" PURGE="0" COMMENT="" />
    <EXPORT ORDINAL="1154" NAME="?TimeFormat8@CDateTimeParser@@IEAAHPEBGH@Z" PURGE="0" COMMENT="" />
    <EXPORT ORDINAL="1155" NAME="?TimeFormat9@CDateTimeParser@@IEAAHPEBGH@Z" PURGE="0" COMMENT="" />
    <EXPORT ORDINAL="1156" NAME="?TimeToWait@CInstructionQueue@@IEAA?AVCWbemInterval@@XZ" PURGE="0" COMMENT="" />
    <EXPORT ORDINAL="1157" NAME="?ToSingleChar@CVar@@QEAAHXZ" PURGE="0" COMMENT="" />
    <EXPORT ORDINAL="1158" NAME="?ToSingleChar@CVarVector@@QEAAHXZ" PURGE="0" COMMENT="" />
    <EXPORT ORDINAL="1159" NAME="?ToUI4@CVar@@QEAAHXZ" PURGE="0" COMMENT="" />
    <EXPORT ORDINAL="1160" NAME="?ToUI4@CVarVector@@QEAAHXZ" PURGE="0" COMMENT="" />
    <EXPORT ORDINAL="1161" NAME="?TouchHead@CInstructionQueue@@IEAAXXZ" PURGE="-1" COMMENT="" />
    <EXPORT ORDINAL="1162" NAME="?Transform@MD5@@SAXPEAXIQEAE@Z" PURGE="0" COMMENT="" />
    <EXPORT ORDINAL="1163" NAME="?Transform@SHA256@@SAXPEAXIQEAE@Z" PURGE="0" COMMENT="" />
    <EXPORT ORDINAL="1164" NAME="?TranslateIntrinsic@CAbstractQl1Parser@@KAKPEBG@Z" PURGE="0" COMMENT="" />
    <EXPORT ORDINAL="1165" NAME="?Trim@CFlexArray@@QEAAXXZ" PURGE="0" COMMENT="" />
    <EXPORT ORDINAL="1166" NAME="?Trim@CSafeArray@@QEAAHXZ" PURGE="0" COMMENT="" />
    <EXPORT ORDINAL="1167" NAME="?Trim@CSmallArrayBlob@@QEAAXXZ" PURGE="0" COMMENT="" />
    <EXPORT ORDINAL="1168" NAME="?TruncAtLToken@WString@@QEAAAEAV1@G@Z" PURGE="0" COMMENT="" />
    <EXPORT ORDINAL="1169" NAME="?TruncAtRToken@WString@@QEAAAEAV1@G@Z" PURGE="0" COMMENT="" />
    <EXPORT ORDINAL="1170" NAME="?TypeToText@CVar@@SAPEAGH@Z" PURGE="0" COMMENT="" />
    <EXPORT ORDINAL="1171" NAME="?UnRegisterDLL@@YAXU_GUID@@PEAG@Z" PURGE="0" COMMENT="" />
    <EXPORT ORDINAL="1172" NAME="?Unaccess@CSafeArray@@QEAAJXZ" PURGE="-1" COMMENT="" />
    <EXPORT ORDINAL="1173" NAME="?UnaccessRawArray@CVarVector@@QEAAJXZ" PURGE="0" COMMENT="" />
    <EXPORT ORDINAL="1174" NAME="?UnbindPtr@CFlexArray@@QEAAPEAPEAXXZ" PURGE="0" COMMENT="" />
    <EXPORT ORDINAL="1175" NAME="?UnbindPtr@WString@@QEAAPEAGXZ" PURGE="0" COMMENT="" />
    <EXPORT ORDINAL="1176" NAME="?UnblockedWaitForSingleObject@CExecQueue@@MEAAKPEAXKPEAVCThreadRecord@1@@Z" PURGE="0" COMMENT="" />
    <EXPORT ORDINAL="1177" NAME="?UncompressBuffer@CMRCICompression@@QEAAIPEAEK0KW4CompressionLevel@1@@Z" PURGE="0" COMMENT="" />
    <EXPORT ORDINAL="1178" NAME="?UncompressFile@CMRCICompression@@QEAAHPEBG0@Z" PURGE="0" COMMENT="" />
    <EXPORT ORDINAL="1179" NAME="?UncompressFileV1@CMRCICompression@@IEAAHHH@Z" PURGE="0" COMMENT="" />
    <EXPORT ORDINAL="1180" NAME="?UninitializeThread@CExecQueue@@MEAAXXZ" PURGE="-1" COMMENT="" />
    <EXPORT ORDINAL="1181" NAME="?Union@CWStringArray@@SAXAEAV1@00@Z" PURGE="0" COMMENT="" />
    <EXPORT ORDINAL="1182" NAME="?Unlock@?$CLockableFlexArray@VCStaticCritSec@@@@QEAAXXZ" PURGE="-1" COMMENT="" />
    <EXPORT ORDINAL="1183" NAME="?Unlock@CClientOpsNode@@QEAAXXZ" PURGE="-1" COMMENT="" />
    <EXPORT ORDINAL="1184" NAME="?Commit@CBuffer@@UEAAJK@Z" PURGE="0" COMMENT="" />
    <EXPORT ORDINAL="1185" NAME="?Unqueue@CFlexQueue@@QEAAPEAXXZ" PURGE="0" COMMENT="" />
    <EXPORT ORDINAL="1186" NAME="?Unquote@WString@@QEAAXXZ" PURGE="0" COMMENT="" />
    <EXPORT ORDINAL="1187" NAME="?UnregisterCMIFlushRepositoryCacheHook@CWbemInstallObject@@SAXXZ" PURGE="0" COMMENT="" />
    <EXPORT ORDINAL="1188" NAME="?UnregisterDllAppid@@YAJU_GUID@@@Z" PURGE="0" COMMENT="" />
    <EXPORT ORDINAL="1189" NAME="?UpdateChildren@CClientOpsNode@@AEAAXPEAV1@@Z" PURGE="0" COMMENT="" />
    <EXPORT ORDINAL="1190" NAME="?ValidateMemSize@CWin32DefaultArena@@SAHH@Z" PURGE="0" COMMENT="" />
    <EXPORT ORDINAL="1191" NAME="?WMIControlCallback@@YAK_KPEAEPEAK@Z" PURGE="0" COMMENT="" />
    <EXPORT ORDINAL="1192" NAME="?WMIControlClientOpsCallback@@YAK_KPEAEPEAK@Z" PURGE="0" COMMENT="" />
    <EXPORT ORDINAL="1193" NAME="?WaitAndPeek@CInstructionQueue@@QEAAJAEAPEAVCTimerInstruction@@AEAVCWbemTime@@@Z" PURGE="0" COMMENT="" />
    <EXPORT ORDINAL="1194" NAME="?WaitForResumption@CHaltable@@QEAAJXZ" PURGE="0" COMMENT="" />
    <EXPORT ORDINAL="1195" NAME="?WaitForSingleObjectWhileBusy@CExecQueue@@MEAAKPEAXKPEAVCThreadRecord@1@@Z" PURGE="0" COMMENT="" />
    <EXPORT ORDINAL="1196" NAME="?WbemGetMachineShutdown@@YAHXZ" PURGE="0" COMMENT="" />
    <EXPORT ORDINAL="1197" NAME="?WbemHeapFree@CWin32DefaultArena@@SAXXZ" PURGE="0" COMMENT="" />
    <EXPORT ORDINAL="1198" NAME="?WbemHeapInitialize@CWin32DefaultArena@@SAHPEAX@Z" PURGE="0" COMMENT="" />
    <EXPORT ORDINAL="1199" NAME="?WbemMemAlloc@CWin32DefaultArena@@SAPEAX_K@Z" PURGE="0" COMMENT="" />
    <EXPORT ORDINAL="1200" NAME="?WbemMemFree@CWin32DefaultArena@@SAHPEAX@Z" PURGE="0" COMMENT="" />
    <EXPORT ORDINAL="1201" NAME="?WbemMemReAlloc@CWin32DefaultArena@@SAPEAXPEAX_K@Z" PURGE="0" COMMENT="" />
    <EXPORT ORDINAL="1202" NAME="?WbemMemSize@CWin32DefaultArena@@SA_KPEAX@Z" PURGE="0" COMMENT="" />
    <EXPORT ORDINAL="1203" NAME="?EnableAllPrivileges@@YAJK@Z" PURGE="0" COMMENT="" />
    <EXPORT ORDINAL="1204" NAME="?WbemSetDynamicCloaking@@YAJPEAUIUnknown@@KK@Z" PURGE="0" COMMENT="" />
    <EXPORT ORDINAL="1205" NAME="?WbemSetMachineShutdown@@YAHH@Z" PURGE="0" COMMENT="" />
    <EXPORT ORDINAL="1206" NAME="?WbemSysAllocString@CWin32DefaultArena@@SAPEAGPEBG@Z" PURGE="0" COMMENT="" />
    <EXPORT ORDINAL="1207" NAME="?WbemSysAllocStringByteLen@CWin32DefaultArena@@SAPEAGPEBDI@Z" PURGE="0" COMMENT="" />
    <EXPORT ORDINAL="1208" NAME="?WbemSysAllocStringLen@CWin32DefaultArena@@SAPEAGPEBGI@Z" PURGE="0" COMMENT="" />
    <EXPORT ORDINAL="1209" NAME="?WbemSysFreeString@CWin32DefaultArena@@SAXPEAG@Z" PURGE="-1" COMMENT="" />
    <EXPORT ORDINAL="1210" NAME="?WbemSysReAllocString@CWin32DefaultArena@@SAHPEAPEAGPEBG@Z" PURGE="0" COMMENT="" />
    <EXPORT ORDINAL="1211" NAME="?WbemSysReAllocStringLen@CWin32DefaultArena@@SAHPEAPEAGPEBGI@Z" PURGE="0" COMMENT="" />
    <EXPORT ORDINAL="1212" NAME="?WbemVariantChangeType@@YAJPEAUtagVARIANT@@0G@Z" PURGE="0" COMMENT="" />
    <EXPORT ORDINAL="1213" NAME="?WildcardTest@WString@@QEBAHPEBG@Z" PURGE="0" COMMENT="" />
    <EXPORT ORDINAL="1214" NAME="?WinPEKey@@YAHXZ" PURGE="0" COMMENT="" />
    <EXPORT ORDINAL="1215" NAME="?Write@CBuffer@@UEAAJPEBXKPEAK@Z" PURGE="0" COMMENT="" />
    <EXPORT ORDINAL="1216" NAME="?Write@CMemoryLog@@QEAAXJ@Z" PURGE="0" COMMENT="" />
    <EXPORT ORDINAL="1217" NAME="?Write@CMemoryLog@@QEAAXPEAXK@Z" PURGE="0" COMMENT="" />
    <EXPORT ORDINAL="1218" NAME="?WriteLPWSTR@CBuffer@@QEAAJPEBG@Z" PURGE="0" COMMENT="" />
    <EXPORT ORDINAL="1219" NAME="?WriteToRegistry@CWMITraceSettings@@QEAAKPEBG@Z" PURGE="0" COMMENT="" />
    <EXPORT ORDINAL="1220" NAME="?_Alloc@CMUILocale@@SAPEAX_K@Z" PURGE="0" COMMENT="" />
    <EXPORT ORDINAL="1221" NAME="?_DoTraceHRFailure_@@YAXJ@Z" PURGE="0" COMMENT="" />
    <EXPORT ORDINAL="1222" NAME="?_Free@CMUILocale@@SAHPEAX@Z" PURGE="0" COMMENT="" />
    <EXPORT ORDINAL="1223" NAME="?_GetSystemDefaultLocale@CMUILocale@@SAJPEAPEAGK@Z" PURGE="0" COMMENT="" />
    <EXPORT ORDINAL="1224" NAME="?_GetSystemDefaultLocaleName@CMUILocale@@SAJPEAPEAG@Z" PURGE="0" COMMENT="" />
    <EXPORT ORDINAL="1225" NAME="?_GetThreadPreferredUILanguages@CMUILocale@@SAJKPEAKPEAG0@Z" PURGE="0" COMMENT="" />
    <EXPORT ORDINAL="1226" NAME="?_IsValidElementName@@YAHPEBGK0@Z" PURGE="0" COMMENT="" />
    <EXPORT ORDINAL="1227" NAME="?_LCIDToLocaleName@CMUILocale@@SAJKPEAGHK@Z" PURGE="0" COMMENT="" />
    <EXPORT ORDINAL="1228" NAME="?_LocaleNameToLCID@CMUILocale@@SAJPEAGKPEAK@Z" PURGE="0" COMMENT="" />
    <EXPORT ORDINAL="1229" NAME="?_SetThreadPreferredUILanguages@CMUILocale@@SAJKPEBGPEAK@Z" PURGE="0" COMMENT="" />
    <EXPORT ORDINAL="1230" NAME="?_ThreadEntry@CExecQueue@@KAKPEAX@Z" PURGE="0" COMMENT="" />
    <EXPORT ORDINAL="1231" NAME="?_ThrowMemoryException_@@YAXXZ" PURGE="-1" COMMENT="" />
    <EXPORT ORDINAL="1232" NAME="?aggregate_by@CAbstractQl1Parser@@IEAAHXZ" PURGE="0" COMMENT="" />
    <EXPORT ORDINAL="1233" NAME="?aggregate_within@CAbstractQl1Parser@@IEAAHXZ" PURGE="0" COMMENT="" />
    <EXPORT ORDINAL="1234" NAME="?aggregation_params@CAbstractQl1Parser@@IEAAHXZ" PURGE="0" COMMENT="" />
    <EXPORT ORDINAL="1235" NAME="?anyFailed_@CStaticCritSec@@0HA" PURGE="-1" COMMENT="" />
    <EXPORT ORDINAL="1236" NAME="?anyFailure@CStaticCritSec@@SAHXZ" PURGE="0" COMMENT="" />
    <EXPORT ORDINAL="1237" NAME="?bAreWeLocal@@YAHPEAG@Z" PURGE="0" COMMENT="" />
    <EXPORT ORDINAL="1238" NAME="?charbuf@CBaseMrciCompression@@AEAAXI@Z" PURGE="0" COMMENT="" />
    <EXPORT ORDINAL="1239" NAME="?class_name@CAbstractQl1Parser@@IEAAHXZ" PURGE="0" COMMENT="" />
    <EXPORT ORDINAL="1240" NAME="?comp_operator@CAbstractQl1Parser@@IEAAHXZ" PURGE="0" COMMENT="" />
    <EXPORT ORDINAL="1241" NAME="?equiv_operator@CAbstractQl1Parser@@IEAAHXZ" PURGE="0" COMMENT="" />
    <EXPORT ORDINAL="1242" NAME="?expandstring@CBaseMrciCompression@@AEAAXPEAPEAEII@Z" PURGE="0" COMMENT="" />
    <EXPORT ORDINAL="1243" NAME="?expr2@CAbstractQl1Parser@@IEAAHXZ" PURGE="0" COMMENT="" />
    <EXPORT ORDINAL="1244" NAME="?expr@CAbstractQl1Parser@@IEAAHXZ" PURGE="0" COMMENT="" />
    <EXPORT ORDINAL="1245" NAME="?finalize@CAbstractQl1Parser@@IEAAHXZ" PURGE="0" COMMENT="" />
    <EXPORT ORDINAL="1246" NAME="?getbit@CBaseMrciCompression@@AEAAIXZ" PURGE="0" COMMENT="" />
    <EXPORT ORDINAL="1247" NAME="?getbits@CBaseMrciCompression@@AEAAII@Z" PURGE="0" COMMENT="" />
    <EXPORT ORDINAL="1248" NAME="?inithash@CBaseMrciCompression@@AEAAXXZ" PURGE="0" COMMENT="" />
    <EXPORT ORDINAL="1249" NAME="?isValid@CHaltable@@QEAA_NXZ" PURGE="0" COMMENT="" />
    <EXPORT ORDINAL="1250" NAME="?is_operator@CAbstractQl1Parser@@IEAAHXZ" PURGE="0" COMMENT="" />
    <EXPORT ORDINAL="1251" NAME="?isunialpha@@YAHG@Z" PURGE="0" COMMENT="" />
    <EXPORT ORDINAL="1252" NAME="?isunialphanum@@YAHG@Z" PURGE="0" COMMENT="" />
    <EXPORT ORDINAL="1253" NAME="?leading_ident_expr@CAbstractQl1Parser@@IEAAHXZ" PURGE="0" COMMENT="" />
    <EXPORT ORDINAL="1254" NAME="?m_bOffline@CWbemInstallObject@@0_NA" PURGE="-1" COMMENT="" />
    <EXPORT ORDINAL="1255" NAME="?m_csFunctionPointers@CMUILocale@@0VCCritSec@@A" PURGE="-1" COMMENT="" />
    <EXPORT ORDINAL="1256" NAME="?m_csFunctionPointers@CPublishWMIOperationEvent@@0VCCritSec@@A" PURGE="-1" COMMENT="" />
    <EXPORT ORDINAL="1257" NAME="?m_csGlobal@CClientOpsNode@@0VCCritSec@@A" PURGE="-1" COMMENT="" />
    <EXPORT ORDINAL="1258" NAME="?m_fEventRegister@CPublishWMIOperationEvent@@0P6AKPEBU_GUID@@P6AX0KE_K1PEAU_EVENT_FILTER_DESCRIPTOR@@PEAX@Z3PEA_K@ZEA" PURGE="-1" COMMENT="" />
    <EXPORT ORDINAL="1259" NAME="?m_fEventUnregister@CPublishWMIOperationEvent@@0P6AK_K@ZEA" PURGE="-1" COMMENT="" />
    <EXPORT ORDINAL="1260" NAME="?m_fEventWrite@CPublishWMIOperationEvent@@0P6AK_KPEAU_EVENT_DESCRIPTOR@@KPEAU_EVENT_DATA_DESCRIPTOR@@@ZEA" PURGE="-1" COMMENT="" />
    <EXPORT ORDINAL="1261" NAME="?m_fGetLocaleInfoEx@CMUILocale@@0PEAXEA" PURGE="-1" COMMENT="" />
    <EXPORT ORDINAL="1262" NAME="?m_fGetSystemDefaultLocaleName@CMUILocale@@0PEAXEA" PURGE="-1" COMMENT="" />
    <EXPORT ORDINAL="1263" NAME="?m_fGetThreadPreferredUILanguages@CMUILocale@@0PEAXEA" PURGE="-1" COMMENT="" />
    <EXPORT ORDINAL="1264" NAME="?m_fLCIDToLocaleName@CMUILocale@@0PEAXEA" PURGE="-1" COMMENT="" />
    <EXPORT ORDINAL="1265" NAME="?m_fLocaleNameToLCID@CMUILocale@@0PEAXEA" PURGE="-1" COMMENT="" />
    <EXPORT ORDINAL="1266" NAME="?m_fSetThreadPreferredUILanguages@CMUILocale@@0PEAXEA" PURGE="-1" COMMENT="" />
    <EXPORT ORDINAL="1267" NAME="?m_hAdvAPI32@CPublishWMIOperationEvent@@0PEAUHINSTANCE__@@EA" PURGE="-1" COMMENT="" />
    <EXPORT ORDINAL="1268" NAME="?m_hKernel32@CMUILocale@@0PEAUHINSTANCE__@@EA" PURGE="-1" COMMENT="" />
    <EXPORT ORDINAL="1269" NAME="?m_pEnvironmentMap@CWbemInstallObject@@0PEAV?$map@PEBGPEBGU?$SZLess@PEBG@@V?$wbem_allocator@PEBG@@@std@@EA" PURGE="-1" COMMENT="" />
    <EXPORT ORDINAL="1270" NAME="?m_pfFlushCache@CWbemInstallObject@@0P6AJH@ZEA" PURGE="-1" COMMENT="" />
    <EXPORT ORDINAL="1271" NAME="?m_publisher@CPublishWMIOperationEvent@@0_KA" PURGE="-1" COMMENT="" />
    <EXPORT ORDINAL="1272" NAME="?m_pwszAutoRecoverPath@CWbemInstallObject@@0PEBGEB" PURGE="-1" COMMENT="" />
    <EXPORT ORDINAL="1273" NAME="?m_pwszBinaryPath@CWbemInstallObject@@0PEBGEB" PURGE="-1" COMMENT="" />
    <EXPORT ORDINAL="1274" NAME="?m_pwszRegistryPathCIMOM@CWbemInstallObject@@0PEBGEB" PURGE="-1" COMMENT="" />
    <EXPORT ORDINAL="1275" NAME="?m_pwszRegistryPathWbem@CWbemInstallObject@@0PEBGEB" PURGE="-1" COMMENT="" />
    <EXPORT ORDINAL="1276" NAME="?m_pwszRepositoryPath@CWbemInstallObject@@0PEBGEB" PURGE="-1" COMMENT="" />
    <EXPORT ORDINAL="1277" NAME="?m_rgClsidDllMap@CWbemInstallObject@@0PAUClsidDllMapping@@A" PURGE="-1" COMMENT="" />
    <EXPORT ORDINAL="1278" NAME="?m_rgDllModules@CWbemInstallObject@@0PAUDllModuleHandle@@A" PURGE="-1" COMMENT="" />
    <EXPORT ORDINAL="1279" NAME="?mrci1outsingle@CBaseMrciCompression@@AEAAXI@Z" PURGE="0" COMMENT="" />
    <EXPORT ORDINAL="1280" NAME="?mrci1outstring@CBaseMrciCompression@@AEAAXII@Z" PURGE="0" COMMENT="" />
    <EXPORT ORDINAL="1281" NAME="?mrci2outsingle@CBaseMrciCompression@@AEAAXI@Z" PURGE="0" COMMENT="" />
    <EXPORT ORDINAL="1282" NAME="?mrci2outstring@CBaseMrciCompression@@AEAAXII@Z" PURGE="0" COMMENT="" />
    <EXPORT ORDINAL="1283" NAME="?ms_XXX_Locale_From_LCID@CMUILocale@@SAJKPEAPEAG@Z" PURGE="0" COMMENT="" />
    <EXPORT ORDINAL="1284" NAME="?ms_XXX_Locale_To_LCID@CMUILocale@@SAJPEBGPEAK@Z" PURGE="0" COMMENT="" />
    <EXPORT ORDINAL="1285" NAME="?mstatic_dwTlsIndex@@3KA" PURGE="-1" COMMENT="" />
    <EXPORT ORDINAL="1286" NAME="?mstatic_lNumInits@CExecQueue@@1JA" PURGE="-1" COMMENT="" />
    <EXPORT ORDINAL="1287" NAME="?opt_aggregation@CAbstractQl1Parser@@IEAAHXZ" PURGE="0" COMMENT="" />
    <EXPORT ORDINAL="1288" NAME="?opt_having@CAbstractQl1Parser@@IEAAHXZ" PURGE="0" COMMENT="" />
    <EXPORT ORDINAL="1289" NAME="?opt_where@CAbstractQl1Parser@@IEAAHXZ" PURGE="0" COMMENT="" />
    <EXPORT ORDINAL="1290" NAME="?outlength@CBaseMrciCompression@@AEAAXI@Z" PURGE="0" COMMENT="" />
    <EXPORT ORDINAL="1291" NAME="?parse@CAbstractQl1Parser@@IEAAHH@Z" PURGE="0" COMMENT="" />
    <EXPORT ORDINAL="1292" NAME="?parse_property_name@CAbstractQl1Parser@@IEAAHAEAVCPropertyName@@@Z" PURGE="0" COMMENT="" />
    <EXPORT ORDINAL="1293" NAME="?prop_list@CAbstractQl1Parser@@IEAAHXZ" PURGE="0" COMMENT="" />
    <EXPORT ORDINAL="1294" NAME="?prop_list_2@CAbstractQl1Parser@@IEAAHXZ" PURGE="0" COMMENT="" />
    <EXPORT ORDINAL="1295" NAME="?property_name@CAbstractQl1Parser@@IEAAHXZ" PURGE="0" COMMENT="" />
    <EXPORT ORDINAL="1296" NAME="?putbits@CBaseMrciCompression@@AEAAXII@Z" PURGE="0" COMMENT="" />
    <EXPORT ORDINAL="1297" NAME="?rel_operator@CAbstractQl1Parser@@IEAAHXZ" PURGE="0" COMMENT="" />
    <EXPORT ORDINAL="1298" NAME="?simple_expr@CAbstractQl1Parser@@IEAAHXZ" PURGE="0" COMMENT="" />
    <EXPORT ORDINAL="1299" NAME="?staticRead@CBasicUnloadInstruction@@SA?AVCWbemInterval@@PEAUIWbemServices@@PEAUIWbemContext@@PEBG@Z" PURGE="0" COMMENT="" />
    <EXPORT ORDINAL="1300" NAME="?term2@CAbstractQl1Parser@@IEAAHXZ" PURGE="0" COMMENT="" />
    <EXPORT ORDINAL="1301" NAME="?term@CAbstractQl1Parser@@IEAAHXZ" PURGE="0" COMMENT="" />
    <EXPORT ORDINAL="1302" NAME="?tolerance@CAbstractQl1Parser@@IEAAHXZ" PURGE="0" COMMENT="" />
    <EXPORT ORDINAL="1303" NAME="?trailing_const_expr@CAbstractQl1Parser@@IEAAHXZ" PURGE="0" COMMENT="" />
    <EXPORT ORDINAL="1304" NAME="?trailing_ident_expr@CAbstractQl1Parser@@IEAAHXZ" PURGE="0" COMMENT="" />
    <EXPORT ORDINAL="1305" NAME="?trailing_or_null@CAbstractQl1Parser@@IEAAHXZ" PURGE="0" COMMENT="" />
    <EXPORT ORDINAL="1306" NAME="?trailing_prop_expr@CAbstractQl1Parser@@IEAAHXZ" PURGE="0" COMMENT="" />
    <EXPORT ORDINAL="1307" NAME="?typed_constant@CAbstractQl1Parser@@IEAAHXZ" PURGE="0" COMMENT="" />
    <EXPORT ORDINAL="6" NAME="Ordinal_6" PURGE="-1" COMMENT="" />
    <EXPORT ORDINAL="2" NAME="Ordinal_2" PURGE="-1" COMMENT="" />
    <EXPORT ORDINAL="150" NAME="Ordinal_150" PURGE="-1" COMMENT="" />
    <EXPORT ORDINAL="3" NAME="Ordinal_3" PURGE="-1" COMMENT="" />
    <EXPORT ORDINAL="4" NAME="Ordinal_4" PURGE="-1" COMMENT="" />
    <EXPORT ORDINAL="5" NAME="Ordinal_5" PURGE="-1" COMMENT="" />
    <EXPORT ORDINAL="8" NAME="Ordinal_8" PURGE="-1" COMMENT="" />
    <EXPORT ORDINAL="12" NAME="Ordinal_12" PURGE="-1" COMMENT="" />
    <EXPORT ORDINAL="23" NAME="Ordinal_23" PURGE="-1" COMMENT="" />
    <EXPORT ORDINAL="24" NAME="Ordinal_24" PURGE="-1" COMMENT="" />
    <EXPORT ORDINAL="9" NAME="Ordinal_9" PURGE="-1" COMMENT="" />
    <EXPORT ORDINAL="10" NAME="Ordinal_10" PURGE="-1" COMMENT="" />
    <EXPORT ORDINAL="20" NAME="Ordinal_20" PURGE="-1" COMMENT="" />
    <EXPORT ORDINAL="19" NAME="Ordinal_19" PURGE="-1" COMMENT="" />
    <EXPORT ORDINAL="15" NAME="Ordinal_15" PURGE="-1" COMMENT="" />
    <EXPORT ORDINAL="25" NAME="Ordinal_25" PURGE="-1" COMMENT="" />
    <EXPORT ORDINAL="26" NAME="Ordinal_26" PURGE="-1" COMMENT="" />
    <EXPORT ORDINAL="16" NAME="Ordinal_16" PURGE="-1" COMMENT="" />
    <EXPORT ORDINAL="147" NAME="Ordinal_147" PURGE="-1" COMMENT="" />
    <EXPORT ORDINAL="27" NAME="Ordinal_27" PURGE="-1" COMMENT="" />
    <EXPORT ORDINAL="17" NAME="Ordinal_17" PURGE="-1" COMMENT="" />
    <EXPORT ORDINAL="18" NAME="Ordinal_18" PURGE="-1" COMMENT="" />
    <EXPORT ORDINAL="40" NAME="Ordinal_40" PURGE="-1" COMMENT="" />
    <EXPORT ORDINAL="77" NAME="Ordinal_77" PURGE="-1" COMMENT="" />
    <EXPORT ORDINAL="7" NAME="Ordinal_7" PURGE="-1" COMMENT="" />
    <EXPORT ORDINAL="52" NAME="Ordinal_52" PURGE="-1" COMMENT="" />
    <EXPORT ORDINAL="51" NAME="Ordinal_51" PURGE="-1" COMMENT="" />
    <EXPORT ORDINAL="11" NAME="Ordinal_11" PURGE="-1" COMMENT="" />
    <EXPORT ORDINAL="3" NAME="Ordinal_3" PURGE="-1" COMMENT="" />
    <EXPORT ORDINAL="23" NAME="Ordinal_23" PURGE="-1" COMMENT="" />
</LIBRARY>

